
build/retrosoc_fw:     file format elf32-littleriscv


Disassembly of section .text:

00000000 <start>:
       0:	00000093          	li	ra,0
       4:	30020117          	auipc	sp,0x30020
       8:	ffc10113          	addi	sp,sp,-4 # 30020000 <_stack_point>
       c:	00000193          	li	gp,0
      10:	00000213          	li	tp,0
      14:	00000293          	li	t0,0
      18:	00000313          	li	t1,0
      1c:	00000393          	li	t2,0
      20:	00000413          	li	s0,0
      24:	00000493          	li	s1,0
      28:	00000513          	li	a0,0
      2c:	00000593          	li	a1,0
      30:	00000613          	li	a2,0
      34:	00000693          	li	a3,0
      38:	00000713          	li	a4,0
      3c:	00000793          	li	a5,0
      40:	00000813          	li	a6,0
      44:	00000893          	li	a7,0
      48:	00000913          	li	s2,0
      4c:	00000993          	li	s3,0
      50:	00000a13          	li	s4,0
      54:	00000a93          	li	s5,0
      58:	00000b13          	li	s6,0
      5c:	00000b93          	li	s7,0
      60:	00000c13          	li	s8,0
      64:	00000c93          	li	s9,0
      68:	00000d13          	li	s10,0
      6c:	00000d93          	li	s11,0
      70:	00000e13          	li	t3,0
      74:	00000e93          	li	t4,0
      78:	00000f13          	li	t5,0
      7c:	00000f93          	li	t6,0
      80:	0002d517          	auipc	a0,0x2d
      84:	78c50513          	addi	a0,a0,1932 # 2d80c <_etext>
      88:	30000597          	auipc	a1,0x30000
      8c:	f7858593          	addi	a1,a1,-136 # 30000000 <adc_data>
      90:	30000617          	auipc	a2,0x30000
      94:	f7060613          	addi	a2,a2,-144 # 30000000 <adc_data>
      98:	00c5dc63          	bge	a1,a2,b0 <end_init_data>

0000009c <loop_init_data>:
      9c:	00052683          	lw	a3,0(a0)
      a0:	00d5a023          	sw	a3,0(a1)
      a4:	00450513          	addi	a0,a0,4
      a8:	00458593          	addi	a1,a1,4
      ac:	fec5c8e3          	blt	a1,a2,9c <loop_init_data>

000000b0 <end_init_data>:
      b0:	30000517          	auipc	a0,0x30000
      b4:	f5050513          	addi	a0,a0,-176 # 30000000 <adc_data>
      b8:	30018597          	auipc	a1,0x30018
      bc:	c4c58593          	addi	a1,a1,-948 # 30017d04 <_ebss>
      c0:	00b55863          	bge	a0,a1,d0 <end_init_bss>

000000c4 <loop_init_bss>:
      c4:	00052023          	sw	zero,0(a0)
      c8:	00450513          	addi	a0,a0,4
      cc:	feb54ce3          	blt	a0,a1,c4 <loop_init_bss>

000000d0 <end_init_bss>:
      d0:	680030ef          	jal	3750 <main>

000000d4 <loop>:
      d4:	0000006f          	j	d4 <loop>

000000d8 <get_sin_q15>:
      d8:	000047b7          	lui	a5,0x4
      dc:	07f57513          	andi	a0,a0,127
      e0:	04000713          	li	a4,64
      e4:	9c078793          	addi	a5,a5,-1600 # 39c0 <SIN_TABLE_128>
      e8:	00a74a63          	blt	a4,a0,fc <get_sin_q15+0x24>
      ec:	00151513          	slli	a0,a0,0x1
      f0:	00a787b3          	add	a5,a5,a0
      f4:	00079503          	lh	a0,0(a5)
      f8:	00008067          	ret
      fc:	fc050513          	addi	a0,a0,-64
     100:	00151513          	slli	a0,a0,0x1
     104:	00a787b3          	add	a5,a5,a0
     108:	0007d503          	lhu	a0,0(a5)
     10c:	40a00533          	neg	a0,a0
     110:	01051513          	slli	a0,a0,0x10
     114:	41055513          	srai	a0,a0,0x10
     118:	00008067          	ret

0000011c <my_malloc>:
     11c:	30018737          	lui	a4,0x30018
     120:	00350593          	addi	a1,a0,3
     124:	d0072503          	lw	a0,-768(a4) # 30017d00 <heap_offset>
     128:	ffc5f593          	andi	a1,a1,-4
     12c:	00010637          	lui	a2,0x10
     130:	00b506b3          	add	a3,a0,a1
     134:	02d67663          	bgeu	a2,a3,160 <my_malloc+0x44>
     138:	40a60633          	sub	a2,a2,a0
     13c:	0002d537          	lui	a0,0x2d
     140:	ff010113          	addi	sp,sp,-16
     144:	58450513          	addi	a0,a0,1412 # 2d584 <open_pcm+0xad44>
     148:	00112623          	sw	ra,12(sp)
     14c:	6d5000ef          	jal	1020 <printf>
     150:	00c12083          	lw	ra,12(sp)
     154:	00000513          	li	a0,0
     158:	01010113          	addi	sp,sp,16
     15c:	00008067          	ret
     160:	300087b7          	lui	a5,0x30008
     164:	d0078793          	addi	a5,a5,-768 # 30007d00 <heap_memory>
     168:	00f50533          	add	a0,a0,a5
     16c:	d0d72023          	sw	a3,-768(a4)
     170:	00008067          	ret

00000174 <compute_dtw_distance_fixed>:
     174:	fe010113          	addi	sp,sp,-32
     178:	01612023          	sw	s6,0(sp)
     17c:	00452b03          	lw	s6,4(a0)
     180:	01512223          	sw	s5,4(sp)
     184:	00112e23          	sw	ra,28(sp)
     188:	00812c23          	sw	s0,24(sp)
     18c:	00912a23          	sw	s1,20(sp)
     190:	01212823          	sw	s2,16(sp)
     194:	01312623          	sw	s3,12(sp)
     198:	01412423          	sw	s4,8(sp)
     19c:	0045aa83          	lw	s5,4(a1)
     1a0:	000b0463          	beqz	s6,1a8 <compute_dtw_distance_fixed+0x34>
     1a4:	020a9a63          	bnez	s5,1d8 <compute_dtw_distance_fixed+0x64>
     1a8:	80000537          	lui	a0,0x80000
     1ac:	fff50513          	addi	a0,a0,-1 # 7fffffff <_stack_point+0x4ffdffff>
     1b0:	01c12083          	lw	ra,28(sp)
     1b4:	01812403          	lw	s0,24(sp)
     1b8:	01412483          	lw	s1,20(sp)
     1bc:	01012903          	lw	s2,16(sp)
     1c0:	00c12983          	lw	s3,12(sp)
     1c4:	00812a03          	lw	s4,8(sp)
     1c8:	00412a83          	lw	s5,4(sp)
     1cc:	00012b03          	lw	s6,0(sp)
     1d0:	02010113          	addi	sp,sp,32
     1d4:	00008067          	ret
     1d8:	002a9993          	slli	s3,s5,0x2
     1dc:	00852483          	lw	s1,8(a0)
     1e0:	00050913          	mv	s2,a0
     1e4:	00098513          	mv	a0,s3
     1e8:	00058a13          	mv	s4,a1
     1ec:	f31ff0ef          	jal	11c <my_malloc>
     1f0:	00050413          	mv	s0,a0
     1f4:	00098513          	mv	a0,s3
     1f8:	f25ff0ef          	jal	11c <my_malloc>
     1fc:	fa0406e3          	beqz	s0,1a8 <compute_dtw_distance_fixed+0x34>
     200:	fa0504e3          	beqz	a0,1a8 <compute_dtw_distance_fixed+0x34>
     204:	00000713          	li	a4,0
     208:	00000693          	li	a3,0
     20c:	02974463          	blt	a4,s1,234 <compute_dtw_distance_fixed+0xc0>
     210:	00d42023          	sw	a3,0(s0)
     214:	00048813          	mv	a6,s1
     218:	00040693          	mv	a3,s0
     21c:	00100893          	li	a7,1
     220:	1b58da63          	bge	a7,s5,3d4 <compute_dtw_distance_fixed+0x260>
     224:	00281593          	slli	a1,a6,0x2
     228:	00000713          	li	a4,0
     22c:	00000613          	li	a2,0
     230:	0740006f          	j	2a4 <compute_dtw_distance_fixed+0x130>
     234:	00092783          	lw	a5,0(s2)
     238:	000a2603          	lw	a2,0(s4)
     23c:	00271593          	slli	a1,a4,0x2
     240:	00b787b3          	add	a5,a5,a1
     244:	00b60633          	add	a2,a2,a1
     248:	00062603          	lw	a2,0(a2) # 10000 <open_test_pcm+0x2200>
     24c:	0007a783          	lw	a5,0(a5)
     250:	00170713          	addi	a4,a4,1
     254:	40c787b3          	sub	a5,a5,a2
     258:	41f7d613          	srai	a2,a5,0x1f
     25c:	00f647b3          	xor	a5,a2,a5
     260:	40c787b3          	sub	a5,a5,a2
     264:	00f686b3          	add	a3,a3,a5
     268:	fa5ff06f          	j	20c <compute_dtw_distance_fixed+0x98>
     26c:	00092783          	lw	a5,0(s2)
     270:	00271313          	slli	t1,a4,0x2
     274:	00170713          	addi	a4,a4,1
     278:	006787b3          	add	a5,a5,t1
     27c:	000a2303          	lw	t1,0(s4)
     280:	0007a783          	lw	a5,0(a5)
     284:	00b30333          	add	t1,t1,a1
     288:	00032303          	lw	t1,0(t1)
     28c:	00458593          	addi	a1,a1,4
     290:	406787b3          	sub	a5,a5,t1
     294:	41f7d313          	srai	t1,a5,0x1f
     298:	00f347b3          	xor	a5,t1,a5
     29c:	406787b3          	sub	a5,a5,t1
     2a0:	00f60633          	add	a2,a2,a5
     2a4:	fc9744e3          	blt	a4,s1,26c <compute_dtw_distance_fixed+0xf8>
     2a8:	0006a783          	lw	a5,0(a3)
     2ac:	00188893          	addi	a7,a7,1
     2b0:	00468693          	addi	a3,a3,4
     2b4:	00c787b3          	add	a5,a5,a2
     2b8:	00f6a023          	sw	a5,0(a3)
     2bc:	00980833          	add	a6,a6,s1
     2c0:	f61ff06f          	j	220 <compute_dtw_distance_fixed+0xac>
     2c4:	00092783          	lw	a5,0(s2)
     2c8:	000a2303          	lw	t1,0(s4)
     2cc:	00271e13          	slli	t3,a4,0x2
     2d0:	00c787b3          	add	a5,a5,a2
     2d4:	01c30333          	add	t1,t1,t3
     2d8:	00032303          	lw	t1,0(t1)
     2dc:	0007a783          	lw	a5,0(a5)
     2e0:	00170713          	addi	a4,a4,1
     2e4:	00460613          	addi	a2,a2,4
     2e8:	406787b3          	sub	a5,a5,t1
     2ec:	41f7d313          	srai	t1,a5,0x1f
     2f0:	00f347b3          	xor	a5,t1,a5
     2f4:	406787b3          	sub	a5,a5,t1
     2f8:	00f686b3          	add	a3,a3,a5
     2fc:	fc9744e3          	blt	a4,s1,2c4 <compute_dtw_distance_fixed+0x150>
     300:	00042783          	lw	a5,0(s0)
     304:	00040713          	mv	a4,s0
     308:	00048f13          	mv	t5,s1
     30c:	00d787b3          	add	a5,a5,a3
     310:	00f52023          	sw	a5,0(a0)
     314:	00050693          	mv	a3,a0
     318:	00100f93          	li	t6,1
     31c:	095fd663          	bge	t6,s5,3a8 <compute_dtw_distance_fixed+0x234>
     320:	002f1e93          	slli	t4,t5,0x2
     324:	00088e13          	mv	t3,a7
     328:	00000313          	li	t1,0
     32c:	00000613          	li	a2,0
     330:	03c0006f          	j	36c <compute_dtw_distance_fixed+0x1f8>
     334:	00092783          	lw	a5,0(s2)
     338:	000a2283          	lw	t0,0(s4)
     33c:	00130313          	addi	t1,t1,1
     340:	01c787b3          	add	a5,a5,t3
     344:	01d282b3          	add	t0,t0,t4
     348:	0002a283          	lw	t0,0(t0)
     34c:	0007a783          	lw	a5,0(a5)
     350:	004e0e13          	addi	t3,t3,4
     354:	004e8e93          	addi	t4,t4,4
     358:	405787b3          	sub	a5,a5,t0
     35c:	41f7d293          	srai	t0,a5,0x1f
     360:	00f2c7b3          	xor	a5,t0,a5
     364:	405787b3          	sub	a5,a5,t0
     368:	00f60633          	add	a2,a2,a5
     36c:	fc9344e3          	blt	t1,s1,334 <compute_dtw_distance_fixed+0x1c0>
     370:	00472303          	lw	t1,4(a4)
     374:	0006a783          	lw	a5,0(a3)
     378:	00f35463          	bge	t1,a5,380 <compute_dtw_distance_fixed+0x20c>
     37c:	00030793          	mv	a5,t1
     380:	00072303          	lw	t1,0(a4)
     384:	00f35463          	bge	t1,a5,38c <compute_dtw_distance_fixed+0x218>
     388:	00030793          	mv	a5,t1
     38c:	00c787b3          	add	a5,a5,a2
     390:	00f6a223          	sw	a5,4(a3)
     394:	001f8f93          	addi	t6,t6,1
     398:	00470713          	addi	a4,a4,4
     39c:	00468693          	addi	a3,a3,4
     3a0:	009f0f33          	add	t5,t5,s1
     3a4:	f79ff06f          	j	31c <compute_dtw_distance_fixed+0x1a8>
     3a8:	00040793          	mv	a5,s0
     3ac:	00180813          	addi	a6,a6,1
     3b0:	00050413          	mv	s0,a0
     3b4:	009585b3          	add	a1,a1,s1
     3b8:	00078513          	mv	a0,a5
     3bc:	03685263          	bge	a6,s6,3e0 <compute_dtw_distance_fixed+0x26c>
     3c0:	00259893          	slli	a7,a1,0x2
     3c4:	00088613          	mv	a2,a7
     3c8:	00000713          	li	a4,0
     3cc:	00000693          	li	a3,0
     3d0:	f2dff06f          	j	2fc <compute_dtw_distance_fixed+0x188>
     3d4:	00048593          	mv	a1,s1
     3d8:	00100813          	li	a6,1
     3dc:	fe1ff06f          	j	3bc <compute_dtw_distance_fixed+0x248>
     3e0:	01340433          	add	s0,s0,s3
     3e4:	ffc42503          	lw	a0,-4(s0)
     3e8:	dc9ff06f          	j	1b0 <compute_dtw_distance_fixed+0x3c>

000003ec <extract_features_fixed>:
     3ec:	a8010113          	addi	sp,sp,-1408
     3f0:	04000793          	li	a5,64
     3f4:	56812c23          	sw	s0,1400(sp)
     3f8:	f8058413          	addi	s0,a1,-128
     3fc:	02f44433          	div	s0,s0,a5
     400:	56112e23          	sw	ra,1404(sp)
     404:	56912a23          	sw	s1,1396(sp)
     408:	57212823          	sw	s2,1392(sp)
     40c:	57312623          	sw	s3,1388(sp)
     410:	57412423          	sw	s4,1384(sp)
     414:	57512223          	sw	s5,1380(sp)
     418:	57612023          	sw	s6,1376(sp)
     41c:	55712e23          	sw	s7,1372(sp)
     420:	55812c23          	sw	s8,1368(sp)
     424:	55912a23          	sw	s9,1364(sp)
     428:	55a12823          	sw	s10,1360(sp)
     42c:	55b12623          	sw	s11,1356(sp)
     430:	00140793          	addi	a5,s0,1
     434:	56f05263          	blez	a5,998 <extract_features_fixed+0x5ac>
     438:	00050493          	mv	s1,a0
     43c:	00579513          	slli	a0,a5,0x5
     440:	cddff0ef          	jal	11c <my_malloc>
     444:	00a12423          	sw	a0,8(sp)
     448:	54050863          	beqz	a0,998 <extract_features_fixed+0x5ac>
     44c:	08048793          	addi	a5,s1,128
     450:	00741413          	slli	s0,s0,0x7
     454:	008787b3          	add	a5,a5,s0
     458:	00f12823          	sw	a5,16(sp)
     45c:	000047b7          	lui	a5,0x4
     460:	9c078793          	addi	a5,a5,-1600 # 39c0 <SIN_TABLE_128>
     464:	00f12a23          	sw	a5,20(sp)
     468:	009897b7          	lui	a5,0x989
     46c:	0000bcb7          	lui	s9,0xb
     470:	68078793          	addi	a5,a5,1664 # 989680 <_etext+0x95be74>
     474:	00000a13          	li	s4,0
     478:	07f00293          	li	t0,127
     47c:	14010c13          	addi	s8,sp,320
     480:	172c8c93          	addi	s9,s9,370 # b172 <close_test_pcm+0x76f2>
     484:	00f12c23          	sw	a5,24(sp)
     488:	00048613          	mv	a2,s1
     48c:	00000693          	li	a3,0
     490:	00000793          	li	a5,0
     494:	10048593          	addi	a1,s1,256
     498:	00061703          	lh	a4,0(a2)
     49c:	00260613          	addi	a2,a2,2
     4a0:	02e70533          	mul	a0,a4,a4
     4a4:	02e71733          	mulh	a4,a4,a4
     4a8:	00a68533          	add	a0,a3,a0
     4ac:	00d53833          	sltu	a6,a0,a3
     4b0:	00050693          	mv	a3,a0
     4b4:	00e787b3          	add	a5,a5,a4
     4b8:	00f807b3          	add	a5,a6,a5
     4bc:	fcb61ee3          	bne	a2,a1,498 <extract_features_fixed+0xac>
     4c0:	00f04863          	bgtz	a5,4d0 <extract_features_fixed+0xe4>
     4c4:	30079a63          	bnez	a5,7d8 <extract_features_fixed+0x3ec>
     4c8:	01812783          	lw	a5,24(sp)
     4cc:	30a7f663          	bgeu	a5,a0,7d8 <extract_features_fixed+0x3ec>
     4d0:	14010913          	addi	s2,sp,320
     4d4:	00090713          	mv	a4,s2
     4d8:	00048793          	mv	a5,s1
     4dc:	00079683          	lh	a3,0(a5)
     4e0:	00072223          	sw	zero,4(a4)
     4e4:	00278793          	addi	a5,a5,2
     4e8:	00d72023          	sw	a3,0(a4)
     4ec:	00870713          	addi	a4,a4,8
     4f0:	feb796e3          	bne	a5,a1,4dc <extract_features_fixed+0xf0>
     4f4:	00090713          	mv	a4,s2
     4f8:	00000613          	li	a2,0
     4fc:	00000793          	li	a5,0
     500:	04000693          	li	a3,64
     504:	08d7d063          	bge	a5,a3,584 <extract_features_fixed+0x198>
     508:	00160613          	addi	a2,a2,1
     50c:	04561063          	bne	a2,t0,54c <extract_features_fixed+0x160>
     510:	00700993          	li	s3,7
     514:	00200a93          	li	s5,2
     518:	08000793          	li	a5,128
     51c:	0357c7b3          	div	a5,a5,s5
     520:	401adf93          	srai	t6,s5,0x1
     524:	003a9f13          	slli	t5,s5,0x3
     528:	002a9e93          	slli	t4,s5,0x2
     52c:	00090d93          	mv	s11,s2
     530:	00000313          	li	t1,0
     534:	00f12623          	sw	a5,12(sp)
     538:	01be8bb3          	add	s7,t4,s11
     53c:	000d8b13          	mv	s6,s11
     540:	02000d13          	li	s10,32
     544:	00000893          	li	a7,0
     548:	1240006f          	j	66c <extract_features_fixed+0x280>
     54c:	00d787b3          	add	a5,a5,a3
     550:	00870713          	addi	a4,a4,8
     554:	faf656e3          	bge	a2,a5,500 <extract_features_fixed+0x114>
     558:	00379693          	slli	a3,a5,0x3
     55c:	00d906b3          	add	a3,s2,a3
     560:	0006a803          	lw	a6,0(a3)
     564:	00072503          	lw	a0,0(a4)
     568:	00472583          	lw	a1,4(a4)
     56c:	01072023          	sw	a6,0(a4)
     570:	0046a803          	lw	a6,4(a3)
     574:	01072223          	sw	a6,4(a4)
     578:	00a6a023          	sw	a0,0(a3)
     57c:	00b6a223          	sw	a1,4(a3)
     580:	f81ff06f          	j	500 <extract_features_fixed+0x114>
     584:	40d787b3          	sub	a5,a5,a3
     588:	4016d693          	srai	a3,a3,0x1
     58c:	f79ff06f          	j	504 <extract_features_fixed+0x118>
     590:	000d0513          	mv	a0,s10
     594:	02612623          	sw	t1,44(sp)
     598:	03112423          	sw	a7,40(sp)
     59c:	03f12223          	sw	t6,36(sp)
     5a0:	03e12023          	sw	t5,32(sp)
     5a4:	01d12e23          	sw	t4,28(sp)
     5a8:	b31ff0ef          	jal	d8 <get_sin_q15>
     5ac:	00050413          	mv	s0,a0
     5b0:	fe0d0513          	addi	a0,s10,-32
     5b4:	b25ff0ef          	jal	d8 <get_sin_q15>
     5b8:	004ba803          	lw	a6,4(s7)
     5bc:	000ba683          	lw	a3,0(s7)
     5c0:	000b2583          	lw	a1,0(s6)
     5c4:	030507b3          	mul	a5,a0,a6
     5c8:	004b2603          	lw	a2,4(s6)
     5cc:	02812883          	lw	a7,40(sp)
     5d0:	02c12303          	lw	t1,44(sp)
     5d4:	02412f83          	lw	t6,36(sp)
     5d8:	02012f03          	lw	t5,32(sp)
     5dc:	01c12e83          	lw	t4,28(sp)
     5e0:	00188893          	addi	a7,a7,1
     5e4:	008b8b93          	addi	s7,s7,8
     5e8:	008b0b13          	addi	s6,s6,8
     5ec:	02d40733          	mul	a4,s0,a3
     5f0:	07f00293          	li	t0,127
     5f4:	02d41e33          	mulh	t3,s0,a3
     5f8:	00f707b3          	add	a5,a4,a5
     5fc:	00e7b733          	sltu	a4,a5,a4
     600:	00f7d793          	srli	a5,a5,0xf
     604:	030513b3          	mulh	t2,a0,a6
     608:	007e0e33          	add	t3,t3,t2
     60c:	01c70733          	add	a4,a4,t3
     610:	01171713          	slli	a4,a4,0x11
     614:	00f707b3          	add	a5,a4,a5
     618:	03040733          	mul	a4,s0,a6
     61c:	03041433          	mulh	s0,s0,a6
     620:	02d50833          	mul	a6,a0,a3
     624:	02d516b3          	mulh	a3,a0,a3
     628:	41070833          	sub	a6,a4,a6
     62c:	01073733          	sltu	a4,a4,a6
     630:	00f85813          	srli	a6,a6,0xf
     634:	40d40433          	sub	s0,s0,a3
     638:	40e40433          	sub	s0,s0,a4
     63c:	01141413          	slli	s0,s0,0x11
     640:	40f58733          	sub	a4,a1,a5
     644:	01040833          	add	a6,s0,a6
     648:	00f585b3          	add	a1,a1,a5
     64c:	00c12783          	lw	a5,12(sp)
     650:	feebac23          	sw	a4,-8(s7)
     654:	41060733          	sub	a4,a2,a6
     658:	feebae23          	sw	a4,-4(s7)
     65c:	01060633          	add	a2,a2,a6
     660:	febb2c23          	sw	a1,-8(s6)
     664:	fecb2e23          	sw	a2,-4(s6)
     668:	00fd0d33          	add	s10,s10,a5
     66c:	f3f8c2e3          	blt	a7,t6,590 <extract_features_fixed+0x1a4>
     670:	01530333          	add	t1,t1,s5
     674:	01ed8db3          	add	s11,s11,t5
     678:	ec62d0e3          	bge	t0,t1,538 <extract_features_fixed+0x14c>
     67c:	fff98993          	addi	s3,s3,-1
     680:	001a9a93          	slli	s5,s5,0x1
     684:	e8099ae3          	bnez	s3,518 <extract_features_fixed+0x12c>
     688:	03c10693          	addi	a3,sp,60
     68c:	20890613          	addi	a2,s2,520
     690:	00068f13          	mv	t5,a3
     694:	00092583          	lw	a1,0(s2)
     698:	00492503          	lw	a0,4(s2)
     69c:	00890913          	addi	s2,s2,8
     6a0:	02b58733          	mul	a4,a1,a1
     6a4:	00468693          	addi	a3,a3,4
     6a8:	02a507b3          	mul	a5,a0,a0
     6ac:	02b595b3          	mulh	a1,a1,a1
     6b0:	00f707b3          	add	a5,a4,a5
     6b4:	00e7b733          	sltu	a4,a5,a4
     6b8:	00a7d793          	srli	a5,a5,0xa
     6bc:	02a51533          	mulh	a0,a0,a0
     6c0:	00a585b3          	add	a1,a1,a0
     6c4:	00b70733          	add	a4,a4,a1
     6c8:	01671713          	slli	a4,a4,0x16
     6cc:	00f707b3          	add	a5,a4,a5
     6d0:	fef6ae23          	sw	a5,-4(a3)
     6d4:	fd2610e3          	bne	a2,s2,694 <extract_features_fixed+0x2a8>
     6d8:	01412783          	lw	a5,20(sp)
     6dc:	00000313          	li	t1,0
     6e0:	00600813          	li	a6,6
     6e4:	08478e13          	addi	t3,a5,132
     6e8:	000e2883          	lw	a7,0(t3)
     6ec:	00080713          	mv	a4,a6
     6f0:	008e2803          	lw	a6,8(t3)
     6f4:	00000e93          	li	t4,0
     6f8:	00000793          	li	a5,0
     6fc:	00000693          	li	a3,0
     700:	41170fb3          	sub	t6,a4,a7
     704:	14e8c263          	blt	a7,a4,848 <extract_features_fixed+0x45c>
     708:	00f81513          	slli	a0,a6,0xf
     70c:	40e808b3          	sub	a7,a6,a4
     710:	17074a63          	blt	a4,a6,884 <extract_features_fixed+0x498>
     714:	01169693          	slli	a3,a3,0x11
     718:	00f7d793          	srli	a5,a5,0xf
     71c:	006c0733          	add	a4,s8,t1
     720:	00f687b3          	add	a5,a3,a5
     724:	00f72023          	sw	a5,0(a4)
     728:	00430313          	addi	t1,t1,4
     72c:	02000793          	li	a5,32
     730:	004e0e13          	addi	t3,t3,4
     734:	faf31ae3          	bne	t1,a5,6e8 <extract_features_fixed+0x2fc>
     738:	005a1693          	slli	a3,s4,0x5
     73c:	013c07b3          	add	a5,s8,s3
     740:	0007a603          	lw	a2,0(a5)
     744:	00060713          	mv	a4,a2
     748:	00c04463          	bgtz	a2,750 <extract_features_fixed+0x364>
     74c:	00100713          	li	a4,1
     750:	000105b7          	lui	a1,0x10
     754:	00000793          	li	a5,0
     758:	00b64663          	blt	a2,a1,764 <extract_features_fixed+0x378>
     75c:	01075713          	srli	a4,a4,0x10
     760:	01000793          	li	a5,16
     764:	0ff00613          	li	a2,255
     768:	00e67663          	bgeu	a2,a4,774 <extract_features_fixed+0x388>
     76c:	00875713          	srli	a4,a4,0x8
     770:	00878793          	addi	a5,a5,8
     774:	00f00613          	li	a2,15
     778:	00e67663          	bgeu	a2,a4,784 <extract_features_fixed+0x398>
     77c:	00475713          	srli	a4,a4,0x4
     780:	00478793          	addi	a5,a5,4
     784:	00300613          	li	a2,3
     788:	00e67663          	bgeu	a2,a4,794 <extract_features_fixed+0x3a8>
     78c:	00275713          	srli	a4,a4,0x2
     790:	00278793          	addi	a5,a5,2
     794:	fff70713          	addi	a4,a4,-1
     798:	00e03733          	snez	a4,a4
     79c:	00e787b3          	add	a5,a5,a4
     7a0:	00812703          	lw	a4,8(sp)
     7a4:	01368633          	add	a2,a3,s3
     7a8:	01079793          	slli	a5,a5,0x10
     7ac:	00c70633          	add	a2,a4,a2
     7b0:	03978733          	mul	a4,a5,s9
     7b4:	00498993          	addi	s3,s3,4
     7b8:	039797b3          	mulh	a5,a5,s9
     7bc:	01075713          	srli	a4,a4,0x10
     7c0:	01079793          	slli	a5,a5,0x10
     7c4:	00e78733          	add	a4,a5,a4
     7c8:	00e62023          	sw	a4,0(a2)
     7cc:	02000793          	li	a5,32
     7d0:	f6f996e3          	bne	s3,a5,73c <extract_features_fixed+0x350>
     7d4:	001a0a13          	addi	s4,s4,1
     7d8:	01012783          	lw	a5,16(sp)
     7dc:	08048493          	addi	s1,s1,128
     7e0:	caf494e3          	bne	s1,a5,488 <extract_features_fixed+0x9c>
     7e4:	00c00513          	li	a0,12
     7e8:	935ff0ef          	jal	11c <my_malloc>
     7ec:	00050413          	mv	s0,a0
     7f0:	1a050463          	beqz	a0,998 <extract_features_fixed+0x5ac>
     7f4:	00800793          	li	a5,8
     7f8:	01452223          	sw	s4,4(a0)
     7fc:	00f52423          	sw	a5,8(a0)
     800:	0c0a1263          	bnez	s4,8c4 <extract_features_fixed+0x4d8>
     804:	00052023          	sw	zero,0(a0)
     808:	57c12083          	lw	ra,1404(sp)
     80c:	00040513          	mv	a0,s0
     810:	57812403          	lw	s0,1400(sp)
     814:	57412483          	lw	s1,1396(sp)
     818:	57012903          	lw	s2,1392(sp)
     81c:	56c12983          	lw	s3,1388(sp)
     820:	56812a03          	lw	s4,1384(sp)
     824:	56412a83          	lw	s5,1380(sp)
     828:	56012b03          	lw	s6,1376(sp)
     82c:	55c12b83          	lw	s7,1372(sp)
     830:	55812c03          	lw	s8,1368(sp)
     834:	55412c83          	lw	s9,1364(sp)
     838:	55012d03          	lw	s10,1360(sp)
     83c:	54c12d83          	lw	s11,1356(sp)
     840:	58010113          	addi	sp,sp,1408
     844:	00008067          	ret
     848:	03fec533          	div	a0,t4,t6
     84c:	00289613          	slli	a2,a7,0x2
     850:	00cf0633          	add	a2,t5,a2
     854:	00062583          	lw	a1,0(a2)
     858:	00188893          	addi	a7,a7,1
     85c:	02b50633          	mul	a2,a0,a1
     860:	02b51533          	mulh	a0,a0,a1
     864:	00c78633          	add	a2,a5,a2
     868:	00f635b3          	sltu	a1,a2,a5
     86c:	00060793          	mv	a5,a2
     870:	00008637          	lui	a2,0x8
     874:	00ce8eb3          	add	t4,t4,a2
     878:	00a68533          	add	a0,a3,a0
     87c:	00a586b3          	add	a3,a1,a0
     880:	e85ff06f          	j	704 <extract_features_fixed+0x318>
     884:	ffff8637          	lui	a2,0xffff8
     888:	02c70633          	mul	a2,a4,a2
     88c:	00271593          	slli	a1,a4,0x2
     890:	00bf05b3          	add	a1,t5,a1
     894:	0005ae83          	lw	t4,0(a1) # 10000 <open_test_pcm+0x2200>
     898:	00170713          	addi	a4,a4,1
     89c:	00a60633          	add	a2,a2,a0
     8a0:	03164633          	div	a2,a2,a7
     8a4:	03d605b3          	mul	a1,a2,t4
     8a8:	03d61633          	mulh	a2,a2,t4
     8ac:	00b785b3          	add	a1,a5,a1
     8b0:	00f5beb3          	sltu	t4,a1,a5
     8b4:	00058793          	mv	a5,a1
     8b8:	00c68633          	add	a2,a3,a2
     8bc:	00ce86b3          	add	a3,t4,a2
     8c0:	e51ff06f          	j	710 <extract_features_fixed+0x324>
     8c4:	005a1613          	slli	a2,s4,0x5
     8c8:	00060513          	mv	a0,a2
     8cc:	00c12623          	sw	a2,12(sp)
     8d0:	84dff0ef          	jal	11c <my_malloc>
     8d4:	00a42023          	sw	a0,0(s0)
     8d8:	0c050063          	beqz	a0,998 <extract_features_fixed+0x5ac>
     8dc:	00c12603          	lw	a2,12(sp)
     8e0:	00812583          	lw	a1,8(sp)
     8e4:	778000ef          	jal	105c <memcpy>
     8e8:	02000513          	li	a0,32
     8ec:	831ff0ef          	jal	11c <my_malloc>
     8f0:	00050493          	mv	s1,a0
     8f4:	f0050ae3          	beqz	a0,808 <extract_features_fixed+0x41c>
     8f8:	02000613          	li	a2,32
     8fc:	00000593          	li	a1,0
     900:	780000ef          	jal	1080 <memset>
     904:	00042803          	lw	a6,0(s0)
     908:	00000613          	li	a2,0
     90c:	02048593          	addi	a1,s1,32
     910:	00561713          	slli	a4,a2,0x5
     914:	01070733          	add	a4,a4,a6
     918:	00048793          	mv	a5,s1
     91c:	0007a683          	lw	a3,0(a5)
     920:	00072503          	lw	a0,0(a4)
     924:	00478793          	addi	a5,a5,4
     928:	00470713          	addi	a4,a4,4
     92c:	00a686b3          	add	a3,a3,a0
     930:	fed7ae23          	sw	a3,-4(a5)
     934:	fef594e3          	bne	a1,a5,91c <extract_features_fixed+0x530>
     938:	00160693          	addi	a3,a2,1 # ffff8001 <_stack_point+0xcffd8001>
     93c:	00da0663          	beq	s4,a3,948 <extract_features_fixed+0x55c>
     940:	00068613          	mv	a2,a3
     944:	fcdff06f          	j	910 <extract_features_fixed+0x524>
     948:	00048793          	mv	a5,s1
     94c:	0007a703          	lw	a4,0(a5)
     950:	00478793          	addi	a5,a5,4
     954:	02d74733          	div	a4,a4,a3
     958:	fee7ae23          	sw	a4,-4(a5)
     95c:	fef598e3          	bne	a1,a5,94c <extract_features_fixed+0x560>
     960:	00000693          	li	a3,0
     964:	00569793          	slli	a5,a3,0x5
     968:	00f807b3          	add	a5,a6,a5
     96c:	00048713          	mv	a4,s1
     970:	0007a503          	lw	a0,0(a5)
     974:	00072883          	lw	a7,0(a4)
     978:	00470713          	addi	a4,a4,4
     97c:	00478793          	addi	a5,a5,4
     980:	41150533          	sub	a0,a0,a7
     984:	fea7ae23          	sw	a0,-4(a5)
     988:	fee594e3          	bne	a1,a4,970 <extract_features_fixed+0x584>
     98c:	e6d60ee3          	beq	a2,a3,808 <extract_features_fixed+0x41c>
     990:	00168693          	addi	a3,a3,1
     994:	fd1ff06f          	j	964 <extract_features_fixed+0x578>
     998:	00000413          	li	s0,0
     99c:	e6dff06f          	j	808 <extract_features_fixed+0x41c>

000009a0 <SPI_Get>:
     9a0:	20007737          	lui	a4,0x20007
     9a4:	001506b7          	lui	a3,0x150
     9a8:	00d72823          	sw	a3,16(a4) # 20007010 <_etext+0x1ffd9804>
     9ac:	01000793          	li	a5,16
     9b0:	00f72023          	sw	a5,0(a4)
     9b4:	10100793          	li	a5,257
     9b8:	00f72023          	sw	a5,0(a4)
     9bc:	00100693          	li	a3,1
     9c0:	00072783          	lw	a5,0(a4)
     9c4:	0ff7f793          	zext.b	a5,a5
     9c8:	fed79ce3          	bne	a5,a3,9c0 <SPI_Get+0x20>
     9cc:	200077b7          	lui	a5,0x20007
     9d0:	0207a503          	lw	a0,32(a5) # 20007020 <_etext+0x1ffd9814>
     9d4:	01051513          	slli	a0,a0,0x10
     9d8:	01055513          	srli	a0,a0,0x10
     9dc:	00008067          	ret

000009e0 <ADC_read>:
     9e0:	ff010113          	addi	sp,sp,-16
     9e4:	00812423          	sw	s0,8(sp)
     9e8:	00912223          	sw	s1,4(sp)
     9ec:	30000437          	lui	s0,0x30000
     9f0:	000084b7          	lui	s1,0x8
     9f4:	00040413          	mv	s0,s0
     9f8:	d0048493          	addi	s1,s1,-768 # 7d00 <close_test_pcm+0x4280>
     9fc:	01212023          	sw	s2,0(sp)
     a00:	00112623          	sw	ra,12(sp)
     a04:	009404b3          	add	s1,s0,s1
     a08:	ffffc937          	lui	s2,0xffffc
     a0c:	f95ff0ef          	jal	9a0 <SPI_Get>
     a10:	01250533          	add	a0,a0,s2
     a14:	00a41023          	sh	a0,0(s0) # 30000000 <adc_data>
     a18:	00240413          	addi	s0,s0,2
     a1c:	fe9418e3          	bne	s0,s1,a0c <ADC_read+0x2c>
     a20:	00c12083          	lw	ra,12(sp)
     a24:	00812403          	lw	s0,8(sp)
     a28:	00412483          	lw	s1,4(sp)
     a2c:	00012903          	lw	s2,0(sp)
     a30:	01010113          	addi	sp,sp,16
     a34:	00008067          	ret

00000a38 <adc_init>:
     a38:	fc010113          	addi	sp,sp,-64
     a3c:	01000613          	li	a2,16
     a40:	00c10513          	addi	a0,sp,12
     a44:	02112e23          	sw	ra,60(sp)
     a48:	00c12623          	sw	a2,12(sp)
     a4c:	065000ef          	jal	12b0 <qspi_init>
     a50:	01000613          	li	a2,16
     a54:	000045b7          	lui	a1,0x4
     a58:	00c10533          	add	a0,sp,a2
     a5c:	a7058593          	addi	a1,a1,-1424 # 3a70 <MEL_BIN_POINTS+0x2c>
     a60:	5fc000ef          	jal	105c <memcpy>
     a64:	01010513          	addi	a0,sp,16
     a68:	134000ef          	jal	b9c <gpio_config>
     a6c:	00006737          	lui	a4,0x6
     a70:	00870713          	addi	a4,a4,8 # 6008 <close_test_pcm+0x2588>
     a74:	00000793          	li	a5,0
     a78:	02010513          	addi	a0,sp,32
     a7c:	02e12023          	sw	a4,32(sp)
     a80:	02f12223          	sw	a5,36(sp)
     a84:	02012423          	sw	zero,40(sp)
     a88:	114000ef          	jal	b9c <gpio_config>
     a8c:	00100593          	li	a1,1
     a90:	00200513          	li	a0,2
     a94:	1f8000ef          	jal	c8c <gpio_set_level>
     a98:	00000593          	li	a1,0
     a9c:	00100513          	li	a0,1
     aa0:	1ec000ef          	jal	c8c <gpio_set_level>
     aa4:	03c12083          	lw	ra,60(sp)
     aa8:	04010113          	addi	sp,sp,64
     aac:	00008067          	ret

00000ab0 <delay_us>:
     ab0:	10002737          	lui	a4,0x10002
     ab4:	10000793          	li	a5,256
     ab8:	00f72023          	sw	a5,0(a4) # 10002000 <_etext+0xffd47f4>
     abc:	04800793          	li	a5,72
     ac0:	02f50533          	mul	a0,a0,a5
     ac4:	00870793          	addi	a5,a4,8
     ac8:	10100693          	li	a3,257
     acc:	fff50513          	addi	a0,a0,-1
     ad0:	00a7a023          	sw	a0,0(a5)
     ad4:	00d72023          	sw	a3,0(a4)
     ad8:	0007a703          	lw	a4,0(a5)
     adc:	fe071ee3          	bnez	a4,ad8 <delay_us+0x28>
     ae0:	00008067          	ret

00000ae4 <delay_ms>:
     ae4:	3e800793          	li	a5,1000
     ae8:	02f50533          	mul	a0,a0,a5
     aec:	fc5ff06f          	j	ab0 <delay_us>

00000af0 <delay_s>:
     af0:	3e800793          	li	a5,1000
     af4:	02f50533          	mul	a0,a0,a5
     af8:	fedff06f          	j	ae4 <delay_ms>

00000afc <sys_tick_init>:
     afc:	100037b7          	lui	a5,0x10003
     b00:	10000713          	li	a4,256
     b04:	00e7a023          	sw	a4,0(a5) # 10003000 <_etext+0xffd57f4>
     b08:	fff00693          	li	a3,-1
     b0c:	00d7a423          	sw	a3,8(a5)
     b10:	10100713          	li	a4,257
     b14:	00e7a023          	sw	a4,0(a5)
     b18:	00008067          	ret

00000b1c <get_sys_tick>:
     b1c:	100037b7          	lui	a5,0x10003
     b20:	0087a503          	lw	a0,8(a5) # 10003008 <_etext+0xffd57fc>
     b24:	fff54513          	not	a0,a0
     b28:	00008067          	ret

00000b2c <__lshrdi3>:
     b2c:	02060e63          	beqz	a2,b68 <__lshrdi3+0x3c>
     b30:	03f00793          	li	a5,63
     b34:	02c7cc63          	blt	a5,a2,b6c <__lshrdi3+0x40>
     b38:	01f00793          	li	a5,31
     b3c:	02c7c063          	blt	a5,a2,b5c <__lshrdi3+0x30>
     b40:	02000793          	li	a5,32
     b44:	40c787b3          	sub	a5,a5,a2
     b48:	00f597b3          	sll	a5,a1,a5
     b4c:	00c55533          	srl	a0,a0,a2
     b50:	00a7e533          	or	a0,a5,a0
     b54:	00c5d5b3          	srl	a1,a1,a2
     b58:	00008067          	ret
     b5c:	fe060613          	addi	a2,a2,-32
     b60:	00c5d533          	srl	a0,a1,a2
     b64:	00000593          	li	a1,0
     b68:	00008067          	ret
     b6c:	00000513          	li	a0,0
     b70:	ff5ff06f          	j	b64 <__lshrdi3+0x38>

00000b74 <__mulsi3>:
     b74:	00050793          	mv	a5,a0
     b78:	00000513          	li	a0,0
     b7c:	00079463          	bnez	a5,b84 <__mulsi3+0x10>
     b80:	00008067          	ret
     b84:	0017f713          	andi	a4,a5,1
     b88:	02b70733          	mul	a4,a4,a1
     b8c:	0017d793          	srli	a5,a5,0x1
     b90:	00159593          	slli	a1,a1,0x1
     b94:	00e50533          	add	a0,a0,a4
     b98:	fe5ff06f          	j	b7c <__mulsi3+0x8>

00000b9c <gpio_config>:
     b9c:	0a050e63          	beqz	a0,c58 <gpio_config+0xbc>
     ba0:	00052783          	lw	a5,0(a0)
     ba4:	00452803          	lw	a6,4(a0)
     ba8:	fd010113          	addi	sp,sp,-48
     bac:	02812423          	sw	s0,40(sp)
     bb0:	10000437          	lui	s0,0x10000
     bb4:	02912223          	sw	s1,36(sp)
     bb8:	03212023          	sw	s2,32(sp)
     bbc:	01312e23          	sw	s3,28(sp)
     bc0:	01412c23          	sw	s4,24(sp)
     bc4:	01512a23          	sw	s5,20(sp)
     bc8:	02112623          	sw	ra,44(sp)
     bcc:	00050493          	mv	s1,a0
     bd0:	00078a13          	mv	s4,a5
     bd4:	00080a93          	mv	s5,a6
     bd8:	00000613          	li	a2,0
     bdc:	00100993          	li	s3,1
     be0:	00440413          	addi	s0,s0,4 # 10000004 <_etext+0xffd27f8>
     be4:	04000913          	li	s2,64
     be8:	000a0513          	mv	a0,s4
     bec:	000a8593          	mv	a1,s5
     bf0:	00c12623          	sw	a2,12(sp)
     bf4:	f39ff0ef          	jal	b2c <__lshrdi3>
     bf8:	00157513          	andi	a0,a0,1
     bfc:	00c12603          	lw	a2,12(sp)
     c00:	00050e63          	beqz	a0,c1c <gpio_config+0x80>
     c04:	0084a703          	lw	a4,8(s1)
     c08:	00c997b3          	sll	a5,s3,a2
     c0c:	02071e63          	bnez	a4,c48 <gpio_config+0xac>
     c10:	00042703          	lw	a4,0(s0)
     c14:	00e7e7b3          	or	a5,a5,a4
     c18:	00f42023          	sw	a5,0(s0)
     c1c:	00160613          	addi	a2,a2,1
     c20:	fd2614e3          	bne	a2,s2,be8 <gpio_config+0x4c>
     c24:	02c12083          	lw	ra,44(sp)
     c28:	02812403          	lw	s0,40(sp)
     c2c:	02412483          	lw	s1,36(sp)
     c30:	02012903          	lw	s2,32(sp)
     c34:	01c12983          	lw	s3,28(sp)
     c38:	01812a03          	lw	s4,24(sp)
     c3c:	01412a83          	lw	s5,20(sp)
     c40:	03010113          	addi	sp,sp,48
     c44:	00008067          	ret
     c48:	00042703          	lw	a4,0(s0)
     c4c:	fff7c793          	not	a5,a5
     c50:	00e7f7b3          	and	a5,a5,a4
     c54:	fc5ff06f          	j	c18 <gpio_config+0x7c>
     c58:	00008067          	ret

00000c5c <gpio_set_direction>:
     c5c:	00100793          	li	a5,1
     c60:	00a79533          	sll	a0,a5,a0
     c64:	100007b7          	lui	a5,0x10000
     c68:	0047a703          	lw	a4,4(a5) # 10000004 <_etext+0xffd27f8>
     c6c:	00478793          	addi	a5,a5,4
     c70:	00059863          	bnez	a1,c80 <gpio_set_direction+0x24>
     c74:	00e56533          	or	a0,a0,a4
     c78:	00a7a023          	sw	a0,0(a5)
     c7c:	00008067          	ret
     c80:	fff54513          	not	a0,a0
     c84:	00e57533          	and	a0,a0,a4
     c88:	ff1ff06f          	j	c78 <gpio_set_direction+0x1c>

00000c8c <gpio_set_level>:
     c8c:	00100713          	li	a4,1
     c90:	00a71533          	sll	a0,a4,a0
     c94:	100007b7          	lui	a5,0x10000
     c98:	00e59a63          	bne	a1,a4,cac <gpio_set_level+0x20>
     c9c:	0007a703          	lw	a4,0(a5) # 10000000 <_etext+0xffd27f4>
     ca0:	00a76733          	or	a4,a4,a0
     ca4:	00e7a023          	sw	a4,0(a5)
     ca8:	00008067          	ret
     cac:	0007a703          	lw	a4,0(a5)
     cb0:	fff54513          	not	a0,a0
     cb4:	00e57533          	and	a0,a0,a4
     cb8:	00a7a023          	sw	a0,0(a5)
     cbc:	00008067          	ret

00000cc0 <gpio_get_level>:
     cc0:	100007b7          	lui	a5,0x10000
     cc4:	0007a783          	lw	a5,0(a5) # 10000000 <_etext+0xffd27f4>
     cc8:	00a7d533          	srl	a0,a5,a0
     ccc:	00157513          	andi	a0,a0,1
     cd0:	00008067          	ret

00000cd4 <gpio_set_function>:
     cd4:	00008067          	ret

00000cd8 <puts_helper>:
     cd8:	ff010113          	addi	sp,sp,-16
     cdc:	00812423          	sw	s0,8(sp)
     ce0:	00912223          	sw	s1,4(sp)
     ce4:	00112623          	sw	ra,12(sp)
     ce8:	00050493          	mv	s1,a0
     cec:	00000413          	li	s0,0
     cf0:	008487b3          	add	a5,s1,s0
     cf4:	0007c503          	lbu	a0,0(a5)
     cf8:	00051e63          	bnez	a0,d14 <puts_helper+0x3c>
     cfc:	00c12083          	lw	ra,12(sp)
     d00:	00040513          	mv	a0,s0
     d04:	00812403          	lw	s0,8(sp)
     d08:	00412483          	lw	s1,4(sp)
     d0c:	01010113          	addi	sp,sp,16
     d10:	00008067          	ret
     d14:	570000ef          	jal	1284 <sys_putchar>
     d18:	00140413          	addi	s0,s0,1
     d1c:	fd5ff06f          	j	cf0 <puts_helper+0x18>

00000d20 <itoa_hex.isra.0>:
     d20:	fe010113          	addi	sp,sp,-32
     d24:	04060863          	beqz	a2,d74 <itoa_hex.isra.0+0x54>
     d28:	0002d7b7          	lui	a5,0x2d
     d2c:	6d878793          	addi	a5,a5,1752 # 2d6d8 <open_pcm+0xae98>
     d30:	00c10813          	addi	a6,sp,12
     d34:	04051663          	bnez	a0,d80 <itoa_hex.isra.0+0x60>
     d38:	03000793          	li	a5,48
     d3c:	00f10623          	sb	a5,12(sp)
     d40:	00100713          	li	a4,1
     d44:	00058693          	mv	a3,a1
     d48:	00070793          	mv	a5,a4
     d4c:	fff78793          	addi	a5,a5,-1
     d50:	00f80633          	add	a2,a6,a5
     d54:	00064603          	lbu	a2,0(a2)
     d58:	00168693          	addi	a3,a3,1 # 150001 <_etext+0x1227f5>
     d5c:	fec68fa3          	sb	a2,-1(a3)
     d60:	fe0796e3          	bnez	a5,d4c <itoa_hex.isra.0+0x2c>
     d64:	00e585b3          	add	a1,a1,a4
     d68:	00058023          	sb	zero,0(a1)
     d6c:	02010113          	addi	sp,sp,32
     d70:	00008067          	ret
     d74:	0002d7b7          	lui	a5,0x2d
     d78:	6ec78793          	addi	a5,a5,1772 # 2d6ec <open_pcm+0xaeac>
     d7c:	fb5ff06f          	j	d30 <itoa_hex.isra.0+0x10>
     d80:	00080693          	mv	a3,a6
     d84:	00000713          	li	a4,0
     d88:	00f57613          	andi	a2,a0,15
     d8c:	00c78633          	add	a2,a5,a2
     d90:	00064603          	lbu	a2,0(a2)
     d94:	00455513          	srli	a0,a0,0x4
     d98:	00170713          	addi	a4,a4,1
     d9c:	00c68023          	sb	a2,0(a3)
     da0:	00168693          	addi	a3,a3,1
     da4:	fe0512e3          	bnez	a0,d88 <itoa_hex.isra.0+0x68>
     da8:	f9dff06f          	j	d44 <itoa_hex.isra.0+0x24>

00000dac <itoa_decimal.isra.0>:
     dac:	ff010113          	addi	sp,sp,-16
     db0:	00410813          	addi	a6,sp,4
     db4:	04055263          	bgez	a0,df8 <itoa_decimal.isra.0+0x4c>
     db8:	40a00533          	neg	a0,a0
     dbc:	00100793          	li	a5,1
     dc0:	00080693          	mv	a3,a6
     dc4:	00000713          	li	a4,0
     dc8:	00a00893          	li	a7,10
     dcc:	03156633          	rem	a2,a0,a7
     dd0:	00170713          	addi	a4,a4,1
     dd4:	00168693          	addi	a3,a3,1
     dd8:	03154533          	div	a0,a0,a7
     ddc:	03060613          	addi	a2,a2,48
     de0:	fec68fa3          	sb	a2,-1(a3)
     de4:	fe0514e3          	bnez	a0,dcc <itoa_decimal.isra.0+0x20>
     de8:	02078663          	beqz	a5,e14 <itoa_decimal.isra.0+0x68>
     dec:	02d00693          	li	a3,45
     df0:	00d58023          	sb	a3,0(a1)
     df4:	0200006f          	j	e14 <itoa_decimal.isra.0+0x68>
     df8:	00050663          	beqz	a0,e04 <itoa_decimal.isra.0+0x58>
     dfc:	00000793          	li	a5,0
     e00:	fc1ff06f          	j	dc0 <itoa_decimal.isra.0+0x14>
     e04:	03000793          	li	a5,48
     e08:	00f10223          	sb	a5,4(sp)
     e0c:	00100713          	li	a4,1
     e10:	00000793          	li	a5,0
     e14:	00f58633          	add	a2,a1,a5
     e18:	00070693          	mv	a3,a4
     e1c:	fff68693          	addi	a3,a3,-1
     e20:	00d80533          	add	a0,a6,a3
     e24:	00054503          	lbu	a0,0(a0)
     e28:	00160613          	addi	a2,a2,1
     e2c:	fea60fa3          	sb	a0,-1(a2)
     e30:	fe0696e3          	bnez	a3,e1c <itoa_decimal.isra.0+0x70>
     e34:	00e585b3          	add	a1,a1,a4
     e38:	00f585b3          	add	a1,a1,a5
     e3c:	00058023          	sb	zero,0(a1)
     e40:	01010113          	addi	sp,sp,16
     e44:	00008067          	ret

00000e48 <vprintf>:
     e48:	fb010113          	addi	sp,sp,-80
     e4c:	04812423          	sw	s0,72(sp)
     e50:	04912223          	sw	s1,68(sp)
     e54:	03312e23          	sw	s3,60(sp)
     e58:	03412c23          	sw	s4,56(sp)
     e5c:	03512a23          	sw	s5,52(sp)
     e60:	03612823          	sw	s6,48(sp)
     e64:	03712623          	sw	s7,44(sp)
     e68:	04112623          	sw	ra,76(sp)
     e6c:	05212023          	sw	s2,64(sp)
     e70:	00050b93          	mv	s7,a0
     e74:	00058413          	mv	s0,a1
     e78:	00000493          	li	s1,0
     e7c:	02500993          	li	s3,37
     e80:	07800a13          	li	s4,120
     e84:	06200a93          	li	s5,98
     e88:	01500b13          	li	s6,21
     e8c:	000bc503          	lbu	a0,0(s7)
     e90:	02051a63          	bnez	a0,ec4 <vprintf+0x7c>
     e94:	04c12083          	lw	ra,76(sp)
     e98:	04812403          	lw	s0,72(sp)
     e9c:	04012903          	lw	s2,64(sp)
     ea0:	03c12983          	lw	s3,60(sp)
     ea4:	03812a03          	lw	s4,56(sp)
     ea8:	03412a83          	lw	s5,52(sp)
     eac:	03012b03          	lw	s6,48(sp)
     eb0:	02c12b83          	lw	s7,44(sp)
     eb4:	00048513          	mv	a0,s1
     eb8:	04412483          	lw	s1,68(sp)
     ebc:	05010113          	addi	sp,sp,80
     ec0:	00008067          	ret
     ec4:	15351663          	bne	a0,s3,1010 <vprintf+0x1c8>
     ec8:	001bc783          	lbu	a5,1(s7)
     ecc:	14078263          	beqz	a5,1010 <vprintf+0x1c8>
     ed0:	001b8913          	addi	s2,s7,1
     ed4:	00fa6c63          	bltu	s4,a5,eec <vprintf+0xa4>
     ed8:	02fae663          	bltu	s5,a5,f04 <vprintf+0xbc>
     edc:	0f378063          	beq	a5,s3,fbc <vprintf+0x174>
     ee0:	05800713          	li	a4,88
     ee4:	00100613          	li	a2,1
     ee8:	08e78e63          	beq	a5,a4,f84 <vprintf+0x13c>
     eec:	02500513          	li	a0,37
     ef0:	394000ef          	jal	1284 <sys_putchar>
     ef4:	00094503          	lbu	a0,0(s2) # ffffc000 <_stack_point+0xcffdc000>
     ef8:	00248493          	addi	s1,s1,2
     efc:	388000ef          	jal	1284 <sys_putchar>
     f00:	05c0006f          	j	f5c <vprintf+0x114>
     f04:	f9d78793          	addi	a5,a5,-99
     f08:	0ff7f793          	zext.b	a5,a5
     f0c:	fefb60e3          	bltu	s6,a5,eec <vprintf+0xa4>
     f10:	0002d737          	lui	a4,0x2d
     f14:	00279793          	slli	a5,a5,0x2
     f18:	42c70713          	addi	a4,a4,1068 # 2d42c <open_pcm+0xabec>
     f1c:	00e787b3          	add	a5,a5,a4
     f20:	0007a783          	lw	a5,0(a5)
     f24:	00078067          	jr	a5
     f28:	00044503          	lbu	a0,0(s0)
     f2c:	00148493          	addi	s1,s1,1
     f30:	354000ef          	jal	1284 <sys_putchar>
     f34:	00440413          	addi	s0,s0,4
     f38:	0240006f          	j	f5c <vprintf+0x114>
     f3c:	00042503          	lw	a0,0(s0)
     f40:	00440b93          	addi	s7,s0,4
     f44:	00051663          	bnez	a0,f50 <vprintf+0x108>
     f48:	0002d537          	lui	a0,0x2d
     f4c:	70050513          	addi	a0,a0,1792 # 2d700 <open_pcm+0xaec0>
     f50:	d89ff0ef          	jal	cd8 <puts_helper>
     f54:	00a484b3          	add	s1,s1,a0
     f58:	000b8413          	mv	s0,s7
     f5c:	00190b93          	addi	s7,s2,1
     f60:	f2dff06f          	j	e8c <vprintf+0x44>
     f64:	00042503          	lw	a0,0(s0)
     f68:	00010593          	mv	a1,sp
     f6c:	e41ff0ef          	jal	dac <itoa_decimal.isra.0>
     f70:	00010513          	mv	a0,sp
     f74:	d65ff0ef          	jal	cd8 <puts_helper>
     f78:	00a484b3          	add	s1,s1,a0
     f7c:	fb9ff06f          	j	f34 <vprintf+0xec>
     f80:	00000613          	li	a2,0
     f84:	00042503          	lw	a0,0(s0)
     f88:	00010593          	mv	a1,sp
     f8c:	d95ff0ef          	jal	d20 <itoa_hex.isra.0>
     f90:	fe1ff06f          	j	f70 <vprintf+0x128>
     f94:	03000513          	li	a0,48
     f98:	00042b83          	lw	s7,0(s0)
     f9c:	2e8000ef          	jal	1284 <sys_putchar>
     fa0:	07800513          	li	a0,120
     fa4:	2e0000ef          	jal	1284 <sys_putchar>
     fa8:	00248493          	addi	s1,s1,2
     fac:	00000613          	li	a2,0
     fb0:	00010593          	mv	a1,sp
     fb4:	000b8513          	mv	a0,s7
     fb8:	fd5ff06f          	j	f8c <vprintf+0x144>
     fbc:	00098513          	mv	a0,s3
     fc0:	2c4000ef          	jal	1284 <sys_putchar>
     fc4:	00148493          	addi	s1,s1,1
     fc8:	f95ff06f          	j	f5c <vprintf+0x114>
     fcc:	002bc703          	lbu	a4,2(s7)
     fd0:	06c00793          	li	a5,108
     fd4:	002b8913          	addi	s2,s7,2
     fd8:	f0f71ae3          	bne	a4,a5,eec <vprintf+0xa4>
     fdc:	003bc703          	lbu	a4,3(s7)
     fe0:	07800793          	li	a5,120
     fe4:	003b8913          	addi	s2,s7,3
     fe8:	f0f712e3          	bne	a4,a5,eec <vprintf+0xa4>
     fec:	00042503          	lw	a0,0(s0)
     ff0:	00000613          	li	a2,0
     ff4:	00010593          	mv	a1,sp
     ff8:	d29ff0ef          	jal	d20 <itoa_hex.isra.0>
     ffc:	00010513          	mv	a0,sp
    1000:	cd9ff0ef          	jal	cd8 <puts_helper>
    1004:	00a484b3          	add	s1,s1,a0
    1008:	00440413          	addi	s0,s0,4
    100c:	ee1ff06f          	j	eec <vprintf+0xa4>
    1010:	274000ef          	jal	1284 <sys_putchar>
    1014:	00148493          	addi	s1,s1,1
    1018:	000b8913          	mv	s2,s7
    101c:	f41ff06f          	j	f5c <vprintf+0x114>

00001020 <printf>:
    1020:	fc010113          	addi	sp,sp,-64
    1024:	02b12223          	sw	a1,36(sp)
    1028:	02410593          	addi	a1,sp,36
    102c:	00112e23          	sw	ra,28(sp)
    1030:	02c12423          	sw	a2,40(sp)
    1034:	02d12623          	sw	a3,44(sp)
    1038:	02e12823          	sw	a4,48(sp)
    103c:	02f12a23          	sw	a5,52(sp)
    1040:	03012c23          	sw	a6,56(sp)
    1044:	03112e23          	sw	a7,60(sp)
    1048:	00b12623          	sw	a1,12(sp)
    104c:	dfdff0ef          	jal	e48 <vprintf>
    1050:	01c12083          	lw	ra,28(sp)
    1054:	04010113          	addi	sp,sp,64
    1058:	00008067          	ret

0000105c <memcpy>:
    105c:	00000793          	li	a5,0
    1060:	00f61463          	bne	a2,a5,1068 <memcpy+0xc>
    1064:	00008067          	ret
    1068:	00f58733          	add	a4,a1,a5
    106c:	00074683          	lbu	a3,0(a4)
    1070:	00f50733          	add	a4,a0,a5
    1074:	00178793          	addi	a5,a5,1
    1078:	00d70023          	sb	a3,0(a4)
    107c:	fe5ff06f          	j	1060 <memcpy+0x4>

00001080 <memset>:
    1080:	00c50633          	add	a2,a0,a2
    1084:	00050793          	mv	a5,a0
    1088:	00c79463          	bne	a5,a2,1090 <memset+0x10>
    108c:	00008067          	ret
    1090:	00178793          	addi	a5,a5,1
    1094:	feb78fa3          	sb	a1,-1(a5)
    1098:	ff1ff06f          	j	1088 <memset+0x8>

0000109c <strlen>:
    109c:	00000793          	li	a5,0
    10a0:	00f50733          	add	a4,a0,a5
    10a4:	00074703          	lbu	a4,0(a4)
    10a8:	00071663          	bnez	a4,10b4 <strlen+0x18>
    10ac:	00078513          	mv	a0,a5
    10b0:	00008067          	ret
    10b4:	00178793          	addi	a5,a5,1
    10b8:	fe9ff06f          	j	10a0 <strlen+0x4>

000010bc <pwm_init>:
    10bc:	00052703          	lw	a4,0(a0)
    10c0:	200047b7          	lui	a5,0x20004
    10c4:	00e7a223          	sw	a4,4(a5) # 20004004 <_etext+0x1ffd67f8>
    10c8:	00452703          	lw	a4,4(a0)
    10cc:	00e7a623          	sw	a4,12(a5)
    10d0:	00300713          	li	a4,3
    10d4:	00e7a023          	sw	a4,0(a5)
    10d8:	00008067          	ret

000010dc <pwm_set_compare>:
    10dc:	00200793          	li	a5,2
    10e0:	02f50863          	beq	a0,a5,1110 <pwm_set_compare+0x34>
    10e4:	00a7ea63          	bltu	a5,a0,10f8 <pwm_set_compare+0x1c>
    10e8:	00051e63          	bnez	a0,1104 <pwm_set_compare+0x28>
    10ec:	200047b7          	lui	a5,0x20004
    10f0:	00b7a823          	sw	a1,16(a5) # 20004010 <_etext+0x1ffd6804>
    10f4:	00008067          	ret
    10f8:	00300793          	li	a5,3
    10fc:	02f50063          	beq	a0,a5,111c <pwm_set_compare+0x40>
    1100:	00008067          	ret
    1104:	200047b7          	lui	a5,0x20004
    1108:	00b7aa23          	sw	a1,20(a5) # 20004014 <_etext+0x1ffd6808>
    110c:	00008067          	ret
    1110:	200047b7          	lui	a5,0x20004
    1114:	00b7ac23          	sw	a1,24(a5) # 20004018 <_etext+0x1ffd680c>
    1118:	00008067          	ret
    111c:	200047b7          	lui	a5,0x20004
    1120:	00b7ae23          	sw	a1,28(a5) # 2000401c <_etext+0x1ffd6810>
    1124:	00008067          	ret

00001128 <hp_uart_init>:
    1128:	044aa7b7          	lui	a5,0x44aa
    112c:	20078793          	addi	a5,a5,512 # 44aa200 <_etext+0x447c9f4>
    1130:	02a7d7b3          	divu	a5,a5,a0
    1134:	20003737          	lui	a4,0x20003
    1138:	00072023          	sw	zero,0(a4) # 20003000 <_etext+0x1ffd57f4>
    113c:	00f00693          	li	a3,15
    1140:	fff78793          	addi	a5,a5,-1
    1144:	00f72223          	sw	a5,4(a4)
    1148:	00d72623          	sw	a3,12(a4)
    114c:	00c00693          	li	a3,12
    1150:	00d72623          	sw	a3,12(a4)
    1154:	01f00793          	li	a5,31
    1158:	00f72023          	sw	a5,0(a4)
    115c:	00008067          	ret

00001160 <hp_uart_config>:
    1160:	00052703          	lw	a4,0(a0)
    1164:	044aa7b7          	lui	a5,0x44aa
    1168:	20078793          	addi	a5,a5,512 # 44aa200 <_etext+0x447c9f4>
    116c:	02e7d7b3          	divu	a5,a5,a4
    1170:	200036b7          	lui	a3,0x20003
    1174:	0006a023          	sw	zero,0(a3) # 20003000 <_etext+0x1ffd57f4>
    1178:	00f00713          	li	a4,15
    117c:	fff78793          	addi	a5,a5,-1
    1180:	00f6a223          	sw	a5,4(a3)
    1184:	00e6a623          	sw	a4,12(a3)
    1188:	00c00713          	li	a4,12
    118c:	00e6a623          	sw	a4,12(a3)
    1190:	00654783          	lbu	a5,6(a0)
    1194:	00554703          	lbu	a4,5(a0)
    1198:	ffb78793          	addi	a5,a5,-5
    119c:	00171713          	slli	a4,a4,0x1
    11a0:	00e7e7b3          	or	a5,a5,a4
    11a4:	00454703          	lbu	a4,4(a0)
    11a8:	00271713          	slli	a4,a4,0x2
    11ac:	00e7e7b3          	or	a5,a5,a4
    11b0:	00f6a023          	sw	a5,0(a3)
    11b4:	00008067          	ret

000011b8 <hp_uart_send>:
    11b8:	20003737          	lui	a4,0x20003
    11bc:	01070713          	addi	a4,a4,16 # 20003010 <_etext+0x1ffd5804>
    11c0:	00072783          	lw	a5,0(a4)
    11c4:	1007f793          	andi	a5,a5,256
    11c8:	fe079ce3          	bnez	a5,11c0 <hp_uart_send+0x8>
    11cc:	200037b7          	lui	a5,0x20003
    11d0:	00a7a423          	sw	a0,8(a5) # 20003008 <_etext+0x1ffd57fc>
    11d4:	00008067          	ret

000011d8 <hp_uart_send_str>:
    11d8:	ff010113          	addi	sp,sp,-16
    11dc:	00812423          	sw	s0,8(sp)
    11e0:	00112623          	sw	ra,12(sp)
    11e4:	00050413          	mv	s0,a0
    11e8:	00044503          	lbu	a0,0(s0)
    11ec:	00051a63          	bnez	a0,1200 <hp_uart_send_str+0x28>
    11f0:	00c12083          	lw	ra,12(sp)
    11f4:	00812403          	lw	s0,8(sp)
    11f8:	01010113          	addi	sp,sp,16
    11fc:	00008067          	ret
    1200:	00140413          	addi	s0,s0,1
    1204:	fb5ff0ef          	jal	11b8 <hp_uart_send>
    1208:	fe1ff06f          	j	11e8 <hp_uart_send_str+0x10>

0000120c <hp_uart_recv>:
    120c:	20003737          	lui	a4,0x20003
    1210:	01070713          	addi	a4,a4,16 # 20003010 <_etext+0x1ffd5804>
    1214:	00072783          	lw	a5,0(a4)
    1218:	0807f793          	andi	a5,a5,128
    121c:	fe079ce3          	bnez	a5,1214 <hp_uart_recv+0x8>
    1220:	200037b7          	lui	a5,0x20003
    1224:	0087a783          	lw	a5,8(a5) # 20003008 <_etext+0x1ffd57fc>
    1228:	00f50023          	sb	a5,0(a0)
    122c:	00008067          	ret

00001230 <hp_uart_recv_str>:
    1230:	ff010113          	addi	sp,sp,-16
    1234:	00812423          	sw	s0,8(sp)
    1238:	00912223          	sw	s1,4(sp)
    123c:	00112623          	sw	ra,12(sp)
    1240:	00050413          	mv	s0,a0
    1244:	00a00493          	li	s1,10
    1248:	00040513          	mv	a0,s0
    124c:	fc1ff0ef          	jal	120c <hp_uart_recv>
    1250:	00044783          	lbu	a5,0(s0)
    1254:	00140413          	addi	s0,s0,1
    1258:	fe9798e3          	bne	a5,s1,1248 <hp_uart_recv_str+0x18>
    125c:	00040023          	sb	zero,0(s0)
    1260:	00c12083          	lw	ra,12(sp)
    1264:	00812403          	lw	s0,8(sp)
    1268:	00412483          	lw	s1,4(sp)
    126c:	01010113          	addi	sp,sp,16
    1270:	00008067          	ret

00001274 <sys_uart_init>:
    1274:	100017b7          	lui	a5,0x10001
    1278:	27100713          	li	a4,625
    127c:	00e7a023          	sw	a4,0(a5) # 10001000 <_etext+0xffd37f4>
    1280:	00008067          	ret

00001284 <sys_putchar>:
    1284:	100017b7          	lui	a5,0x10001
    1288:	00a7a223          	sw	a0,4(a5) # 10001004 <_etext+0xffd37f8>
    128c:	00008067          	ret

00001290 <sys_putstr>:
    1290:	100017b7          	lui	a5,0x10001
    1294:	00478793          	addi	a5,a5,4 # 10001004 <_etext+0xffd37f8>
    1298:	00054703          	lbu	a4,0(a0)
    129c:	00071463          	bnez	a4,12a4 <sys_putstr+0x14>
    12a0:	00008067          	ret
    12a4:	00150513          	addi	a0,a0,1
    12a8:	00e7a023          	sw	a4,0(a5)
    12ac:	fedff06f          	j	1298 <sys_putstr+0x8>

000012b0 <qspi_init>:
    12b0:	ff010113          	addi	sp,sp,-16
    12b4:	00112623          	sw	ra,12(sp)
    12b8:	01212023          	sw	s2,0(sp)
    12bc:	00812423          	sw	s0,8(sp)
    12c0:	00912223          	sw	s1,4(sp)
    12c4:	200077b7          	lui	a5,0x20007
    12c8:	01000713          	li	a4,16
    12cc:	00e7a023          	sw	a4,0(a5) # 20007000 <_etext+0x1ffd97f4>
    12d0:	0007a023          	sw	zero,0(a5)
    12d4:	0207a223          	sw	zero,36(a5)
    12d8:	0007aa23          	sw	zero,20(a5)
    12dc:	00052703          	lw	a4,0(a0)
    12e0:	0002d537          	lui	a0,0x2d
    12e4:	70850513          	addi	a0,a0,1800 # 2d708 <open_pcm+0xaec8>
    12e8:	00e7a223          	sw	a4,4(a5)
    12ec:	0007a583          	lw	a1,0(a5)
    12f0:	00078913          	mv	s2,a5
    12f4:	d2dff0ef          	jal	1020 <printf>
    12f8:	02492583          	lw	a1,36(s2)
    12fc:	0002d537          	lui	a0,0x2d
    1300:	71c50513          	addi	a0,a0,1820 # 2d71c <open_pcm+0xaedc>
    1304:	d1dff0ef          	jal	1020 <printf>
    1308:	01492583          	lw	a1,20(s2)
    130c:	0002d537          	lui	a0,0x2d
    1310:	73050513          	addi	a0,a0,1840 # 2d730 <open_pcm+0xaef0>
    1314:	d0dff0ef          	jal	1020 <printf>
    1318:	00812403          	lw	s0,8(sp)
    131c:	00492583          	lw	a1,4(s2)
    1320:	00c12083          	lw	ra,12(sp)
    1324:	00412483          	lw	s1,4(sp)
    1328:	00012903          	lw	s2,0(sp)
    132c:	0002d537          	lui	a0,0x2d
    1330:	74050513          	addi	a0,a0,1856 # 2d740 <open_pcm+0xaf00>
    1334:	01010113          	addi	sp,sp,16
    1338:	ce9ff06f          	j	1020 <printf>

0000133c <qspi_write_8>:
    133c:	20007737          	lui	a4,0x20007
    1340:	000806b7          	lui	a3,0x80
    1344:	00d72823          	sw	a3,16(a4) # 20007010 <_etext+0x1ffd9804>
    1348:	01851513          	slli	a0,a0,0x18
    134c:	00a72c23          	sw	a0,24(a4)
    1350:	10200793          	li	a5,258
    1354:	00f72023          	sw	a5,0(a4)
    1358:	00100693          	li	a3,1
    135c:	00072783          	lw	a5,0(a4)
    1360:	01079793          	slli	a5,a5,0x10
    1364:	0107d793          	srli	a5,a5,0x10
    1368:	fed79ae3          	bne	a5,a3,135c <qspi_write_8+0x20>
    136c:	00008067          	ret

00001370 <qspi_write_8_cs>:
    1370:	200077b7          	lui	a5,0x20007
    1374:	000806b7          	lui	a3,0x80
    1378:	00d7a823          	sw	a3,16(a5) # 20007010 <_etext+0x1ffd9804>
    137c:	01851513          	slli	a0,a0,0x18
    1380:	00a7ac23          	sw	a0,24(a5)
    1384:	0025e593          	ori	a1,a1,2
    1388:	00b7a023          	sw	a1,0(a5)
    138c:	00100713          	li	a4,1
    1390:	0007a683          	lw	a3,0(a5)
    1394:	fee69ee3          	bne	a3,a4,1390 <qspi_write_8_cs+0x20>
    1398:	00008067          	ret

0000139c <qspi_write_16>:
    139c:	200077b7          	lui	a5,0x20007
    13a0:	001006b7          	lui	a3,0x100
    13a4:	00d7a823          	sw	a3,16(a5) # 20007010 <_etext+0x1ffd9804>
    13a8:	01051513          	slli	a0,a0,0x10
    13ac:	10200713          	li	a4,258
    13b0:	00a7ac23          	sw	a0,24(a5)
    13b4:	00e7a023          	sw	a4,0(a5)
    13b8:	00100713          	li	a4,1
    13bc:	0007a683          	lw	a3,0(a5)
    13c0:	fee69ee3          	bne	a3,a4,13bc <qspi_write_16+0x20>
    13c4:	00008067          	ret

000013c8 <qspi_write_16_cs>:
    13c8:	200077b7          	lui	a5,0x20007
    13cc:	001006b7          	lui	a3,0x100
    13d0:	00d7a823          	sw	a3,16(a5) # 20007010 <_etext+0x1ffd9804>
    13d4:	01051513          	slli	a0,a0,0x10
    13d8:	00a7ac23          	sw	a0,24(a5)
    13dc:	0025e593          	ori	a1,a1,2
    13e0:	00b7a023          	sw	a1,0(a5)
    13e4:	00100713          	li	a4,1
    13e8:	0007a683          	lw	a3,0(a5)
    13ec:	fee69ee3          	bne	a3,a4,13e8 <qspi_write_16_cs+0x20>
    13f0:	00008067          	ret

000013f4 <qspi_write_32>:
    13f4:	200077b7          	lui	a5,0x20007
    13f8:	002006b7          	lui	a3,0x200
    13fc:	00d7a823          	sw	a3,16(a5) # 20007010 <_etext+0x1ffd9804>
    1400:	10200713          	li	a4,258
    1404:	00a7ac23          	sw	a0,24(a5)
    1408:	00e7a023          	sw	a4,0(a5)
    140c:	00100713          	li	a4,1
    1410:	0007a683          	lw	a3,0(a5)
    1414:	fee69ee3          	bne	a3,a4,1410 <qspi_write_32+0x1c>
    1418:	00008067          	ret

0000141c <qspi_write_32_cs>:
    141c:	200077b7          	lui	a5,0x20007
    1420:	002006b7          	lui	a3,0x200
    1424:	00d7a823          	sw	a3,16(a5) # 20007010 <_etext+0x1ffd9804>
    1428:	00a7ac23          	sw	a0,24(a5)
    142c:	0025e593          	ori	a1,a1,2
    1430:	00b7a023          	sw	a1,0(a5)
    1434:	00100713          	li	a4,1
    1438:	0007a683          	lw	a3,0(a5)
    143c:	fee69ee3          	bne	a3,a4,1438 <qspi_write_32_cs+0x1c>
    1440:	00008067          	ret

00001444 <qspi_write_32x2>:
    1444:	20007737          	lui	a4,0x20007
    1448:	004006b7          	lui	a3,0x400
    144c:	00d72823          	sw	a3,16(a4) # 20007010 <_etext+0x1ffd9804>
    1450:	00a72c23          	sw	a0,24(a4)
    1454:	10200793          	li	a5,258
    1458:	00b72c23          	sw	a1,24(a4)
    145c:	00f72023          	sw	a5,0(a4)
    1460:	00100793          	li	a5,1
    1464:	00072683          	lw	a3,0(a4)
    1468:	fef69ee3          	bne	a3,a5,1464 <qspi_write_32x2+0x20>
    146c:	00008067          	ret

00001470 <qspi_write_32x8>:
    1470:	20007e37          	lui	t3,0x20007
    1474:	01000eb7          	lui	t4,0x1000
    1478:	01de2823          	sw	t4,16(t3) # 20007010 <_etext+0x1ffd9804>
    147c:	00ae2c23          	sw	a0,24(t3)
    1480:	00be2c23          	sw	a1,24(t3)
    1484:	00ce2c23          	sw	a2,24(t3)
    1488:	00de2c23          	sw	a3,24(t3)
    148c:	00ee2c23          	sw	a4,24(t3)
    1490:	00fe2c23          	sw	a5,24(t3)
    1494:	010e2c23          	sw	a6,24(t3)
    1498:	10200793          	li	a5,258
    149c:	011e2c23          	sw	a7,24(t3)
    14a0:	00fe2023          	sw	a5,0(t3)
    14a4:	00100793          	li	a5,1
    14a8:	000e2703          	lw	a4,0(t3)
    14ac:	fef71ee3          	bne	a4,a5,14a8 <qspi_write_32x8+0x38>
    14b0:	00008067          	ret

000014b4 <qspi_write_32x8_cs>:
    14b4:	20007e37          	lui	t3,0x20007
    14b8:	01000eb7          	lui	t4,0x1000
    14bc:	01de2823          	sw	t4,16(t3) # 20007010 <_etext+0x1ffd9804>
    14c0:	00ae2c23          	sw	a0,24(t3)
    14c4:	00be2c23          	sw	a1,24(t3)
    14c8:	00ce2c23          	sw	a2,24(t3)
    14cc:	00de2c23          	sw	a3,24(t3)
    14d0:	00ee2c23          	sw	a4,24(t3)
    14d4:	00fe2c23          	sw	a5,24(t3)
    14d8:	00012783          	lw	a5,0(sp)
    14dc:	010e2c23          	sw	a6,24(t3)
    14e0:	011e2c23          	sw	a7,24(t3)
    14e4:	0027e793          	ori	a5,a5,2
    14e8:	00fe2023          	sw	a5,0(t3)
    14ec:	00100793          	li	a5,1
    14f0:	000e2703          	lw	a4,0(t3)
    14f4:	fef71ee3          	bne	a4,a5,14f0 <qspi_write_32x8_cs+0x3c>
    14f8:	00008067          	ret

000014fc <qspi_write_32x16>:
    14fc:	20007e37          	lui	t3,0x20007
    1500:	02000eb7          	lui	t4,0x2000
    1504:	01de2823          	sw	t4,16(t3) # 20007010 <_etext+0x1ffd9804>
    1508:	00ae2c23          	sw	a0,24(t3)
    150c:	00be2c23          	sw	a1,24(t3)
    1510:	00ce2c23          	sw	a2,24(t3)
    1514:	00de2c23          	sw	a3,24(t3)
    1518:	00ee2c23          	sw	a4,24(t3)
    151c:	00fe2c23          	sw	a5,24(t3)
    1520:	010e2c23          	sw	a6,24(t3)
    1524:	011e2c23          	sw	a7,24(t3)
    1528:	00012783          	lw	a5,0(sp)
    152c:	00fe2c23          	sw	a5,24(t3)
    1530:	00412783          	lw	a5,4(sp)
    1534:	00fe2c23          	sw	a5,24(t3)
    1538:	00812783          	lw	a5,8(sp)
    153c:	00fe2c23          	sw	a5,24(t3)
    1540:	00c12783          	lw	a5,12(sp)
    1544:	00fe2c23          	sw	a5,24(t3)
    1548:	01012783          	lw	a5,16(sp)
    154c:	00fe2c23          	sw	a5,24(t3)
    1550:	01412783          	lw	a5,20(sp)
    1554:	00fe2c23          	sw	a5,24(t3)
    1558:	01812783          	lw	a5,24(sp)
    155c:	00fe2c23          	sw	a5,24(t3)
    1560:	01c12783          	lw	a5,28(sp)
    1564:	00fe2c23          	sw	a5,24(t3)
    1568:	10200793          	li	a5,258
    156c:	00fe2023          	sw	a5,0(t3)
    1570:	00100793          	li	a5,1
    1574:	000e2703          	lw	a4,0(t3)
    1578:	fef71ee3          	bne	a4,a5,1574 <qspi_write_32x16+0x78>
    157c:	00008067          	ret

00001580 <qspi_write_32x16_cs>:
    1580:	20007e37          	lui	t3,0x20007
    1584:	02000eb7          	lui	t4,0x2000
    1588:	01de2823          	sw	t4,16(t3) # 20007010 <_etext+0x1ffd9804>
    158c:	00ae2c23          	sw	a0,24(t3)
    1590:	00be2c23          	sw	a1,24(t3)
    1594:	00ce2c23          	sw	a2,24(t3)
    1598:	00de2c23          	sw	a3,24(t3)
    159c:	00ee2c23          	sw	a4,24(t3)
    15a0:	00fe2c23          	sw	a5,24(t3)
    15a4:	010e2c23          	sw	a6,24(t3)
    15a8:	011e2c23          	sw	a7,24(t3)
    15ac:	00012783          	lw	a5,0(sp)
    15b0:	00fe2c23          	sw	a5,24(t3)
    15b4:	00412783          	lw	a5,4(sp)
    15b8:	00fe2c23          	sw	a5,24(t3)
    15bc:	00812783          	lw	a5,8(sp)
    15c0:	00fe2c23          	sw	a5,24(t3)
    15c4:	00c12783          	lw	a5,12(sp)
    15c8:	00fe2c23          	sw	a5,24(t3)
    15cc:	01012783          	lw	a5,16(sp)
    15d0:	00fe2c23          	sw	a5,24(t3)
    15d4:	01412783          	lw	a5,20(sp)
    15d8:	00fe2c23          	sw	a5,24(t3)
    15dc:	01812783          	lw	a5,24(sp)
    15e0:	00fe2c23          	sw	a5,24(t3)
    15e4:	01c12783          	lw	a5,28(sp)
    15e8:	00fe2c23          	sw	a5,24(t3)
    15ec:	02012783          	lw	a5,32(sp)
    15f0:	0027e793          	ori	a5,a5,2
    15f4:	00fe2023          	sw	a5,0(t3)
    15f8:	00100793          	li	a5,1
    15fc:	000e2703          	lw	a4,0(t3)
    1600:	fef71ee3          	bne	a4,a5,15fc <qspi_write_32x16_cs+0x7c>
    1604:	00008067          	ret

00001608 <qspi_write_32x32>:
    1608:	20007e37          	lui	t3,0x20007
    160c:	04000eb7          	lui	t4,0x4000
    1610:	01de2823          	sw	t4,16(t3) # 20007010 <_etext+0x1ffd9804>
    1614:	00ae2c23          	sw	a0,24(t3)
    1618:	00be2c23          	sw	a1,24(t3)
    161c:	00ce2c23          	sw	a2,24(t3)
    1620:	00de2c23          	sw	a3,24(t3)
    1624:	00ee2c23          	sw	a4,24(t3)
    1628:	00fe2c23          	sw	a5,24(t3)
    162c:	010e2c23          	sw	a6,24(t3)
    1630:	011e2c23          	sw	a7,24(t3)
    1634:	00012783          	lw	a5,0(sp)
    1638:	018e0313          	addi	t1,t3,24
    163c:	00f32023          	sw	a5,0(t1)
    1640:	00412783          	lw	a5,4(sp)
    1644:	00f32023          	sw	a5,0(t1)
    1648:	00812783          	lw	a5,8(sp)
    164c:	00f32023          	sw	a5,0(t1)
    1650:	00c12783          	lw	a5,12(sp)
    1654:	00f32023          	sw	a5,0(t1)
    1658:	01012783          	lw	a5,16(sp)
    165c:	00f32023          	sw	a5,0(t1)
    1660:	01412783          	lw	a5,20(sp)
    1664:	00f32023          	sw	a5,0(t1)
    1668:	01812783          	lw	a5,24(sp)
    166c:	00f32023          	sw	a5,0(t1)
    1670:	01c12783          	lw	a5,28(sp)
    1674:	00f32023          	sw	a5,0(t1)
    1678:	02012783          	lw	a5,32(sp)
    167c:	00f32023          	sw	a5,0(t1)
    1680:	02412783          	lw	a5,36(sp)
    1684:	00f32023          	sw	a5,0(t1)
    1688:	02812783          	lw	a5,40(sp)
    168c:	00f32023          	sw	a5,0(t1)
    1690:	02c12783          	lw	a5,44(sp)
    1694:	00f32023          	sw	a5,0(t1)
    1698:	03012783          	lw	a5,48(sp)
    169c:	00f32023          	sw	a5,0(t1)
    16a0:	03412783          	lw	a5,52(sp)
    16a4:	00f32023          	sw	a5,0(t1)
    16a8:	03812783          	lw	a5,56(sp)
    16ac:	00f32023          	sw	a5,0(t1)
    16b0:	03c12783          	lw	a5,60(sp)
    16b4:	00f32023          	sw	a5,0(t1)
    16b8:	04012783          	lw	a5,64(sp)
    16bc:	00f32023          	sw	a5,0(t1)
    16c0:	04412783          	lw	a5,68(sp)
    16c4:	00f32023          	sw	a5,0(t1)
    16c8:	04812783          	lw	a5,72(sp)
    16cc:	00f32023          	sw	a5,0(t1)
    16d0:	04c12783          	lw	a5,76(sp)
    16d4:	00f32023          	sw	a5,0(t1)
    16d8:	05012783          	lw	a5,80(sp)
    16dc:	00f32023          	sw	a5,0(t1)
    16e0:	05412783          	lw	a5,84(sp)
    16e4:	00f32023          	sw	a5,0(t1)
    16e8:	05812783          	lw	a5,88(sp)
    16ec:	00f32023          	sw	a5,0(t1)
    16f0:	05c12783          	lw	a5,92(sp)
    16f4:	00f32023          	sw	a5,0(t1)
    16f8:	10200793          	li	a5,258
    16fc:	00fe2023          	sw	a5,0(t3)
    1700:	00100793          	li	a5,1
    1704:	000e2703          	lw	a4,0(t3)
    1708:	fef71ee3          	bne	a4,a5,1704 <qspi_write_32x32+0xfc>
    170c:	00008067          	ret

00001710 <qspi_write_32x32_cs>:
    1710:	20007e37          	lui	t3,0x20007
    1714:	04000eb7          	lui	t4,0x4000
    1718:	01de2823          	sw	t4,16(t3) # 20007010 <_etext+0x1ffd9804>
    171c:	00ae2c23          	sw	a0,24(t3)
    1720:	00be2c23          	sw	a1,24(t3)
    1724:	00ce2c23          	sw	a2,24(t3)
    1728:	00de2c23          	sw	a3,24(t3)
    172c:	00ee2c23          	sw	a4,24(t3)
    1730:	00fe2c23          	sw	a5,24(t3)
    1734:	010e2c23          	sw	a6,24(t3)
    1738:	011e2c23          	sw	a7,24(t3)
    173c:	00012783          	lw	a5,0(sp)
    1740:	018e0313          	addi	t1,t3,24
    1744:	00f32023          	sw	a5,0(t1)
    1748:	00412783          	lw	a5,4(sp)
    174c:	00f32023          	sw	a5,0(t1)
    1750:	00812783          	lw	a5,8(sp)
    1754:	00f32023          	sw	a5,0(t1)
    1758:	00c12783          	lw	a5,12(sp)
    175c:	00f32023          	sw	a5,0(t1)
    1760:	01012783          	lw	a5,16(sp)
    1764:	00f32023          	sw	a5,0(t1)
    1768:	01412783          	lw	a5,20(sp)
    176c:	00f32023          	sw	a5,0(t1)
    1770:	01812783          	lw	a5,24(sp)
    1774:	00f32023          	sw	a5,0(t1)
    1778:	01c12783          	lw	a5,28(sp)
    177c:	00f32023          	sw	a5,0(t1)
    1780:	02012783          	lw	a5,32(sp)
    1784:	00f32023          	sw	a5,0(t1)
    1788:	02412783          	lw	a5,36(sp)
    178c:	00f32023          	sw	a5,0(t1)
    1790:	02812783          	lw	a5,40(sp)
    1794:	00f32023          	sw	a5,0(t1)
    1798:	02c12783          	lw	a5,44(sp)
    179c:	00f32023          	sw	a5,0(t1)
    17a0:	03012783          	lw	a5,48(sp)
    17a4:	00f32023          	sw	a5,0(t1)
    17a8:	03412783          	lw	a5,52(sp)
    17ac:	00f32023          	sw	a5,0(t1)
    17b0:	03812783          	lw	a5,56(sp)
    17b4:	00f32023          	sw	a5,0(t1)
    17b8:	03c12783          	lw	a5,60(sp)
    17bc:	00f32023          	sw	a5,0(t1)
    17c0:	04012783          	lw	a5,64(sp)
    17c4:	00f32023          	sw	a5,0(t1)
    17c8:	04412783          	lw	a5,68(sp)
    17cc:	00f32023          	sw	a5,0(t1)
    17d0:	04812783          	lw	a5,72(sp)
    17d4:	00f32023          	sw	a5,0(t1)
    17d8:	04c12783          	lw	a5,76(sp)
    17dc:	00f32023          	sw	a5,0(t1)
    17e0:	05012783          	lw	a5,80(sp)
    17e4:	00f32023          	sw	a5,0(t1)
    17e8:	05412783          	lw	a5,84(sp)
    17ec:	00f32023          	sw	a5,0(t1)
    17f0:	05812783          	lw	a5,88(sp)
    17f4:	00f32023          	sw	a5,0(t1)
    17f8:	05c12783          	lw	a5,92(sp)
    17fc:	00f32023          	sw	a5,0(t1)
    1800:	06012783          	lw	a5,96(sp)
    1804:	0027e793          	ori	a5,a5,2
    1808:	00fe2023          	sw	a5,0(t3)
    180c:	00100793          	li	a5,1
    1810:	000e2703          	lw	a4,0(t3)
    1814:	fef71ee3          	bne	a4,a5,1810 <qspi_write_32x32_cs+0x100>
    1818:	00008067          	ret

0000181c <i2c_get_ack>:
    181c:	20006737          	lui	a4,0x20006
    1820:	01470713          	addi	a4,a4,20 # 20006014 <_etext+0x1ffd8808>
    1824:	00072783          	lw	a5,0(a4)
    1828:	0027f793          	andi	a5,a5,2
    182c:	fe078ce3          	beqz	a5,1824 <i2c_get_ack+0x8>
    1830:	200067b7          	lui	a5,0x20006
    1834:	01478793          	addi	a5,a5,20 # 20006014 <_etext+0x1ffd8808>
    1838:	0007a703          	lw	a4,0(a5)
    183c:	00277713          	andi	a4,a4,2
    1840:	fe071ce3          	bnez	a4,1838 <i2c_get_ack+0x1c>
    1844:	0007a503          	lw	a0,0(a5)
    1848:	00755513          	srli	a0,a0,0x7
    184c:	00157513          	andi	a0,a0,1
    1850:	00154513          	xori	a0,a0,1
    1854:	00008067          	ret

00001858 <i2c_stop>:
    1858:	200067b7          	lui	a5,0x20006
    185c:	04000713          	li	a4,64
    1860:	00e7a823          	sw	a4,16(a5) # 20006010 <_etext+0x1ffd8804>
    1864:	01478713          	addi	a4,a5,20
    1868:	00072783          	lw	a5,0(a4)
    186c:	0407f793          	andi	a5,a5,64
    1870:	fe079ce3          	bnez	a5,1868 <i2c_stop+0x10>
    1874:	00008067          	ret

00001878 <i2c_write_byte>:
    1878:	ff010113          	addi	sp,sp,-16
    187c:	00112623          	sw	ra,12(sp)
    1880:	200067b7          	lui	a5,0x20006
    1884:	00a7a423          	sw	a0,8(a5) # 20006008 <_etext+0x1ffd87fc>
    1888:	01000713          	li	a4,16
    188c:	00e7a823          	sw	a4,16(a5)
    1890:	f8dff0ef          	jal	181c <i2c_get_ack>
    1894:	00051c63          	bnez	a0,18ac <i2c_write_byte+0x34>
    1898:	00c12083          	lw	ra,12(sp)
    189c:	0002d537          	lui	a0,0x2d
    18a0:	75450513          	addi	a0,a0,1876 # 2d754 <open_pcm+0xaf14>
    18a4:	01010113          	addi	sp,sp,16
    18a8:	f78ff06f          	j	1020 <printf>
    18ac:	00c12083          	lw	ra,12(sp)
    18b0:	01010113          	addi	sp,sp,16
    18b4:	00008067          	ret

000018b8 <i2c_init>:
    18b8:	200067b7          	lui	a5,0x20006
    18bc:	0007a023          	sw	zero,0(a5) # 20006000 <_etext+0x1ffd87f4>
    18c0:	00052683          	lw	a3,0(a0)
    18c4:	08000713          	li	a4,128
    18c8:	00d7a223          	sw	a3,4(a5)
    18cc:	00e7a023          	sw	a4,0(a5)
    18d0:	00008067          	ret

000018d4 <i2c_write_nbyte>:
    18d4:	fd010113          	addi	sp,sp,-48
    18d8:	02912223          	sw	s1,36(sp)
    18dc:	03212023          	sw	s2,32(sp)
    18e0:	200064b7          	lui	s1,0x20006
    18e4:	20006937          	lui	s2,0x20006
    18e8:	02812423          	sw	s0,40(sp)
    18ec:	01312e23          	sw	s3,28(sp)
    18f0:	01412c23          	sw	s4,24(sp)
    18f4:	01512a23          	sw	s5,20(sp)
    18f8:	02112623          	sw	ra,44(sp)
    18fc:	00068413          	mv	s0,a3
    1900:	00070a93          	mv	s5,a4
    1904:	00151993          	slli	s3,a0,0x1
    1908:	00890913          	addi	s2,s2,8 # 20006008 <_etext+0x1ffd87fc>
    190c:	01048493          	addi	s1,s1,16 # 20006010 <_etext+0x1ffd8804>
    1910:	09000a13          	li	s4,144
    1914:	00c12623          	sw	a2,12(sp)
    1918:	00b12423          	sw	a1,8(sp)
    191c:	01392023          	sw	s3,0(s2)
    1920:	0144a023          	sw	s4,0(s1)
    1924:	ef9ff0ef          	jal	181c <i2c_get_ack>
    1928:	00812583          	lw	a1,8(sp)
    192c:	00c12603          	lw	a2,12(sp)
    1930:	fe0502e3          	beqz	a0,1914 <i2c_write_nbyte+0x40>
    1934:	00800793          	li	a5,8
    1938:	0ff5f493          	zext.b	s1,a1
    193c:	02f61c63          	bne	a2,a5,1974 <i2c_write_nbyte+0xa0>
    1940:	00048513          	mv	a0,s1
    1944:	f35ff0ef          	jal	1878 <i2c_write_byte>
    1948:	015404b3          	add	s1,s0,s5
    194c:	02941a63          	bne	s0,s1,1980 <i2c_write_nbyte+0xac>
    1950:	02812403          	lw	s0,40(sp)
    1954:	02c12083          	lw	ra,44(sp)
    1958:	02412483          	lw	s1,36(sp)
    195c:	02012903          	lw	s2,32(sp)
    1960:	01c12983          	lw	s3,28(sp)
    1964:	01812a03          	lw	s4,24(sp)
    1968:	01412a83          	lw	s5,20(sp)
    196c:	03010113          	addi	sp,sp,48
    1970:	ee9ff06f          	j	1858 <i2c_stop>
    1974:	0085d513          	srli	a0,a1,0x8
    1978:	f01ff0ef          	jal	1878 <i2c_write_byte>
    197c:	fc5ff06f          	j	1940 <i2c_write_nbyte+0x6c>
    1980:	00044503          	lbu	a0,0(s0)
    1984:	00140413          	addi	s0,s0,1
    1988:	ef1ff0ef          	jal	1878 <i2c_write_byte>
    198c:	fc1ff06f          	j	194c <i2c_write_nbyte+0x78>

00001990 <i2c_read_nbyte>:
    1990:	fd010113          	addi	sp,sp,-48
    1994:	02912223          	sw	s1,36(sp)
    1998:	03212023          	sw	s2,32(sp)
    199c:	200064b7          	lui	s1,0x20006
    19a0:	20006937          	lui	s2,0x20006
    19a4:	02812423          	sw	s0,40(sp)
    19a8:	01312e23          	sw	s3,28(sp)
    19ac:	01412c23          	sw	s4,24(sp)
    19b0:	01612823          	sw	s6,16(sp)
    19b4:	02112623          	sw	ra,44(sp)
    19b8:	01512a23          	sw	s5,20(sp)
    19bc:	00068b13          	mv	s6,a3
    19c0:	00070993          	mv	s3,a4
    19c4:	00151413          	slli	s0,a0,0x1
    19c8:	00890913          	addi	s2,s2,8 # 20006008 <_etext+0x1ffd87fc>
    19cc:	01048493          	addi	s1,s1,16 # 20006010 <_etext+0x1ffd8804>
    19d0:	09000a13          	li	s4,144
    19d4:	00c12623          	sw	a2,12(sp)
    19d8:	00b12423          	sw	a1,8(sp)
    19dc:	00892023          	sw	s0,0(s2)
    19e0:	0144a023          	sw	s4,0(s1)
    19e4:	e39ff0ef          	jal	181c <i2c_get_ack>
    19e8:	00812583          	lw	a1,8(sp)
    19ec:	00c12603          	lw	a2,12(sp)
    19f0:	fe0502e3          	beqz	a0,19d4 <i2c_read_nbyte+0x44>
    19f4:	00800793          	li	a5,8
    19f8:	0ff5f493          	zext.b	s1,a1
    19fc:	08f61263          	bne	a2,a5,1a80 <i2c_read_nbyte+0xf0>
    1a00:	00048513          	mv	a0,s1
    1a04:	e75ff0ef          	jal	1878 <i2c_write_byte>
    1a08:	e51ff0ef          	jal	1858 <i2c_stop>
    1a0c:	200067b7          	lui	a5,0x20006
    1a10:	00146413          	ori	s0,s0,1
    1a14:	0087a423          	sw	s0,8(a5) # 20006008 <_etext+0x1ffd87fc>
    1a18:	09000713          	li	a4,144
    1a1c:	00e7a823          	sw	a4,16(a5)
    1a20:	dfdff0ef          	jal	181c <i2c_get_ack>
    1a24:	00051863          	bnez	a0,1a34 <i2c_read_nbyte+0xa4>
    1a28:	0002d537          	lui	a0,0x2d
    1a2c:	76c50513          	addi	a0,a0,1900 # 2d76c <open_pcm+0xaf2c>
    1a30:	df0ff0ef          	jal	1020 <printf>
    1a34:	200064b7          	lui	s1,0x20006
    1a38:	0002d7b7          	lui	a5,0x2d
    1a3c:	20006937          	lui	s2,0x20006
    1a40:	00000413          	li	s0,0
    1a44:	fff98a13          	addi	s4,s3,-1
    1a48:	01048493          	addi	s1,s1,16 # 20006010 <_etext+0x1ffd8804>
    1a4c:	78478a93          	addi	s5,a5,1924 # 2d784 <open_pcm+0xaf44>
    1a50:	00c90913          	addi	s2,s2,12 # 2000600c <_etext+0x1ffd8800>
    1a54:	03341c63          	bne	s0,s3,1a8c <i2c_read_nbyte+0xfc>
    1a58:	02812403          	lw	s0,40(sp)
    1a5c:	02c12083          	lw	ra,44(sp)
    1a60:	02412483          	lw	s1,36(sp)
    1a64:	02012903          	lw	s2,32(sp)
    1a68:	01c12983          	lw	s3,28(sp)
    1a6c:	01812a03          	lw	s4,24(sp)
    1a70:	01412a83          	lw	s5,20(sp)
    1a74:	01012b03          	lw	s6,16(sp)
    1a78:	03010113          	addi	sp,sp,48
    1a7c:	dddff06f          	j	1858 <i2c_stop>
    1a80:	0085d513          	srli	a0,a1,0x8
    1a84:	df5ff0ef          	jal	1878 <i2c_write_byte>
    1a88:	f79ff06f          	j	1a00 <i2c_read_nbyte+0x70>
    1a8c:	02000793          	li	a5,32
    1a90:	008a1463          	bne	s4,s0,1a98 <i2c_read_nbyte+0x108>
    1a94:	06000793          	li	a5,96
    1a98:	00f4a023          	sw	a5,0(s1)
    1a9c:	d81ff0ef          	jal	181c <i2c_get_ack>
    1aa0:	00051663          	bnez	a0,1aac <i2c_read_nbyte+0x11c>
    1aa4:	000a8513          	mv	a0,s5
    1aa8:	d78ff0ef          	jal	1020 <printf>
    1aac:	00092703          	lw	a4,0(s2)
    1ab0:	008b07b3          	add	a5,s6,s0
    1ab4:	00140413          	addi	s0,s0,1
    1ab8:	00e78023          	sb	a4,0(a5)
    1abc:	f99ff06f          	j	1a54 <i2c_read_nbyte+0xc4>

00001ac0 <st7735_wr_data8>:
    1ac0:	00052503          	lw	a0,0(a0)
    1ac4:	ff010113          	addi	sp,sp,-16
    1ac8:	00812423          	sw	s0,8(sp)
    1acc:	00058413          	mv	s0,a1
    1ad0:	00100593          	li	a1,1
    1ad4:	00112623          	sw	ra,12(sp)
    1ad8:	9b4ff0ef          	jal	c8c <gpio_set_level>
    1adc:	00040513          	mv	a0,s0
    1ae0:	00812403          	lw	s0,8(sp)
    1ae4:	00c12083          	lw	ra,12(sp)
    1ae8:	01010113          	addi	sp,sp,16
    1aec:	851ff06f          	j	133c <qspi_write_8>

00001af0 <st7735_wr_data16>:
    1af0:	00052503          	lw	a0,0(a0)
    1af4:	ff010113          	addi	sp,sp,-16
    1af8:	00812423          	sw	s0,8(sp)
    1afc:	00058413          	mv	s0,a1
    1b00:	00100593          	li	a1,1
    1b04:	00112623          	sw	ra,12(sp)
    1b08:	984ff0ef          	jal	c8c <gpio_set_level>
    1b0c:	00040513          	mv	a0,s0
    1b10:	00812403          	lw	s0,8(sp)
    1b14:	00c12083          	lw	ra,12(sp)
    1b18:	01010113          	addi	sp,sp,16
    1b1c:	881ff06f          	j	139c <qspi_write_16>

00001b20 <st7735_wr_data32>:
    1b20:	00052503          	lw	a0,0(a0)
    1b24:	ff010113          	addi	sp,sp,-16
    1b28:	00812423          	sw	s0,8(sp)
    1b2c:	00058413          	mv	s0,a1
    1b30:	00100593          	li	a1,1
    1b34:	00112623          	sw	ra,12(sp)
    1b38:	954ff0ef          	jal	c8c <gpio_set_level>
    1b3c:	00040513          	mv	a0,s0
    1b40:	00812403          	lw	s0,8(sp)
    1b44:	00c12083          	lw	ra,12(sp)
    1b48:	01010113          	addi	sp,sp,16
    1b4c:	8a9ff06f          	j	13f4 <qspi_write_32>

00001b50 <st7735_wr_data32x2>:
    1b50:	00052503          	lw	a0,0(a0)
    1b54:	fe010113          	addi	sp,sp,-32
    1b58:	00812c23          	sw	s0,24(sp)
    1b5c:	00058413          	mv	s0,a1
    1b60:	00100593          	li	a1,1
    1b64:	00112e23          	sw	ra,28(sp)
    1b68:	00c12623          	sw	a2,12(sp)
    1b6c:	920ff0ef          	jal	c8c <gpio_set_level>
    1b70:	00040513          	mv	a0,s0
    1b74:	01812403          	lw	s0,24(sp)
    1b78:	00c12583          	lw	a1,12(sp)
    1b7c:	01c12083          	lw	ra,28(sp)
    1b80:	02010113          	addi	sp,sp,32
    1b84:	8c1ff06f          	j	1444 <qspi_write_32x2>

00001b88 <st7735_wr_data32x8>:
    1b88:	fd010113          	addi	sp,sp,-48
    1b8c:	01112623          	sw	a7,12(sp)
    1b90:	00052503          	lw	a0,0(a0)
    1b94:	03012883          	lw	a7,48(sp)
    1b98:	02812423          	sw	s0,40(sp)
    1b9c:	00058413          	mv	s0,a1
    1ba0:	00100593          	li	a1,1
    1ba4:	02912223          	sw	s1,36(sp)
    1ba8:	02112623          	sw	ra,44(sp)
    1bac:	00060493          	mv	s1,a2
    1bb0:	00d12e23          	sw	a3,28(sp)
    1bb4:	00e12c23          	sw	a4,24(sp)
    1bb8:	00f12a23          	sw	a5,20(sp)
    1bbc:	01012823          	sw	a6,16(sp)
    1bc0:	01112423          	sw	a7,8(sp)
    1bc4:	8c8ff0ef          	jal	c8c <gpio_set_level>
    1bc8:	00040513          	mv	a0,s0
    1bcc:	02812403          	lw	s0,40(sp)
    1bd0:	00812883          	lw	a7,8(sp)
    1bd4:	00c12803          	lw	a6,12(sp)
    1bd8:	01012783          	lw	a5,16(sp)
    1bdc:	01412703          	lw	a4,20(sp)
    1be0:	01812683          	lw	a3,24(sp)
    1be4:	01c12603          	lw	a2,28(sp)
    1be8:	02c12083          	lw	ra,44(sp)
    1bec:	00048593          	mv	a1,s1
    1bf0:	02412483          	lw	s1,36(sp)
    1bf4:	03010113          	addi	sp,sp,48
    1bf8:	879ff06f          	j	1470 <qspi_write_32x8>

00001bfc <st7735_wr_data32x16>:
    1bfc:	fb010113          	addi	sp,sp,-80
    1c00:	04812423          	sw	s0,72(sp)
    1c04:	01112623          	sw	a7,12(sp)
    1c08:	05412403          	lw	s0,84(sp)
    1c0c:	05012883          	lw	a7,80(sp)
    1c10:	00052503          	lw	a0,0(a0)
    1c14:	04912223          	sw	s1,68(sp)
    1c18:	05212023          	sw	s2,64(sp)
    1c1c:	03312e23          	sw	s3,60(sp)
    1c20:	03412c23          	sw	s4,56(sp)
    1c24:	03512a23          	sw	s5,52(sp)
    1c28:	03612823          	sw	s6,48(sp)
    1c2c:	03712623          	sw	s7,44(sp)
    1c30:	05812483          	lw	s1,88(sp)
    1c34:	05c12903          	lw	s2,92(sp)
    1c38:	06012983          	lw	s3,96(sp)
    1c3c:	06412a03          	lw	s4,100(sp)
    1c40:	06812a83          	lw	s5,104(sp)
    1c44:	06c12b03          	lw	s6,108(sp)
    1c48:	07012b83          	lw	s7,112(sp)
    1c4c:	03812423          	sw	s8,40(sp)
    1c50:	00058c13          	mv	s8,a1
    1c54:	00100593          	li	a1,1
    1c58:	03912223          	sw	s9,36(sp)
    1c5c:	04112623          	sw	ra,76(sp)
    1c60:	00060c93          	mv	s9,a2
    1c64:	00d12e23          	sw	a3,28(sp)
    1c68:	00e12c23          	sw	a4,24(sp)
    1c6c:	00f12a23          	sw	a5,20(sp)
    1c70:	01012823          	sw	a6,16(sp)
    1c74:	01112423          	sw	a7,8(sp)
    1c78:	814ff0ef          	jal	c8c <gpio_set_level>
    1c7c:	04812823          	sw	s0,80(sp)
    1c80:	04812403          	lw	s0,72(sp)
    1c84:	07712623          	sw	s7,108(sp)
    1c88:	07612423          	sw	s6,104(sp)
    1c8c:	07512223          	sw	s5,100(sp)
    1c90:	07412023          	sw	s4,96(sp)
    1c94:	05312e23          	sw	s3,92(sp)
    1c98:	05212c23          	sw	s2,88(sp)
    1c9c:	04912a23          	sw	s1,84(sp)
    1ca0:	00812883          	lw	a7,8(sp)
    1ca4:	00c12803          	lw	a6,12(sp)
    1ca8:	01012783          	lw	a5,16(sp)
    1cac:	01412703          	lw	a4,20(sp)
    1cb0:	01812683          	lw	a3,24(sp)
    1cb4:	01c12603          	lw	a2,28(sp)
    1cb8:	04c12083          	lw	ra,76(sp)
    1cbc:	04412483          	lw	s1,68(sp)
    1cc0:	04012903          	lw	s2,64(sp)
    1cc4:	03c12983          	lw	s3,60(sp)
    1cc8:	03812a03          	lw	s4,56(sp)
    1ccc:	03412a83          	lw	s5,52(sp)
    1cd0:	03012b03          	lw	s6,48(sp)
    1cd4:	02c12b83          	lw	s7,44(sp)
    1cd8:	000c8593          	mv	a1,s9
    1cdc:	000c0513          	mv	a0,s8
    1ce0:	02412c83          	lw	s9,36(sp)
    1ce4:	02812c03          	lw	s8,40(sp)
    1ce8:	05010113          	addi	sp,sp,80
    1cec:	811ff06f          	j	14fc <qspi_write_32x16>

00001cf0 <st7735_wr_data32x32>:
    1cf0:	f7010113          	addi	sp,sp,-144
    1cf4:	05112623          	sw	a7,76(sp)
    1cf8:	09012883          	lw	a7,144(sp)
    1cfc:	08112623          	sw	ra,140(sp)
    1d00:	08812423          	sw	s0,136(sp)
    1d04:	08912223          	sw	s1,132(sp)
    1d08:	09212023          	sw	s2,128(sp)
    1d0c:	07312e23          	sw	s3,124(sp)
    1d10:	07412c23          	sw	s4,120(sp)
    1d14:	07512a23          	sw	s5,116(sp)
    1d18:	07612823          	sw	s6,112(sp)
    1d1c:	07712623          	sw	s7,108(sp)
    1d20:	07812423          	sw	s8,104(sp)
    1d24:	07a12023          	sw	s10,96(sp)
    1d28:	05b12e23          	sw	s11,92(sp)
    1d2c:	07912223          	sw	s9,100(sp)
    1d30:	09412403          	lw	s0,148(sp)
    1d34:	09812483          	lw	s1,152(sp)
    1d38:	09c12903          	lw	s2,156(sp)
    1d3c:	0a012983          	lw	s3,160(sp)
    1d40:	0a412a03          	lw	s4,164(sp)
    1d44:	0a812a83          	lw	s5,168(sp)
    1d48:	0ac12b03          	lw	s6,172(sp)
    1d4c:	0b012b83          	lw	s7,176(sp)
    1d50:	0b412c03          	lw	s8,180(sp)
    1d54:	01012c23          	sw	a6,24(sp)
    1d58:	05112423          	sw	a7,72(sp)
    1d5c:	00b12223          	sw	a1,4(sp)
    1d60:	00c12423          	sw	a2,8(sp)
    1d64:	00d12623          	sw	a3,12(sp)
    1d68:	00e12823          	sw	a4,16(sp)
    1d6c:	00f12a23          	sw	a5,20(sp)
    1d70:	0b812c83          	lw	s9,184(sp)
    1d74:	0c412783          	lw	a5,196(sp)
    1d78:	0c812703          	lw	a4,200(sp)
    1d7c:	0cc12683          	lw	a3,204(sp)
    1d80:	0d012603          	lw	a2,208(sp)
    1d84:	0d812303          	lw	t1,216(sp)
    1d88:	0dc12e03          	lw	t3,220(sp)
    1d8c:	0e012e83          	lw	t4,224(sp)
    1d90:	0e412f03          	lw	t5,228(sp)
    1d94:	0e812f83          	lw	t6,232(sp)
    1d98:	0ec12283          	lw	t0,236(sp)
    1d9c:	0f012383          	lw	t2,240(sp)
    1da0:	04f12223          	sw	a5,68(sp)
    1da4:	00052503          	lw	a0,0(a0)
    1da8:	0d412783          	lw	a5,212(sp)
    1dac:	00100593          	li	a1,1
    1db0:	0bc12d03          	lw	s10,188(sp)
    1db4:	0c012d83          	lw	s11,192(sp)
    1db8:	04e12023          	sw	a4,64(sp)
    1dbc:	02d12e23          	sw	a3,60(sp)
    1dc0:	02c12c23          	sw	a2,56(sp)
    1dc4:	00f12023          	sw	a5,0(sp)
    1dc8:	02612a23          	sw	t1,52(sp)
    1dcc:	03c12823          	sw	t3,48(sp)
    1dd0:	03d12623          	sw	t4,44(sp)
    1dd4:	03e12423          	sw	t5,40(sp)
    1dd8:	03f12223          	sw	t6,36(sp)
    1ddc:	02512023          	sw	t0,32(sp)
    1de0:	00712e23          	sw	t2,28(sp)
    1de4:	ea9fe0ef          	jal	c8c <gpio_set_level>
    1de8:	00012783          	lw	a5,0(sp)
    1dec:	03812603          	lw	a2,56(sp)
    1df0:	03c12683          	lw	a3,60(sp)
    1df4:	04012703          	lw	a4,64(sp)
    1df8:	01c12383          	lw	t2,28(sp)
    1dfc:	02012283          	lw	t0,32(sp)
    1e00:	02412f83          	lw	t6,36(sp)
    1e04:	02812f03          	lw	t5,40(sp)
    1e08:	02c12e83          	lw	t4,44(sp)
    1e0c:	03012e03          	lw	t3,48(sp)
    1e10:	03412303          	lw	t1,52(sp)
    1e14:	0cf12823          	sw	a5,208(sp)
    1e18:	04412783          	lw	a5,68(sp)
    1e1c:	0cc12623          	sw	a2,204(sp)
    1e20:	0cd12423          	sw	a3,200(sp)
    1e24:	0ce12223          	sw	a4,196(sp)
    1e28:	0cf12023          	sw	a5,192(sp)
    1e2c:	0bb12e23          	sw	s11,188(sp)
    1e30:	0ba12c23          	sw	s10,184(sp)
    1e34:	0b912a23          	sw	s9,180(sp)
    1e38:	0b812823          	sw	s8,176(sp)
    1e3c:	0b712623          	sw	s7,172(sp)
    1e40:	0b612423          	sw	s6,168(sp)
    1e44:	0b512223          	sw	s5,164(sp)
    1e48:	0b412023          	sw	s4,160(sp)
    1e4c:	0e712623          	sw	t2,236(sp)
    1e50:	0e512423          	sw	t0,232(sp)
    1e54:	0ff12223          	sw	t6,228(sp)
    1e58:	0fe12023          	sw	t5,224(sp)
    1e5c:	0dd12e23          	sw	t4,220(sp)
    1e60:	0dc12c23          	sw	t3,216(sp)
    1e64:	0c612a23          	sw	t1,212(sp)
    1e68:	09312e23          	sw	s3,156(sp)
    1e6c:	08812823          	sw	s0,144(sp)
    1e70:	08812403          	lw	s0,136(sp)
    1e74:	09212c23          	sw	s2,152(sp)
    1e78:	08912a23          	sw	s1,148(sp)
    1e7c:	04812883          	lw	a7,72(sp)
    1e80:	04c12803          	lw	a6,76(sp)
    1e84:	01812783          	lw	a5,24(sp)
    1e88:	01412703          	lw	a4,20(sp)
    1e8c:	01012683          	lw	a3,16(sp)
    1e90:	00c12603          	lw	a2,12(sp)
    1e94:	00812583          	lw	a1,8(sp)
    1e98:	00412503          	lw	a0,4(sp)
    1e9c:	08c12083          	lw	ra,140(sp)
    1ea0:	08412483          	lw	s1,132(sp)
    1ea4:	08012903          	lw	s2,128(sp)
    1ea8:	07c12983          	lw	s3,124(sp)
    1eac:	07812a03          	lw	s4,120(sp)
    1eb0:	07412a83          	lw	s5,116(sp)
    1eb4:	07012b03          	lw	s6,112(sp)
    1eb8:	06c12b83          	lw	s7,108(sp)
    1ebc:	06812c03          	lw	s8,104(sp)
    1ec0:	06412c83          	lw	s9,100(sp)
    1ec4:	06012d03          	lw	s10,96(sp)
    1ec8:	05c12d83          	lw	s11,92(sp)
    1ecc:	09010113          	addi	sp,sp,144
    1ed0:	f38ff06f          	j	1608 <qspi_write_32x32>

00001ed4 <st7735_wr_cmd>:
    1ed4:	00052503          	lw	a0,0(a0)
    1ed8:	ff010113          	addi	sp,sp,-16
    1edc:	00812423          	sw	s0,8(sp)
    1ee0:	00058413          	mv	s0,a1
    1ee4:	00000593          	li	a1,0
    1ee8:	00112623          	sw	ra,12(sp)
    1eec:	da1fe0ef          	jal	c8c <gpio_set_level>
    1ef0:	00040513          	mv	a0,s0
    1ef4:	00812403          	lw	s0,8(sp)
    1ef8:	00c12083          	lw	ra,12(sp)
    1efc:	01010113          	addi	sp,sp,16
    1f00:	c3cff06f          	j	133c <qspi_write_8>

00001f04 <st7735_addr_set>:
    1f04:	fe010113          	addi	sp,sp,-32
    1f08:	00912a23          	sw	s1,20(sp)
    1f0c:	00058493          	mv	s1,a1
    1f10:	02a00593          	li	a1,42
    1f14:	00112e23          	sw	ra,28(sp)
    1f18:	00812c23          	sw	s0,24(sp)
    1f1c:	00e12223          	sw	a4,4(sp)
    1f20:	00050413          	mv	s0,a0
    1f24:	00c12623          	sw	a2,12(sp)
    1f28:	00d12423          	sw	a3,8(sp)
    1f2c:	fa9ff0ef          	jal	1ed4 <st7735_wr_cmd>
    1f30:	01044783          	lbu	a5,16(s0)
    1f34:	00040513          	mv	a0,s0
    1f38:	00f485b3          	add	a1,s1,a5
    1f3c:	01059593          	slli	a1,a1,0x10
    1f40:	0105d593          	srli	a1,a1,0x10
    1f44:	badff0ef          	jal	1af0 <st7735_wr_data16>
    1f48:	01044783          	lbu	a5,16(s0)
    1f4c:	00812683          	lw	a3,8(sp)
    1f50:	00040513          	mv	a0,s0
    1f54:	00f686b3          	add	a3,a3,a5
    1f58:	01069593          	slli	a1,a3,0x10
    1f5c:	0105d593          	srli	a1,a1,0x10
    1f60:	b91ff0ef          	jal	1af0 <st7735_wr_data16>
    1f64:	00040513          	mv	a0,s0
    1f68:	02b00593          	li	a1,43
    1f6c:	f69ff0ef          	jal	1ed4 <st7735_wr_cmd>
    1f70:	01144783          	lbu	a5,17(s0)
    1f74:	00c12603          	lw	a2,12(sp)
    1f78:	00040513          	mv	a0,s0
    1f7c:	00f60633          	add	a2,a2,a5
    1f80:	01061593          	slli	a1,a2,0x10
    1f84:	0105d593          	srli	a1,a1,0x10
    1f88:	b69ff0ef          	jal	1af0 <st7735_wr_data16>
    1f8c:	01144783          	lbu	a5,17(s0)
    1f90:	00412703          	lw	a4,4(sp)
    1f94:	00040513          	mv	a0,s0
    1f98:	00f70733          	add	a4,a4,a5
    1f9c:	01071593          	slli	a1,a4,0x10
    1fa0:	0105d593          	srli	a1,a1,0x10
    1fa4:	b4dff0ef          	jal	1af0 <st7735_wr_data16>
    1fa8:	00040513          	mv	a0,s0
    1fac:	01812403          	lw	s0,24(sp)
    1fb0:	01c12083          	lw	ra,28(sp)
    1fb4:	01412483          	lw	s1,20(sp)
    1fb8:	02c00593          	li	a1,44
    1fbc:	02010113          	addi	sp,sp,32
    1fc0:	f15ff06f          	j	1ed4 <st7735_wr_cmd>

00001fc4 <st7735_fill>:
    1fc4:	f6010113          	addi	sp,sp,-160
    1fc8:	09212823          	sw	s2,144(sp)
    1fcc:	09312623          	sw	s3,140(sp)
    1fd0:	00070913          	mv	s2,a4
    1fd4:	00068993          	mv	s3,a3
    1fd8:	fff70713          	addi	a4,a4,-1
    1fdc:	fff68693          	addi	a3,a3,-1 # 3fffff <_etext+0x3d27f3>
    1fe0:	01071713          	slli	a4,a4,0x10
    1fe4:	01069693          	slli	a3,a3,0x10
    1fe8:	01075713          	srli	a4,a4,0x10
    1fec:	0106d693          	srli	a3,a3,0x10
    1ff0:	08812c23          	sw	s0,152(sp)
    1ff4:	09412423          	sw	s4,136(sp)
    1ff8:	09512223          	sw	s5,132(sp)
    1ffc:	06f12e23          	sw	a5,124(sp)
    2000:	08112e23          	sw	ra,156(sp)
    2004:	08912a23          	sw	s1,148(sp)
    2008:	00050a13          	mv	s4,a0
    200c:	00058a93          	mv	s5,a1
    2010:	00060413          	mv	s0,a2
    2014:	ef1ff0ef          	jal	1f04 <st7735_addr_set>
    2018:	07c12783          	lw	a5,124(sp)
    201c:	0d246a63          	bltu	s0,s2,20f0 <st7735_fill+0x12c>
    2020:	09c12083          	lw	ra,156(sp)
    2024:	09812403          	lw	s0,152(sp)
    2028:	09412483          	lw	s1,148(sp)
    202c:	09012903          	lw	s2,144(sp)
    2030:	08c12983          	lw	s3,140(sp)
    2034:	08812a03          	lw	s4,136(sp)
    2038:	08412a83          	lw	s5,132(sp)
    203c:	0a010113          	addi	sp,sp,160
    2040:	00008067          	ret
    2044:	00f12a23          	sw	a5,20(sp)
    2048:	00f12823          	sw	a5,16(sp)
    204c:	00f12623          	sw	a5,12(sp)
    2050:	00f12423          	sw	a5,8(sp)
    2054:	00f12223          	sw	a5,4(sp)
    2058:	00f12023          	sw	a5,0(sp)
    205c:	00078893          	mv	a7,a5
    2060:	00078813          	mv	a6,a5
    2064:	00078713          	mv	a4,a5
    2068:	00078693          	mv	a3,a5
    206c:	00078613          	mv	a2,a5
    2070:	00078593          	mv	a1,a5
    2074:	000a0513          	mv	a0,s4
    2078:	06f12023          	sw	a5,96(sp)
    207c:	04f12e23          	sw	a5,92(sp)
    2080:	04f12c23          	sw	a5,88(sp)
    2084:	04f12a23          	sw	a5,84(sp)
    2088:	04f12823          	sw	a5,80(sp)
    208c:	04f12623          	sw	a5,76(sp)
    2090:	04f12423          	sw	a5,72(sp)
    2094:	04f12223          	sw	a5,68(sp)
    2098:	04f12023          	sw	a5,64(sp)
    209c:	02f12e23          	sw	a5,60(sp)
    20a0:	02f12c23          	sw	a5,56(sp)
    20a4:	02f12a23          	sw	a5,52(sp)
    20a8:	02f12823          	sw	a5,48(sp)
    20ac:	02f12623          	sw	a5,44(sp)
    20b0:	02f12423          	sw	a5,40(sp)
    20b4:	02f12223          	sw	a5,36(sp)
    20b8:	02f12023          	sw	a5,32(sp)
    20bc:	00f12e23          	sw	a5,28(sp)
    20c0:	00f12c23          	sw	a5,24(sp)
    20c4:	06f12e23          	sw	a5,124(sp)
    20c8:	c29ff0ef          	jal	1cf0 <st7735_wr_data32x32>
    20cc:	04048493          	addi	s1,s1,64
    20d0:	07c12783          	lw	a5,124(sp)
    20d4:	01049493          	slli	s1,s1,0x10
    20d8:	0104d493          	srli	s1,s1,0x10
    20dc:	f734e4e3          	bltu	s1,s3,2044 <st7735_fill+0x80>
    20e0:	00140413          	addi	s0,s0,1
    20e4:	01041413          	slli	s0,s0,0x10
    20e8:	01045413          	srli	s0,s0,0x10
    20ec:	f31ff06f          	j	201c <st7735_fill+0x58>
    20f0:	000a8493          	mv	s1,s5
    20f4:	fe9ff06f          	j	20dc <st7735_fill+0x118>

000020f8 <st7735_init>:
    20f8:	00052783          	lw	a5,0(a0)
    20fc:	fe010113          	addi	sp,sp,-32
    2100:	00912a23          	sw	s1,20(sp)
    2104:	00100493          	li	s1,1
    2108:	00f497b3          	sll	a5,s1,a5
    210c:	00812c23          	sw	s0,24(sp)
    2110:	00f12023          	sw	a5,0(sp)
    2114:	00050413          	mv	s0,a0
    2118:	41f7d793          	srai	a5,a5,0x1f
    211c:	00010513          	mv	a0,sp
    2120:	00112e23          	sw	ra,28(sp)
    2124:	00f12223          	sw	a5,4(sp)
    2128:	00912423          	sw	s1,8(sp)
    212c:	a71fe0ef          	jal	b9c <gpio_config>
    2130:	00042503          	lw	a0,0(s0)
    2134:	00000593          	li	a1,0
    2138:	b55fe0ef          	jal	c8c <gpio_set_level>
    213c:	07800513          	li	a0,120
    2140:	9a5fe0ef          	jal	ae4 <delay_ms>
    2144:	01100593          	li	a1,17
    2148:	00040513          	mv	a0,s0
    214c:	d89ff0ef          	jal	1ed4 <st7735_wr_cmd>
    2150:	07800513          	li	a0,120
    2154:	991fe0ef          	jal	ae4 <delay_ms>
    2158:	0b100593          	li	a1,177
    215c:	00040513          	mv	a0,s0
    2160:	d75ff0ef          	jal	1ed4 <st7735_wr_cmd>
    2164:	00048593          	mv	a1,s1
    2168:	00040513          	mv	a0,s0
    216c:	955ff0ef          	jal	1ac0 <st7735_wr_data8>
    2170:	02c00593          	li	a1,44
    2174:	00040513          	mv	a0,s0
    2178:	949ff0ef          	jal	1ac0 <st7735_wr_data8>
    217c:	02d00593          	li	a1,45
    2180:	00040513          	mv	a0,s0
    2184:	93dff0ef          	jal	1ac0 <st7735_wr_data8>
    2188:	0b200593          	li	a1,178
    218c:	00040513          	mv	a0,s0
    2190:	d45ff0ef          	jal	1ed4 <st7735_wr_cmd>
    2194:	00048593          	mv	a1,s1
    2198:	00040513          	mv	a0,s0
    219c:	925ff0ef          	jal	1ac0 <st7735_wr_data8>
    21a0:	02c00593          	li	a1,44
    21a4:	00040513          	mv	a0,s0
    21a8:	919ff0ef          	jal	1ac0 <st7735_wr_data8>
    21ac:	02d00593          	li	a1,45
    21b0:	00040513          	mv	a0,s0
    21b4:	90dff0ef          	jal	1ac0 <st7735_wr_data8>
    21b8:	0b300593          	li	a1,179
    21bc:	00040513          	mv	a0,s0
    21c0:	d15ff0ef          	jal	1ed4 <st7735_wr_cmd>
    21c4:	00048593          	mv	a1,s1
    21c8:	00040513          	mv	a0,s0
    21cc:	8f5ff0ef          	jal	1ac0 <st7735_wr_data8>
    21d0:	02c00593          	li	a1,44
    21d4:	00040513          	mv	a0,s0
    21d8:	8e9ff0ef          	jal	1ac0 <st7735_wr_data8>
    21dc:	02d00593          	li	a1,45
    21e0:	00040513          	mv	a0,s0
    21e4:	8ddff0ef          	jal	1ac0 <st7735_wr_data8>
    21e8:	00048593          	mv	a1,s1
    21ec:	00040513          	mv	a0,s0
    21f0:	8d1ff0ef          	jal	1ac0 <st7735_wr_data8>
    21f4:	02c00593          	li	a1,44
    21f8:	00040513          	mv	a0,s0
    21fc:	8c5ff0ef          	jal	1ac0 <st7735_wr_data8>
    2200:	02d00593          	li	a1,45
    2204:	00040513          	mv	a0,s0
    2208:	8b9ff0ef          	jal	1ac0 <st7735_wr_data8>
    220c:	0b400593          	li	a1,180
    2210:	00040513          	mv	a0,s0
    2214:	cc1ff0ef          	jal	1ed4 <st7735_wr_cmd>
    2218:	00700593          	li	a1,7
    221c:	00040513          	mv	a0,s0
    2220:	8a1ff0ef          	jal	1ac0 <st7735_wr_data8>
    2224:	0002d537          	lui	a0,0x2d
    2228:	79c50513          	addi	a0,a0,1948 # 2d79c <open_pcm+0xaf5c>
    222c:	df5fe0ef          	jal	1020 <printf>
    2230:	0c000593          	li	a1,192
    2234:	00040513          	mv	a0,s0
    2238:	c9dff0ef          	jal	1ed4 <st7735_wr_cmd>
    223c:	0a200593          	li	a1,162
    2240:	00040513          	mv	a0,s0
    2244:	87dff0ef          	jal	1ac0 <st7735_wr_data8>
    2248:	00200593          	li	a1,2
    224c:	00040513          	mv	a0,s0
    2250:	871ff0ef          	jal	1ac0 <st7735_wr_data8>
    2254:	08400593          	li	a1,132
    2258:	00040513          	mv	a0,s0
    225c:	865ff0ef          	jal	1ac0 <st7735_wr_data8>
    2260:	0c100593          	li	a1,193
    2264:	00040513          	mv	a0,s0
    2268:	c6dff0ef          	jal	1ed4 <st7735_wr_cmd>
    226c:	0c500593          	li	a1,197
    2270:	00040513          	mv	a0,s0
    2274:	84dff0ef          	jal	1ac0 <st7735_wr_data8>
    2278:	0c200593          	li	a1,194
    227c:	00040513          	mv	a0,s0
    2280:	c55ff0ef          	jal	1ed4 <st7735_wr_cmd>
    2284:	00a00593          	li	a1,10
    2288:	00040513          	mv	a0,s0
    228c:	835ff0ef          	jal	1ac0 <st7735_wr_data8>
    2290:	00000593          	li	a1,0
    2294:	00040513          	mv	a0,s0
    2298:	829ff0ef          	jal	1ac0 <st7735_wr_data8>
    229c:	0c300593          	li	a1,195
    22a0:	00040513          	mv	a0,s0
    22a4:	c31ff0ef          	jal	1ed4 <st7735_wr_cmd>
    22a8:	08a00593          	li	a1,138
    22ac:	00040513          	mv	a0,s0
    22b0:	811ff0ef          	jal	1ac0 <st7735_wr_data8>
    22b4:	02a00593          	li	a1,42
    22b8:	00040513          	mv	a0,s0
    22bc:	805ff0ef          	jal	1ac0 <st7735_wr_data8>
    22c0:	0c400593          	li	a1,196
    22c4:	00040513          	mv	a0,s0
    22c8:	c0dff0ef          	jal	1ed4 <st7735_wr_cmd>
    22cc:	08a00593          	li	a1,138
    22d0:	00040513          	mv	a0,s0
    22d4:	fecff0ef          	jal	1ac0 <st7735_wr_data8>
    22d8:	0ee00593          	li	a1,238
    22dc:	00040513          	mv	a0,s0
    22e0:	fe0ff0ef          	jal	1ac0 <st7735_wr_data8>
    22e4:	0c500593          	li	a1,197
    22e8:	00040513          	mv	a0,s0
    22ec:	be9ff0ef          	jal	1ed4 <st7735_wr_cmd>
    22f0:	00e00593          	li	a1,14
    22f4:	00040513          	mv	a0,s0
    22f8:	fc8ff0ef          	jal	1ac0 <st7735_wr_data8>
    22fc:	03600593          	li	a1,54
    2300:	00040513          	mv	a0,s0
    2304:	bd1ff0ef          	jal	1ed4 <st7735_wr_cmd>
    2308:	0002d537          	lui	a0,0x2d
    230c:	7b450513          	addi	a0,a0,1972 # 2d7b4 <open_pcm+0xaf74>
    2310:	d11fe0ef          	jal	1020 <printf>
    2314:	00c42783          	lw	a5,12(s0)
    2318:	0a800593          	li	a1,168
    231c:	00978e63          	beq	a5,s1,2338 <st7735_init+0x240>
    2320:	00200713          	li	a4,2
    2324:	00800593          	li	a1,8
    2328:	00e78863          	beq	a5,a4,2338 <st7735_init+0x240>
    232c:	0c800593          	li	a1,200
    2330:	00078463          	beqz	a5,2338 <st7735_init+0x240>
    2334:	06800593          	li	a1,104
    2338:	00040513          	mv	a0,s0
    233c:	f84ff0ef          	jal	1ac0 <st7735_wr_data8>
    2340:	00040513          	mv	a0,s0
    2344:	0e000593          	li	a1,224
    2348:	b8dff0ef          	jal	1ed4 <st7735_wr_cmd>
    234c:	00040513          	mv	a0,s0
    2350:	00f00593          	li	a1,15
    2354:	f6cff0ef          	jal	1ac0 <st7735_wr_data8>
    2358:	00040513          	mv	a0,s0
    235c:	01a00593          	li	a1,26
    2360:	f60ff0ef          	jal	1ac0 <st7735_wr_data8>
    2364:	00040513          	mv	a0,s0
    2368:	00f00593          	li	a1,15
    236c:	f54ff0ef          	jal	1ac0 <st7735_wr_data8>
    2370:	00040513          	mv	a0,s0
    2374:	01800593          	li	a1,24
    2378:	f48ff0ef          	jal	1ac0 <st7735_wr_data8>
    237c:	00040513          	mv	a0,s0
    2380:	02f00593          	li	a1,47
    2384:	f3cff0ef          	jal	1ac0 <st7735_wr_data8>
    2388:	00040513          	mv	a0,s0
    238c:	02800593          	li	a1,40
    2390:	f30ff0ef          	jal	1ac0 <st7735_wr_data8>
    2394:	00040513          	mv	a0,s0
    2398:	02000593          	li	a1,32
    239c:	f24ff0ef          	jal	1ac0 <st7735_wr_data8>
    23a0:	00040513          	mv	a0,s0
    23a4:	02200593          	li	a1,34
    23a8:	f18ff0ef          	jal	1ac0 <st7735_wr_data8>
    23ac:	00040513          	mv	a0,s0
    23b0:	01f00593          	li	a1,31
    23b4:	f0cff0ef          	jal	1ac0 <st7735_wr_data8>
    23b8:	00040513          	mv	a0,s0
    23bc:	01b00593          	li	a1,27
    23c0:	f00ff0ef          	jal	1ac0 <st7735_wr_data8>
    23c4:	00040513          	mv	a0,s0
    23c8:	02300593          	li	a1,35
    23cc:	ef4ff0ef          	jal	1ac0 <st7735_wr_data8>
    23d0:	00040513          	mv	a0,s0
    23d4:	03700593          	li	a1,55
    23d8:	ee8ff0ef          	jal	1ac0 <st7735_wr_data8>
    23dc:	00040513          	mv	a0,s0
    23e0:	00000593          	li	a1,0
    23e4:	edcff0ef          	jal	1ac0 <st7735_wr_data8>
    23e8:	00040513          	mv	a0,s0
    23ec:	00700593          	li	a1,7
    23f0:	ed0ff0ef          	jal	1ac0 <st7735_wr_data8>
    23f4:	00040513          	mv	a0,s0
    23f8:	00200593          	li	a1,2
    23fc:	ec4ff0ef          	jal	1ac0 <st7735_wr_data8>
    2400:	00040513          	mv	a0,s0
    2404:	01000593          	li	a1,16
    2408:	eb8ff0ef          	jal	1ac0 <st7735_wr_data8>
    240c:	00040513          	mv	a0,s0
    2410:	0e100593          	li	a1,225
    2414:	ac1ff0ef          	jal	1ed4 <st7735_wr_cmd>
    2418:	00040513          	mv	a0,s0
    241c:	00f00593          	li	a1,15
    2420:	ea0ff0ef          	jal	1ac0 <st7735_wr_data8>
    2424:	00040513          	mv	a0,s0
    2428:	01b00593          	li	a1,27
    242c:	e94ff0ef          	jal	1ac0 <st7735_wr_data8>
    2430:	00040513          	mv	a0,s0
    2434:	00f00593          	li	a1,15
    2438:	e88ff0ef          	jal	1ac0 <st7735_wr_data8>
    243c:	00040513          	mv	a0,s0
    2440:	01700593          	li	a1,23
    2444:	e7cff0ef          	jal	1ac0 <st7735_wr_data8>
    2448:	00040513          	mv	a0,s0
    244c:	03300593          	li	a1,51
    2450:	e70ff0ef          	jal	1ac0 <st7735_wr_data8>
    2454:	00040513          	mv	a0,s0
    2458:	02c00593          	li	a1,44
    245c:	e64ff0ef          	jal	1ac0 <st7735_wr_data8>
    2460:	00040513          	mv	a0,s0
    2464:	02900593          	li	a1,41
    2468:	e58ff0ef          	jal	1ac0 <st7735_wr_data8>
    246c:	00040513          	mv	a0,s0
    2470:	02e00593          	li	a1,46
    2474:	e4cff0ef          	jal	1ac0 <st7735_wr_data8>
    2478:	00040513          	mv	a0,s0
    247c:	03000593          	li	a1,48
    2480:	e40ff0ef          	jal	1ac0 <st7735_wr_data8>
    2484:	00040513          	mv	a0,s0
    2488:	03000593          	li	a1,48
    248c:	e34ff0ef          	jal	1ac0 <st7735_wr_data8>
    2490:	00040513          	mv	a0,s0
    2494:	03900593          	li	a1,57
    2498:	e28ff0ef          	jal	1ac0 <st7735_wr_data8>
    249c:	00040513          	mv	a0,s0
    24a0:	03f00593          	li	a1,63
    24a4:	e1cff0ef          	jal	1ac0 <st7735_wr_data8>
    24a8:	00040513          	mv	a0,s0
    24ac:	00000593          	li	a1,0
    24b0:	e10ff0ef          	jal	1ac0 <st7735_wr_data8>
    24b4:	00040513          	mv	a0,s0
    24b8:	00700593          	li	a1,7
    24bc:	e04ff0ef          	jal	1ac0 <st7735_wr_data8>
    24c0:	00040513          	mv	a0,s0
    24c4:	00300593          	li	a1,3
    24c8:	df8ff0ef          	jal	1ac0 <st7735_wr_data8>
    24cc:	01000593          	li	a1,16
    24d0:	00040513          	mv	a0,s0
    24d4:	decff0ef          	jal	1ac0 <st7735_wr_data8>
    24d8:	0002d537          	lui	a0,0x2d
    24dc:	7d050513          	addi	a0,a0,2000 # 2d7d0 <open_pcm+0xaf90>
    24e0:	b41fe0ef          	jal	1020 <printf>
    24e4:	00040513          	mv	a0,s0
    24e8:	0f000593          	li	a1,240
    24ec:	9e9ff0ef          	jal	1ed4 <st7735_wr_cmd>
    24f0:	00040513          	mv	a0,s0
    24f4:	00100593          	li	a1,1
    24f8:	dc8ff0ef          	jal	1ac0 <st7735_wr_data8>
    24fc:	00040513          	mv	a0,s0
    2500:	0f600593          	li	a1,246
    2504:	9d1ff0ef          	jal	1ed4 <st7735_wr_cmd>
    2508:	00040513          	mv	a0,s0
    250c:	00000593          	li	a1,0
    2510:	db0ff0ef          	jal	1ac0 <st7735_wr_data8>
    2514:	00040513          	mv	a0,s0
    2518:	03a00593          	li	a1,58
    251c:	9b9ff0ef          	jal	1ed4 <st7735_wr_cmd>
    2520:	00040513          	mv	a0,s0
    2524:	00500593          	li	a1,5
    2528:	d98ff0ef          	jal	1ac0 <st7735_wr_data8>
    252c:	00040513          	mv	a0,s0
    2530:	02900593          	li	a1,41
    2534:	9a1ff0ef          	jal	1ed4 <st7735_wr_cmd>
    2538:	08000713          	li	a4,128
    253c:	00040513          	mv	a0,s0
    2540:	fff00793          	li	a5,-1
    2544:	00070693          	mv	a3,a4
    2548:	00000613          	li	a2,0
    254c:	00000593          	li	a1,0
    2550:	a75ff0ef          	jal	1fc4 <st7735_fill>
    2554:	0002d537          	lui	a0,0x2d
    2558:	7ec50513          	addi	a0,a0,2028 # 2d7ec <open_pcm+0xafac>
    255c:	ac5fe0ef          	jal	1020 <printf>
    2560:	01c12083          	lw	ra,28(sp)
    2564:	01812403          	lw	s0,24(sp)
    2568:	01412483          	lw	s1,20(sp)
    256c:	02010113          	addi	sp,sp,32
    2570:	00008067          	ret

00002574 <st7735_fill_img>:
    2574:	fff70713          	addi	a4,a4,-1
    2578:	fff68693          	addi	a3,a3,-1
    257c:	00e60733          	add	a4,a2,a4
    2580:	00d586b3          	add	a3,a1,a3
    2584:	f8010113          	addi	sp,sp,-128
    2588:	01071713          	slli	a4,a4,0x10
    258c:	01069693          	slli	a3,a3,0x10
    2590:	06812c23          	sw	s0,120(sp)
    2594:	06912a23          	sw	s1,116(sp)
    2598:	00078413          	mv	s0,a5
    259c:	01075713          	srli	a4,a4,0x10
    25a0:	0106d693          	srli	a3,a3,0x10
    25a4:	000084b7          	lui	s1,0x8
    25a8:	07212823          	sw	s2,112(sp)
    25ac:	06112e23          	sw	ra,124(sp)
    25b0:	00050913          	mv	s2,a0
    25b4:	009404b3          	add	s1,s0,s1
    25b8:	94dff0ef          	jal	1f04 <st7735_addr_set>
    25bc:	07c42783          	lw	a5,124(s0)
    25c0:	00090513          	mv	a0,s2
    25c4:	08040413          	addi	s0,s0,128
    25c8:	06f12023          	sw	a5,96(sp)
    25cc:	ff842783          	lw	a5,-8(s0)
    25d0:	04f12e23          	sw	a5,92(sp)
    25d4:	ff442783          	lw	a5,-12(s0)
    25d8:	04f12c23          	sw	a5,88(sp)
    25dc:	ff042783          	lw	a5,-16(s0)
    25e0:	04f12a23          	sw	a5,84(sp)
    25e4:	fec42783          	lw	a5,-20(s0)
    25e8:	04f12823          	sw	a5,80(sp)
    25ec:	fe842783          	lw	a5,-24(s0)
    25f0:	04f12623          	sw	a5,76(sp)
    25f4:	fe442783          	lw	a5,-28(s0)
    25f8:	04f12423          	sw	a5,72(sp)
    25fc:	fe042783          	lw	a5,-32(s0)
    2600:	04f12223          	sw	a5,68(sp)
    2604:	fdc42783          	lw	a5,-36(s0)
    2608:	04f12023          	sw	a5,64(sp)
    260c:	fd842783          	lw	a5,-40(s0)
    2610:	02f12e23          	sw	a5,60(sp)
    2614:	fd442783          	lw	a5,-44(s0)
    2618:	02f12c23          	sw	a5,56(sp)
    261c:	fd042783          	lw	a5,-48(s0)
    2620:	02f12a23          	sw	a5,52(sp)
    2624:	fcc42783          	lw	a5,-52(s0)
    2628:	02f12823          	sw	a5,48(sp)
    262c:	fc842783          	lw	a5,-56(s0)
    2630:	02f12623          	sw	a5,44(sp)
    2634:	fc442783          	lw	a5,-60(s0)
    2638:	02f12423          	sw	a5,40(sp)
    263c:	fc042783          	lw	a5,-64(s0)
    2640:	02f12223          	sw	a5,36(sp)
    2644:	fbc42783          	lw	a5,-68(s0)
    2648:	02f12023          	sw	a5,32(sp)
    264c:	fb842783          	lw	a5,-72(s0)
    2650:	00f12e23          	sw	a5,28(sp)
    2654:	fb442783          	lw	a5,-76(s0)
    2658:	00f12c23          	sw	a5,24(sp)
    265c:	fb042783          	lw	a5,-80(s0)
    2660:	00f12a23          	sw	a5,20(sp)
    2664:	fac42783          	lw	a5,-84(s0)
    2668:	00f12823          	sw	a5,16(sp)
    266c:	fa842783          	lw	a5,-88(s0)
    2670:	00f12623          	sw	a5,12(sp)
    2674:	fa442783          	lw	a5,-92(s0)
    2678:	00f12423          	sw	a5,8(sp)
    267c:	fa042783          	lw	a5,-96(s0)
    2680:	00f12223          	sw	a5,4(sp)
    2684:	f9c42783          	lw	a5,-100(s0)
    2688:	00f12023          	sw	a5,0(sp)
    268c:	f9842883          	lw	a7,-104(s0)
    2690:	f9442803          	lw	a6,-108(s0)
    2694:	f9042783          	lw	a5,-112(s0)
    2698:	f8c42703          	lw	a4,-116(s0)
    269c:	f8842683          	lw	a3,-120(s0)
    26a0:	f8442603          	lw	a2,-124(s0)
    26a4:	f8042583          	lw	a1,-128(s0)
    26a8:	e48ff0ef          	jal	1cf0 <st7735_wr_data32x32>
    26ac:	f08498e3          	bne	s1,s0,25bc <st7735_fill_img+0x48>
    26b0:	07c12083          	lw	ra,124(sp)
    26b4:	07812403          	lw	s0,120(sp)
    26b8:	07412483          	lw	s1,116(sp)
    26bc:	07012903          	lw	s2,112(sp)
    26c0:	08010113          	addi	sp,sp,128
    26c4:	00008067          	ret

000026c8 <st7789_wr_data8>:
    26c8:	00052503          	lw	a0,0(a0)
    26cc:	ff010113          	addi	sp,sp,-16
    26d0:	00812423          	sw	s0,8(sp)
    26d4:	00058413          	mv	s0,a1
    26d8:	00100593          	li	a1,1
    26dc:	00112623          	sw	ra,12(sp)
    26e0:	dacfe0ef          	jal	c8c <gpio_set_level>
    26e4:	00040513          	mv	a0,s0
    26e8:	00812403          	lw	s0,8(sp)
    26ec:	00c12083          	lw	ra,12(sp)
    26f0:	01010113          	addi	sp,sp,16
    26f4:	c49fe06f          	j	133c <qspi_write_8>

000026f8 <st7789_wr_data16>:
    26f8:	00052503          	lw	a0,0(a0)
    26fc:	ff010113          	addi	sp,sp,-16
    2700:	00812423          	sw	s0,8(sp)
    2704:	00058413          	mv	s0,a1
    2708:	00100593          	li	a1,1
    270c:	00112623          	sw	ra,12(sp)
    2710:	d7cfe0ef          	jal	c8c <gpio_set_level>
    2714:	00040513          	mv	a0,s0
    2718:	00812403          	lw	s0,8(sp)
    271c:	00c12083          	lw	ra,12(sp)
    2720:	01010113          	addi	sp,sp,16
    2724:	c79fe06f          	j	139c <qspi_write_16>

00002728 <st7789_wr_data32>:
    2728:	00052503          	lw	a0,0(a0)
    272c:	ff010113          	addi	sp,sp,-16
    2730:	00812423          	sw	s0,8(sp)
    2734:	00058413          	mv	s0,a1
    2738:	00100593          	li	a1,1
    273c:	00112623          	sw	ra,12(sp)
    2740:	d4cfe0ef          	jal	c8c <gpio_set_level>
    2744:	00040513          	mv	a0,s0
    2748:	00812403          	lw	s0,8(sp)
    274c:	00c12083          	lw	ra,12(sp)
    2750:	01010113          	addi	sp,sp,16
    2754:	ca1fe06f          	j	13f4 <qspi_write_32>

00002758 <st7789_wr_data32x2>:
    2758:	00052503          	lw	a0,0(a0)
    275c:	fe010113          	addi	sp,sp,-32
    2760:	00812c23          	sw	s0,24(sp)
    2764:	00058413          	mv	s0,a1
    2768:	00100593          	li	a1,1
    276c:	00112e23          	sw	ra,28(sp)
    2770:	00c12623          	sw	a2,12(sp)
    2774:	d18fe0ef          	jal	c8c <gpio_set_level>
    2778:	00040513          	mv	a0,s0
    277c:	01812403          	lw	s0,24(sp)
    2780:	00c12583          	lw	a1,12(sp)
    2784:	01c12083          	lw	ra,28(sp)
    2788:	02010113          	addi	sp,sp,32
    278c:	cb9fe06f          	j	1444 <qspi_write_32x2>

00002790 <st7789_wr_data32x8>:
    2790:	fd010113          	addi	sp,sp,-48
    2794:	01112623          	sw	a7,12(sp)
    2798:	00052503          	lw	a0,0(a0)
    279c:	03012883          	lw	a7,48(sp)
    27a0:	02812423          	sw	s0,40(sp)
    27a4:	00058413          	mv	s0,a1
    27a8:	00100593          	li	a1,1
    27ac:	02912223          	sw	s1,36(sp)
    27b0:	02112623          	sw	ra,44(sp)
    27b4:	00060493          	mv	s1,a2
    27b8:	00d12e23          	sw	a3,28(sp)
    27bc:	00e12c23          	sw	a4,24(sp)
    27c0:	00f12a23          	sw	a5,20(sp)
    27c4:	01012823          	sw	a6,16(sp)
    27c8:	01112423          	sw	a7,8(sp)
    27cc:	cc0fe0ef          	jal	c8c <gpio_set_level>
    27d0:	00040513          	mv	a0,s0
    27d4:	02812403          	lw	s0,40(sp)
    27d8:	00812883          	lw	a7,8(sp)
    27dc:	00c12803          	lw	a6,12(sp)
    27e0:	01012783          	lw	a5,16(sp)
    27e4:	01412703          	lw	a4,20(sp)
    27e8:	01812683          	lw	a3,24(sp)
    27ec:	01c12603          	lw	a2,28(sp)
    27f0:	02c12083          	lw	ra,44(sp)
    27f4:	00048593          	mv	a1,s1
    27f8:	02412483          	lw	s1,36(sp)
    27fc:	03010113          	addi	sp,sp,48
    2800:	c71fe06f          	j	1470 <qspi_write_32x8>

00002804 <st7789_wr_data32x16>:
    2804:	fb010113          	addi	sp,sp,-80
    2808:	04812423          	sw	s0,72(sp)
    280c:	01112623          	sw	a7,12(sp)
    2810:	05412403          	lw	s0,84(sp)
    2814:	05012883          	lw	a7,80(sp)
    2818:	00052503          	lw	a0,0(a0)
    281c:	04912223          	sw	s1,68(sp)
    2820:	05212023          	sw	s2,64(sp)
    2824:	03312e23          	sw	s3,60(sp)
    2828:	03412c23          	sw	s4,56(sp)
    282c:	03512a23          	sw	s5,52(sp)
    2830:	03612823          	sw	s6,48(sp)
    2834:	03712623          	sw	s7,44(sp)
    2838:	05812483          	lw	s1,88(sp)
    283c:	05c12903          	lw	s2,92(sp)
    2840:	06012983          	lw	s3,96(sp)
    2844:	06412a03          	lw	s4,100(sp)
    2848:	06812a83          	lw	s5,104(sp)
    284c:	06c12b03          	lw	s6,108(sp)
    2850:	07012b83          	lw	s7,112(sp)
    2854:	03812423          	sw	s8,40(sp)
    2858:	00058c13          	mv	s8,a1
    285c:	00100593          	li	a1,1
    2860:	03912223          	sw	s9,36(sp)
    2864:	04112623          	sw	ra,76(sp)
    2868:	00060c93          	mv	s9,a2
    286c:	00d12e23          	sw	a3,28(sp)
    2870:	00e12c23          	sw	a4,24(sp)
    2874:	00f12a23          	sw	a5,20(sp)
    2878:	01012823          	sw	a6,16(sp)
    287c:	01112423          	sw	a7,8(sp)
    2880:	c0cfe0ef          	jal	c8c <gpio_set_level>
    2884:	04812823          	sw	s0,80(sp)
    2888:	04812403          	lw	s0,72(sp)
    288c:	07712623          	sw	s7,108(sp)
    2890:	07612423          	sw	s6,104(sp)
    2894:	07512223          	sw	s5,100(sp)
    2898:	07412023          	sw	s4,96(sp)
    289c:	05312e23          	sw	s3,92(sp)
    28a0:	05212c23          	sw	s2,88(sp)
    28a4:	04912a23          	sw	s1,84(sp)
    28a8:	00812883          	lw	a7,8(sp)
    28ac:	00c12803          	lw	a6,12(sp)
    28b0:	01012783          	lw	a5,16(sp)
    28b4:	01412703          	lw	a4,20(sp)
    28b8:	01812683          	lw	a3,24(sp)
    28bc:	01c12603          	lw	a2,28(sp)
    28c0:	04c12083          	lw	ra,76(sp)
    28c4:	04412483          	lw	s1,68(sp)
    28c8:	04012903          	lw	s2,64(sp)
    28cc:	03c12983          	lw	s3,60(sp)
    28d0:	03812a03          	lw	s4,56(sp)
    28d4:	03412a83          	lw	s5,52(sp)
    28d8:	03012b03          	lw	s6,48(sp)
    28dc:	02c12b83          	lw	s7,44(sp)
    28e0:	000c8593          	mv	a1,s9
    28e4:	000c0513          	mv	a0,s8
    28e8:	02412c83          	lw	s9,36(sp)
    28ec:	02812c03          	lw	s8,40(sp)
    28f0:	05010113          	addi	sp,sp,80
    28f4:	c09fe06f          	j	14fc <qspi_write_32x16>

000028f8 <st7789_wr_data32x32>:
    28f8:	f7010113          	addi	sp,sp,-144
    28fc:	05112623          	sw	a7,76(sp)
    2900:	09012883          	lw	a7,144(sp)
    2904:	08112623          	sw	ra,140(sp)
    2908:	08812423          	sw	s0,136(sp)
    290c:	08912223          	sw	s1,132(sp)
    2910:	09212023          	sw	s2,128(sp)
    2914:	07312e23          	sw	s3,124(sp)
    2918:	07412c23          	sw	s4,120(sp)
    291c:	07512a23          	sw	s5,116(sp)
    2920:	07612823          	sw	s6,112(sp)
    2924:	07712623          	sw	s7,108(sp)
    2928:	07812423          	sw	s8,104(sp)
    292c:	07a12023          	sw	s10,96(sp)
    2930:	05b12e23          	sw	s11,92(sp)
    2934:	07912223          	sw	s9,100(sp)
    2938:	09412403          	lw	s0,148(sp)
    293c:	09812483          	lw	s1,152(sp)
    2940:	09c12903          	lw	s2,156(sp)
    2944:	0a012983          	lw	s3,160(sp)
    2948:	0a412a03          	lw	s4,164(sp)
    294c:	0a812a83          	lw	s5,168(sp)
    2950:	0ac12b03          	lw	s6,172(sp)
    2954:	0b012b83          	lw	s7,176(sp)
    2958:	0b412c03          	lw	s8,180(sp)
    295c:	01012c23          	sw	a6,24(sp)
    2960:	05112423          	sw	a7,72(sp)
    2964:	00b12223          	sw	a1,4(sp)
    2968:	00c12423          	sw	a2,8(sp)
    296c:	00d12623          	sw	a3,12(sp)
    2970:	00e12823          	sw	a4,16(sp)
    2974:	00f12a23          	sw	a5,20(sp)
    2978:	0b812c83          	lw	s9,184(sp)
    297c:	0c412783          	lw	a5,196(sp)
    2980:	0c812703          	lw	a4,200(sp)
    2984:	0cc12683          	lw	a3,204(sp)
    2988:	0d012603          	lw	a2,208(sp)
    298c:	0d812303          	lw	t1,216(sp)
    2990:	0dc12e03          	lw	t3,220(sp)
    2994:	0e012e83          	lw	t4,224(sp)
    2998:	0e412f03          	lw	t5,228(sp)
    299c:	0e812f83          	lw	t6,232(sp)
    29a0:	0ec12283          	lw	t0,236(sp)
    29a4:	0f012383          	lw	t2,240(sp)
    29a8:	04f12223          	sw	a5,68(sp)
    29ac:	00052503          	lw	a0,0(a0)
    29b0:	0d412783          	lw	a5,212(sp)
    29b4:	00100593          	li	a1,1
    29b8:	0bc12d03          	lw	s10,188(sp)
    29bc:	0c012d83          	lw	s11,192(sp)
    29c0:	04e12023          	sw	a4,64(sp)
    29c4:	02d12e23          	sw	a3,60(sp)
    29c8:	02c12c23          	sw	a2,56(sp)
    29cc:	00f12023          	sw	a5,0(sp)
    29d0:	02612a23          	sw	t1,52(sp)
    29d4:	03c12823          	sw	t3,48(sp)
    29d8:	03d12623          	sw	t4,44(sp)
    29dc:	03e12423          	sw	t5,40(sp)
    29e0:	03f12223          	sw	t6,36(sp)
    29e4:	02512023          	sw	t0,32(sp)
    29e8:	00712e23          	sw	t2,28(sp)
    29ec:	aa0fe0ef          	jal	c8c <gpio_set_level>
    29f0:	00012783          	lw	a5,0(sp)
    29f4:	03812603          	lw	a2,56(sp)
    29f8:	03c12683          	lw	a3,60(sp)
    29fc:	04012703          	lw	a4,64(sp)
    2a00:	01c12383          	lw	t2,28(sp)
    2a04:	02012283          	lw	t0,32(sp)
    2a08:	02412f83          	lw	t6,36(sp)
    2a0c:	02812f03          	lw	t5,40(sp)
    2a10:	02c12e83          	lw	t4,44(sp)
    2a14:	03012e03          	lw	t3,48(sp)
    2a18:	03412303          	lw	t1,52(sp)
    2a1c:	0cf12823          	sw	a5,208(sp)
    2a20:	04412783          	lw	a5,68(sp)
    2a24:	0cc12623          	sw	a2,204(sp)
    2a28:	0cd12423          	sw	a3,200(sp)
    2a2c:	0ce12223          	sw	a4,196(sp)
    2a30:	0cf12023          	sw	a5,192(sp)
    2a34:	0bb12e23          	sw	s11,188(sp)
    2a38:	0ba12c23          	sw	s10,184(sp)
    2a3c:	0b912a23          	sw	s9,180(sp)
    2a40:	0b812823          	sw	s8,176(sp)
    2a44:	0b712623          	sw	s7,172(sp)
    2a48:	0b612423          	sw	s6,168(sp)
    2a4c:	0b512223          	sw	s5,164(sp)
    2a50:	0b412023          	sw	s4,160(sp)
    2a54:	0e712623          	sw	t2,236(sp)
    2a58:	0e512423          	sw	t0,232(sp)
    2a5c:	0ff12223          	sw	t6,228(sp)
    2a60:	0fe12023          	sw	t5,224(sp)
    2a64:	0dd12e23          	sw	t4,220(sp)
    2a68:	0dc12c23          	sw	t3,216(sp)
    2a6c:	0c612a23          	sw	t1,212(sp)
    2a70:	09312e23          	sw	s3,156(sp)
    2a74:	08812823          	sw	s0,144(sp)
    2a78:	08812403          	lw	s0,136(sp)
    2a7c:	09212c23          	sw	s2,152(sp)
    2a80:	08912a23          	sw	s1,148(sp)
    2a84:	04812883          	lw	a7,72(sp)
    2a88:	04c12803          	lw	a6,76(sp)
    2a8c:	01812783          	lw	a5,24(sp)
    2a90:	01412703          	lw	a4,20(sp)
    2a94:	01012683          	lw	a3,16(sp)
    2a98:	00c12603          	lw	a2,12(sp)
    2a9c:	00812583          	lw	a1,8(sp)
    2aa0:	00412503          	lw	a0,4(sp)
    2aa4:	08c12083          	lw	ra,140(sp)
    2aa8:	08412483          	lw	s1,132(sp)
    2aac:	08012903          	lw	s2,128(sp)
    2ab0:	07c12983          	lw	s3,124(sp)
    2ab4:	07812a03          	lw	s4,120(sp)
    2ab8:	07412a83          	lw	s5,116(sp)
    2abc:	07012b03          	lw	s6,112(sp)
    2ac0:	06c12b83          	lw	s7,108(sp)
    2ac4:	06812c03          	lw	s8,104(sp)
    2ac8:	06412c83          	lw	s9,100(sp)
    2acc:	06012d03          	lw	s10,96(sp)
    2ad0:	05c12d83          	lw	s11,92(sp)
    2ad4:	09010113          	addi	sp,sp,144
    2ad8:	b31fe06f          	j	1608 <qspi_write_32x32>

00002adc <st7789_wr_cmd>:
    2adc:	00052503          	lw	a0,0(a0)
    2ae0:	ff010113          	addi	sp,sp,-16
    2ae4:	00812423          	sw	s0,8(sp)
    2ae8:	00058413          	mv	s0,a1
    2aec:	00000593          	li	a1,0
    2af0:	00112623          	sw	ra,12(sp)
    2af4:	998fe0ef          	jal	c8c <gpio_set_level>
    2af8:	00040513          	mv	a0,s0
    2afc:	00812403          	lw	s0,8(sp)
    2b00:	00c12083          	lw	ra,12(sp)
    2b04:	01010113          	addi	sp,sp,16
    2b08:	835fe06f          	j	133c <qspi_write_8>

00002b0c <st7789_init>:
    2b0c:	ff010113          	addi	sp,sp,-16
    2b10:	00812423          	sw	s0,8(sp)
    2b14:	00050413          	mv	s0,a0
    2b18:	00452503          	lw	a0,4(a0)
    2b1c:	00000593          	li	a1,0
    2b20:	00112623          	sw	ra,12(sp)
    2b24:	968fe0ef          	jal	c8c <gpio_set_level>
    2b28:	06400513          	li	a0,100
    2b2c:	fb9fd0ef          	jal	ae4 <delay_ms>
    2b30:	00442503          	lw	a0,4(s0)
    2b34:	00100593          	li	a1,1
    2b38:	954fe0ef          	jal	c8c <gpio_set_level>
    2b3c:	06400513          	li	a0,100
    2b40:	fa5fd0ef          	jal	ae4 <delay_ms>
    2b44:	01100593          	li	a1,17
    2b48:	00040513          	mv	a0,s0
    2b4c:	f91ff0ef          	jal	2adc <st7789_wr_cmd>
    2b50:	07800513          	li	a0,120
    2b54:	f91fd0ef          	jal	ae4 <delay_ms>
    2b58:	03600593          	li	a1,54
    2b5c:	00040513          	mv	a0,s0
    2b60:	f7dff0ef          	jal	2adc <st7789_wr_cmd>
    2b64:	01042783          	lw	a5,16(s0)
    2b68:	00000593          	li	a1,0
    2b6c:	02078063          	beqz	a5,2b8c <st7789_init+0x80>
    2b70:	00100713          	li	a4,1
    2b74:	0c000593          	li	a1,192
    2b78:	00e78a63          	beq	a5,a4,2b8c <st7789_init+0x80>
    2b7c:	00200713          	li	a4,2
    2b80:	07000593          	li	a1,112
    2b84:	00e78463          	beq	a5,a4,2b8c <st7789_init+0x80>
    2b88:	0a000593          	li	a1,160
    2b8c:	00040513          	mv	a0,s0
    2b90:	b39ff0ef          	jal	26c8 <st7789_wr_data8>
    2b94:	00040513          	mv	a0,s0
    2b98:	03a00593          	li	a1,58
    2b9c:	f41ff0ef          	jal	2adc <st7789_wr_cmd>
    2ba0:	00040513          	mv	a0,s0
    2ba4:	00500593          	li	a1,5
    2ba8:	b21ff0ef          	jal	26c8 <st7789_wr_data8>
    2bac:	00040513          	mv	a0,s0
    2bb0:	0b200593          	li	a1,178
    2bb4:	f29ff0ef          	jal	2adc <st7789_wr_cmd>
    2bb8:	00040513          	mv	a0,s0
    2bbc:	00c00593          	li	a1,12
    2bc0:	b09ff0ef          	jal	26c8 <st7789_wr_data8>
    2bc4:	00040513          	mv	a0,s0
    2bc8:	00c00593          	li	a1,12
    2bcc:	afdff0ef          	jal	26c8 <st7789_wr_data8>
    2bd0:	00040513          	mv	a0,s0
    2bd4:	00000593          	li	a1,0
    2bd8:	af1ff0ef          	jal	26c8 <st7789_wr_data8>
    2bdc:	00040513          	mv	a0,s0
    2be0:	03300593          	li	a1,51
    2be4:	ae5ff0ef          	jal	26c8 <st7789_wr_data8>
    2be8:	00040513          	mv	a0,s0
    2bec:	03300593          	li	a1,51
    2bf0:	ad9ff0ef          	jal	26c8 <st7789_wr_data8>
    2bf4:	00040513          	mv	a0,s0
    2bf8:	0b700593          	li	a1,183
    2bfc:	ee1ff0ef          	jal	2adc <st7789_wr_cmd>
    2c00:	00040513          	mv	a0,s0
    2c04:	03500593          	li	a1,53
    2c08:	ac1ff0ef          	jal	26c8 <st7789_wr_data8>
    2c0c:	00040513          	mv	a0,s0
    2c10:	0bb00593          	li	a1,187
    2c14:	ec9ff0ef          	jal	2adc <st7789_wr_cmd>
    2c18:	00040513          	mv	a0,s0
    2c1c:	01900593          	li	a1,25
    2c20:	aa9ff0ef          	jal	26c8 <st7789_wr_data8>
    2c24:	00040513          	mv	a0,s0
    2c28:	0c000593          	li	a1,192
    2c2c:	eb1ff0ef          	jal	2adc <st7789_wr_cmd>
    2c30:	00040513          	mv	a0,s0
    2c34:	02c00593          	li	a1,44
    2c38:	a91ff0ef          	jal	26c8 <st7789_wr_data8>
    2c3c:	00040513          	mv	a0,s0
    2c40:	0c200593          	li	a1,194
    2c44:	e99ff0ef          	jal	2adc <st7789_wr_cmd>
    2c48:	00040513          	mv	a0,s0
    2c4c:	00100593          	li	a1,1
    2c50:	a79ff0ef          	jal	26c8 <st7789_wr_data8>
    2c54:	00040513          	mv	a0,s0
    2c58:	0c300593          	li	a1,195
    2c5c:	e81ff0ef          	jal	2adc <st7789_wr_cmd>
    2c60:	00040513          	mv	a0,s0
    2c64:	01200593          	li	a1,18
    2c68:	a61ff0ef          	jal	26c8 <st7789_wr_data8>
    2c6c:	00040513          	mv	a0,s0
    2c70:	0c400593          	li	a1,196
    2c74:	e69ff0ef          	jal	2adc <st7789_wr_cmd>
    2c78:	00040513          	mv	a0,s0
    2c7c:	02000593          	li	a1,32
    2c80:	a49ff0ef          	jal	26c8 <st7789_wr_data8>
    2c84:	00040513          	mv	a0,s0
    2c88:	0c600593          	li	a1,198
    2c8c:	e51ff0ef          	jal	2adc <st7789_wr_cmd>
    2c90:	00040513          	mv	a0,s0
    2c94:	00f00593          	li	a1,15
    2c98:	a31ff0ef          	jal	26c8 <st7789_wr_data8>
    2c9c:	00040513          	mv	a0,s0
    2ca0:	0d000593          	li	a1,208
    2ca4:	e39ff0ef          	jal	2adc <st7789_wr_cmd>
    2ca8:	00040513          	mv	a0,s0
    2cac:	0a400593          	li	a1,164
    2cb0:	a19ff0ef          	jal	26c8 <st7789_wr_data8>
    2cb4:	00040513          	mv	a0,s0
    2cb8:	0a100593          	li	a1,161
    2cbc:	a0dff0ef          	jal	26c8 <st7789_wr_data8>
    2cc0:	00040513          	mv	a0,s0
    2cc4:	0e000593          	li	a1,224
    2cc8:	e15ff0ef          	jal	2adc <st7789_wr_cmd>
    2ccc:	00040513          	mv	a0,s0
    2cd0:	0d000593          	li	a1,208
    2cd4:	9f5ff0ef          	jal	26c8 <st7789_wr_data8>
    2cd8:	00040513          	mv	a0,s0
    2cdc:	00400593          	li	a1,4
    2ce0:	9e9ff0ef          	jal	26c8 <st7789_wr_data8>
    2ce4:	00040513          	mv	a0,s0
    2ce8:	00d00593          	li	a1,13
    2cec:	9ddff0ef          	jal	26c8 <st7789_wr_data8>
    2cf0:	00040513          	mv	a0,s0
    2cf4:	01100593          	li	a1,17
    2cf8:	9d1ff0ef          	jal	26c8 <st7789_wr_data8>
    2cfc:	00040513          	mv	a0,s0
    2d00:	01300593          	li	a1,19
    2d04:	9c5ff0ef          	jal	26c8 <st7789_wr_data8>
    2d08:	00040513          	mv	a0,s0
    2d0c:	02b00593          	li	a1,43
    2d10:	9b9ff0ef          	jal	26c8 <st7789_wr_data8>
    2d14:	00040513          	mv	a0,s0
    2d18:	03f00593          	li	a1,63
    2d1c:	9adff0ef          	jal	26c8 <st7789_wr_data8>
    2d20:	00040513          	mv	a0,s0
    2d24:	05400593          	li	a1,84
    2d28:	9a1ff0ef          	jal	26c8 <st7789_wr_data8>
    2d2c:	00040513          	mv	a0,s0
    2d30:	04c00593          	li	a1,76
    2d34:	995ff0ef          	jal	26c8 <st7789_wr_data8>
    2d38:	00040513          	mv	a0,s0
    2d3c:	01800593          	li	a1,24
    2d40:	989ff0ef          	jal	26c8 <st7789_wr_data8>
    2d44:	00040513          	mv	a0,s0
    2d48:	00d00593          	li	a1,13
    2d4c:	97dff0ef          	jal	26c8 <st7789_wr_data8>
    2d50:	00040513          	mv	a0,s0
    2d54:	00b00593          	li	a1,11
    2d58:	971ff0ef          	jal	26c8 <st7789_wr_data8>
    2d5c:	00040513          	mv	a0,s0
    2d60:	01f00593          	li	a1,31
    2d64:	965ff0ef          	jal	26c8 <st7789_wr_data8>
    2d68:	00040513          	mv	a0,s0
    2d6c:	02300593          	li	a1,35
    2d70:	959ff0ef          	jal	26c8 <st7789_wr_data8>
    2d74:	00040513          	mv	a0,s0
    2d78:	0e100593          	li	a1,225
    2d7c:	d61ff0ef          	jal	2adc <st7789_wr_cmd>
    2d80:	00040513          	mv	a0,s0
    2d84:	0d000593          	li	a1,208
    2d88:	941ff0ef          	jal	26c8 <st7789_wr_data8>
    2d8c:	00040513          	mv	a0,s0
    2d90:	00400593          	li	a1,4
    2d94:	935ff0ef          	jal	26c8 <st7789_wr_data8>
    2d98:	00040513          	mv	a0,s0
    2d9c:	00c00593          	li	a1,12
    2da0:	929ff0ef          	jal	26c8 <st7789_wr_data8>
    2da4:	00040513          	mv	a0,s0
    2da8:	01100593          	li	a1,17
    2dac:	91dff0ef          	jal	26c8 <st7789_wr_data8>
    2db0:	00040513          	mv	a0,s0
    2db4:	01300593          	li	a1,19
    2db8:	911ff0ef          	jal	26c8 <st7789_wr_data8>
    2dbc:	00040513          	mv	a0,s0
    2dc0:	02c00593          	li	a1,44
    2dc4:	905ff0ef          	jal	26c8 <st7789_wr_data8>
    2dc8:	00040513          	mv	a0,s0
    2dcc:	03f00593          	li	a1,63
    2dd0:	8f9ff0ef          	jal	26c8 <st7789_wr_data8>
    2dd4:	00040513          	mv	a0,s0
    2dd8:	04400593          	li	a1,68
    2ddc:	8edff0ef          	jal	26c8 <st7789_wr_data8>
    2de0:	00040513          	mv	a0,s0
    2de4:	05100593          	li	a1,81
    2de8:	8e1ff0ef          	jal	26c8 <st7789_wr_data8>
    2dec:	00040513          	mv	a0,s0
    2df0:	02f00593          	li	a1,47
    2df4:	8d5ff0ef          	jal	26c8 <st7789_wr_data8>
    2df8:	00040513          	mv	a0,s0
    2dfc:	01f00593          	li	a1,31
    2e00:	8c9ff0ef          	jal	26c8 <st7789_wr_data8>
    2e04:	00040513          	mv	a0,s0
    2e08:	01f00593          	li	a1,31
    2e0c:	8bdff0ef          	jal	26c8 <st7789_wr_data8>
    2e10:	00040513          	mv	a0,s0
    2e14:	02000593          	li	a1,32
    2e18:	8b1ff0ef          	jal	26c8 <st7789_wr_data8>
    2e1c:	00040513          	mv	a0,s0
    2e20:	02300593          	li	a1,35
    2e24:	8a5ff0ef          	jal	26c8 <st7789_wr_data8>
    2e28:	00040513          	mv	a0,s0
    2e2c:	02100593          	li	a1,33
    2e30:	cadff0ef          	jal	2adc <st7789_wr_cmd>
    2e34:	00040513          	mv	a0,s0
    2e38:	00812403          	lw	s0,8(sp)
    2e3c:	00c12083          	lw	ra,12(sp)
    2e40:	02900593          	li	a1,41
    2e44:	01010113          	addi	sp,sp,16
    2e48:	c95ff06f          	j	2adc <st7789_wr_cmd>

00002e4c <st7789_addr_set>:
    2e4c:	01052783          	lw	a5,16(a0)
    2e50:	fd010113          	addi	sp,sp,-48
    2e54:	02812423          	sw	s0,40(sp)
    2e58:	02912223          	sw	s1,36(sp)
    2e5c:	03212023          	sw	s2,32(sp)
    2e60:	01312e23          	sw	s3,28(sp)
    2e64:	01412c23          	sw	s4,24(sp)
    2e68:	01512a23          	sw	s5,20(sp)
    2e6c:	01612823          	sw	s6,16(sp)
    2e70:	01712623          	sw	s7,12(sp)
    2e74:	01812423          	sw	s8,8(sp)
    2e78:	02112623          	sw	ra,44(sp)
    2e7c:	00050c13          	mv	s8,a0
    2e80:	00058993          	mv	s3,a1
    2e84:	00060493          	mv	s1,a2
    2e88:	00068913          	mv	s2,a3
    2e8c:	00070413          	mv	s0,a4
    2e90:	0ff5fb93          	zext.b	s7,a1
    2e94:	0ff6fb13          	zext.b	s6,a3
    2e98:	0ff67a93          	zext.b	s5,a2
    2e9c:	0ff77a13          	zext.b	s4,a4
    2ea0:	06079c63          	bnez	a5,2f18 <st7789_addr_set+0xcc>
    2ea4:	02a00593          	li	a1,42
    2ea8:	000c0513          	mv	a0,s8
    2eac:	c31ff0ef          	jal	2adc <st7789_wr_cmd>
    2eb0:	0089d593          	srli	a1,s3,0x8
    2eb4:	000c0513          	mv	a0,s8
    2eb8:	811ff0ef          	jal	26c8 <st7789_wr_data8>
    2ebc:	000b8593          	mv	a1,s7
    2ec0:	000c0513          	mv	a0,s8
    2ec4:	805ff0ef          	jal	26c8 <st7789_wr_data8>
    2ec8:	00895593          	srli	a1,s2,0x8
    2ecc:	000c0513          	mv	a0,s8
    2ed0:	ff8ff0ef          	jal	26c8 <st7789_wr_data8>
    2ed4:	000b0593          	mv	a1,s6
    2ed8:	000c0513          	mv	a0,s8
    2edc:	fecff0ef          	jal	26c8 <st7789_wr_data8>
    2ee0:	02b00593          	li	a1,43
    2ee4:	000c0513          	mv	a0,s8
    2ee8:	bf5ff0ef          	jal	2adc <st7789_wr_cmd>
    2eec:	0084d593          	srli	a1,s1,0x8
    2ef0:	000c0513          	mv	a0,s8
    2ef4:	fd4ff0ef          	jal	26c8 <st7789_wr_data8>
    2ef8:	000a8593          	mv	a1,s5
    2efc:	000c0513          	mv	a0,s8
    2f00:	fc8ff0ef          	jal	26c8 <st7789_wr_data8>
    2f04:	00845593          	srli	a1,s0,0x8
    2f08:	000c0513          	mv	a0,s8
    2f0c:	fbcff0ef          	jal	26c8 <st7789_wr_data8>
    2f10:	000a0593          	mv	a1,s4
    2f14:	0900006f          	j	2fa4 <st7789_addr_set+0x158>
    2f18:	00100713          	li	a4,1
    2f1c:	0ce79463          	bne	a5,a4,2fe4 <st7789_addr_set+0x198>
    2f20:	02a00593          	li	a1,42
    2f24:	bb9ff0ef          	jal	2adc <st7789_wr_cmd>
    2f28:	0089d593          	srli	a1,s3,0x8
    2f2c:	000c0513          	mv	a0,s8
    2f30:	f98ff0ef          	jal	26c8 <st7789_wr_data8>
    2f34:	000b8593          	mv	a1,s7
    2f38:	000c0513          	mv	a0,s8
    2f3c:	f8cff0ef          	jal	26c8 <st7789_wr_data8>
    2f40:	00895593          	srli	a1,s2,0x8
    2f44:	000c0513          	mv	a0,s8
    2f48:	f80ff0ef          	jal	26c8 <st7789_wr_data8>
    2f4c:	000b0593          	mv	a1,s6
    2f50:	000c0513          	mv	a0,s8
    2f54:	f74ff0ef          	jal	26c8 <st7789_wr_data8>
    2f58:	02b00593          	li	a1,43
    2f5c:	000c0513          	mv	a0,s8
    2f60:	b7dff0ef          	jal	2adc <st7789_wr_cmd>
    2f64:	05048593          	addi	a1,s1,80 # 8050 <close_test_pcm+0x45d0>
    2f68:	4085d593          	srai	a1,a1,0x8
    2f6c:	0ff5f593          	zext.b	a1,a1
    2f70:	000c0513          	mv	a0,s8
    2f74:	f54ff0ef          	jal	26c8 <st7789_wr_data8>
    2f78:	050a8593          	addi	a1,s5,80
    2f7c:	0ff5f593          	zext.b	a1,a1
    2f80:	000c0513          	mv	a0,s8
    2f84:	f44ff0ef          	jal	26c8 <st7789_wr_data8>
    2f88:	05040593          	addi	a1,s0,80
    2f8c:	4085d593          	srai	a1,a1,0x8
    2f90:	0ff5f593          	zext.b	a1,a1
    2f94:	000c0513          	mv	a0,s8
    2f98:	f30ff0ef          	jal	26c8 <st7789_wr_data8>
    2f9c:	050a0593          	addi	a1,s4,80
    2fa0:	0ff5f593          	zext.b	a1,a1
    2fa4:	000c0513          	mv	a0,s8
    2fa8:	f20ff0ef          	jal	26c8 <st7789_wr_data8>
    2fac:	02812403          	lw	s0,40(sp)
    2fb0:	02c12083          	lw	ra,44(sp)
    2fb4:	02412483          	lw	s1,36(sp)
    2fb8:	02012903          	lw	s2,32(sp)
    2fbc:	01c12983          	lw	s3,28(sp)
    2fc0:	01812a03          	lw	s4,24(sp)
    2fc4:	01412a83          	lw	s5,20(sp)
    2fc8:	01012b03          	lw	s6,16(sp)
    2fcc:	00c12b83          	lw	s7,12(sp)
    2fd0:	000c0513          	mv	a0,s8
    2fd4:	00812c03          	lw	s8,8(sp)
    2fd8:	02c00593          	li	a1,44
    2fdc:	03010113          	addi	sp,sp,48
    2fe0:	afdff06f          	j	2adc <st7789_wr_cmd>
    2fe4:	00200713          	li	a4,2
    2fe8:	eae78ee3          	beq	a5,a4,2ea4 <st7789_addr_set+0x58>
    2fec:	02a00593          	li	a1,42
    2ff0:	aedff0ef          	jal	2adc <st7789_wr_cmd>
    2ff4:	05098993          	addi	s3,s3,80
    2ff8:	4089d593          	srai	a1,s3,0x8
    2ffc:	0ff5f593          	zext.b	a1,a1
    3000:	000c0513          	mv	a0,s8
    3004:	ec4ff0ef          	jal	26c8 <st7789_wr_data8>
    3008:	050b8593          	addi	a1,s7,80
    300c:	0ff5f593          	zext.b	a1,a1
    3010:	000c0513          	mv	a0,s8
    3014:	eb4ff0ef          	jal	26c8 <st7789_wr_data8>
    3018:	05090913          	addi	s2,s2,80
    301c:	40895593          	srai	a1,s2,0x8
    3020:	0ff5f593          	zext.b	a1,a1
    3024:	000c0513          	mv	a0,s8
    3028:	ea0ff0ef          	jal	26c8 <st7789_wr_data8>
    302c:	050b0593          	addi	a1,s6,80
    3030:	0ff5f593          	zext.b	a1,a1
    3034:	ea5ff06f          	j	2ed8 <st7789_addr_set+0x8c>

00003038 <st7789_fill>:
    3038:	f6010113          	addi	sp,sp,-160
    303c:	08912a23          	sw	s1,148(sp)
    3040:	09212823          	sw	s2,144(sp)
    3044:	00068493          	mv	s1,a3
    3048:	00070913          	mv	s2,a4
    304c:	fff68693          	addi	a3,a3,-1
    3050:	fff70713          	addi	a4,a4,-1
    3054:	01071713          	slli	a4,a4,0x10
    3058:	01069693          	slli	a3,a3,0x10
    305c:	08812c23          	sw	s0,152(sp)
    3060:	01075713          	srli	a4,a4,0x10
    3064:	01079413          	slli	s0,a5,0x10
    3068:	0106d693          	srli	a3,a3,0x10
    306c:	09312623          	sw	s3,140(sp)
    3070:	06b12e23          	sw	a1,124(sp)
    3074:	06c12c23          	sw	a2,120(sp)
    3078:	08112e23          	sw	ra,156(sp)
    307c:	00050993          	mv	s3,a0
    3080:	00f46433          	or	s0,s0,a5
    3084:	dc9ff0ef          	jal	2e4c <st7789_addr_set>
    3088:	07c12583          	lw	a1,124(sp)
    308c:	07812603          	lw	a2,120(sp)
    3090:	40b484b3          	sub	s1,s1,a1
    3094:	40c90933          	sub	s2,s2,a2
    3098:	032484b3          	mul	s1,s1,s2
    309c:	00000913          	li	s2,0
    30a0:	02994063          	blt	s2,s1,30c0 <st7789_fill+0x88>
    30a4:	09c12083          	lw	ra,156(sp)
    30a8:	09812403          	lw	s0,152(sp)
    30ac:	09412483          	lw	s1,148(sp)
    30b0:	09012903          	lw	s2,144(sp)
    30b4:	08c12983          	lw	s3,140(sp)
    30b8:	0a010113          	addi	sp,sp,160
    30bc:	00008067          	ret
    30c0:	04090913          	addi	s2,s2,64
    30c4:	00812c23          	sw	s0,24(sp)
    30c8:	00812a23          	sw	s0,20(sp)
    30cc:	00812823          	sw	s0,16(sp)
    30d0:	00812623          	sw	s0,12(sp)
    30d4:	00812423          	sw	s0,8(sp)
    30d8:	00812223          	sw	s0,4(sp)
    30dc:	00812023          	sw	s0,0(sp)
    30e0:	00040893          	mv	a7,s0
    30e4:	00040813          	mv	a6,s0
    30e8:	00040793          	mv	a5,s0
    30ec:	00040713          	mv	a4,s0
    30f0:	00040693          	mv	a3,s0
    30f4:	00040613          	mv	a2,s0
    30f8:	00040593          	mv	a1,s0
    30fc:	00098513          	mv	a0,s3
    3100:	01091913          	slli	s2,s2,0x10
    3104:	06812023          	sw	s0,96(sp)
    3108:	04812e23          	sw	s0,92(sp)
    310c:	04812c23          	sw	s0,88(sp)
    3110:	04812a23          	sw	s0,84(sp)
    3114:	04812823          	sw	s0,80(sp)
    3118:	04812623          	sw	s0,76(sp)
    311c:	04812423          	sw	s0,72(sp)
    3120:	04812223          	sw	s0,68(sp)
    3124:	04812023          	sw	s0,64(sp)
    3128:	02812e23          	sw	s0,60(sp)
    312c:	02812c23          	sw	s0,56(sp)
    3130:	02812a23          	sw	s0,52(sp)
    3134:	02812823          	sw	s0,48(sp)
    3138:	02812623          	sw	s0,44(sp)
    313c:	02812423          	sw	s0,40(sp)
    3140:	02812223          	sw	s0,36(sp)
    3144:	02812023          	sw	s0,32(sp)
    3148:	00812e23          	sw	s0,28(sp)
    314c:	01095913          	srli	s2,s2,0x10
    3150:	fa8ff0ef          	jal	28f8 <st7789_wr_data32x32>
    3154:	f4dff06f          	j	30a0 <st7789_fill+0x68>

00003158 <st7789_fill_img>:
    3158:	f7010113          	addi	sp,sp,-144
    315c:	08812423          	sw	s0,136(sp)
    3160:	08912223          	sw	s1,132(sp)
    3164:	00068413          	mv	s0,a3
    3168:	00070493          	mv	s1,a4
    316c:	02940433          	mul	s0,s0,s1
    3170:	07312e23          	sw	s3,124(sp)
    3174:	00078993          	mv	s3,a5
    3178:	fff70793          	addi	a5,a4,-1
    317c:	00f60733          	add	a4,a2,a5
    3180:	fff68793          	addi	a5,a3,-1
    3184:	00f586b3          	add	a3,a1,a5
    3188:	01071713          	slli	a4,a4,0x10
    318c:	01069693          	slli	a3,a3,0x10
    3190:	01075713          	srli	a4,a4,0x10
    3194:	0106d693          	srli	a3,a3,0x10
    3198:	09212023          	sw	s2,128(sp)
    319c:	08112623          	sw	ra,140(sp)
    31a0:	00050913          	mv	s2,a0
    31a4:	40145493          	srai	s1,s0,0x1
    31a8:	ca5ff0ef          	jal	2e4c <st7789_addr_set>
    31ac:	00000413          	li	s0,0
    31b0:	02944063          	blt	s0,s1,31d0 <st7789_fill_img+0x78>
    31b4:	08c12083          	lw	ra,140(sp)
    31b8:	08812403          	lw	s0,136(sp)
    31bc:	08412483          	lw	s1,132(sp)
    31c0:	08012903          	lw	s2,128(sp)
    31c4:	07c12983          	lw	s3,124(sp)
    31c8:	09010113          	addi	sp,sp,144
    31cc:	00008067          	ret
    31d0:	00241513          	slli	a0,s0,0x2
    31d4:	00a98533          	add	a0,s3,a0
    31d8:	07c52303          	lw	t1,124(a0)
    31dc:	01852883          	lw	a7,24(a0)
    31e0:	01452803          	lw	a6,20(a0)
    31e4:	01052783          	lw	a5,16(a0)
    31e8:	00c52703          	lw	a4,12(a0)
    31ec:	00852683          	lw	a3,8(a0)
    31f0:	00452603          	lw	a2,4(a0)
    31f4:	00052583          	lw	a1,0(a0)
    31f8:	06612023          	sw	t1,96(sp)
    31fc:	07852303          	lw	t1,120(a0)
    3200:	02040413          	addi	s0,s0,32
    3204:	01041413          	slli	s0,s0,0x10
    3208:	04612e23          	sw	t1,92(sp)
    320c:	07452303          	lw	t1,116(a0)
    3210:	01045413          	srli	s0,s0,0x10
    3214:	04612c23          	sw	t1,88(sp)
    3218:	07052303          	lw	t1,112(a0)
    321c:	04612a23          	sw	t1,84(sp)
    3220:	06c52303          	lw	t1,108(a0)
    3224:	04612823          	sw	t1,80(sp)
    3228:	06852303          	lw	t1,104(a0)
    322c:	04612623          	sw	t1,76(sp)
    3230:	06452303          	lw	t1,100(a0)
    3234:	04612423          	sw	t1,72(sp)
    3238:	06052303          	lw	t1,96(a0)
    323c:	04612223          	sw	t1,68(sp)
    3240:	05c52303          	lw	t1,92(a0)
    3244:	04612023          	sw	t1,64(sp)
    3248:	05852303          	lw	t1,88(a0)
    324c:	02612e23          	sw	t1,60(sp)
    3250:	05452303          	lw	t1,84(a0)
    3254:	02612c23          	sw	t1,56(sp)
    3258:	05052303          	lw	t1,80(a0)
    325c:	02612a23          	sw	t1,52(sp)
    3260:	04c52303          	lw	t1,76(a0)
    3264:	02612823          	sw	t1,48(sp)
    3268:	04852303          	lw	t1,72(a0)
    326c:	02612623          	sw	t1,44(sp)
    3270:	04452303          	lw	t1,68(a0)
    3274:	02612423          	sw	t1,40(sp)
    3278:	04052303          	lw	t1,64(a0)
    327c:	02612223          	sw	t1,36(sp)
    3280:	03c52303          	lw	t1,60(a0)
    3284:	02612023          	sw	t1,32(sp)
    3288:	03852303          	lw	t1,56(a0)
    328c:	00612e23          	sw	t1,28(sp)
    3290:	03452303          	lw	t1,52(a0)
    3294:	00612c23          	sw	t1,24(sp)
    3298:	03052303          	lw	t1,48(a0)
    329c:	00612a23          	sw	t1,20(sp)
    32a0:	02c52303          	lw	t1,44(a0)
    32a4:	00612823          	sw	t1,16(sp)
    32a8:	02852303          	lw	t1,40(a0)
    32ac:	00612623          	sw	t1,12(sp)
    32b0:	02452303          	lw	t1,36(a0)
    32b4:	00612423          	sw	t1,8(sp)
    32b8:	02052303          	lw	t1,32(a0)
    32bc:	00612223          	sw	t1,4(sp)
    32c0:	01c52503          	lw	a0,28(a0)
    32c4:	00a12023          	sw	a0,0(sp)
    32c8:	00090513          	mv	a0,s2
    32cc:	e2cff0ef          	jal	28f8 <st7789_wr_data32x32>
    32d0:	ee1ff06f          	j	31b0 <st7789_fill_img+0x58>

000032d4 <sensirion_crc8.constprop.0>:
    32d4:	00054783          	lbu	a5,0(a0)
    32d8:	0002d737          	lui	a4,0x2d
    32dc:	48470713          	addi	a4,a4,1156 # 2d484 <open_pcm+0xac44>
    32e0:	0ff7c793          	xori	a5,a5,255
    32e4:	00e787b3          	add	a5,a5,a4
    32e8:	00154683          	lbu	a3,1(a0)
    32ec:	0007c783          	lbu	a5,0(a5)
    32f0:	00d7c7b3          	xor	a5,a5,a3
    32f4:	00e787b3          	add	a5,a5,a4
    32f8:	0007c503          	lbu	a0,0(a5)
    32fc:	00008067          	ret

00003300 <sgp30_read_serial_id>:
    3300:	02051463          	bnez	a0,3328 <sgp30_read_serial_id+0x28>
    3304:	00000513          	li	a0,0
    3308:	00008067          	ret
    330c:	00000513          	li	a0,0
    3310:	01c12083          	lw	ra,28(sp)
    3314:	01812403          	lw	s0,24(sp)
    3318:	01412483          	lw	s1,20(sp)
    331c:	01012903          	lw	s2,16(sp)
    3320:	02010113          	addi	sp,sp,32
    3324:	00008067          	ret
    3328:	fe010113          	addi	sp,sp,-32
    332c:	000035b7          	lui	a1,0x3
    3330:	00912a23          	sw	s1,20(sp)
    3334:	00900713          	li	a4,9
    3338:	00050493          	mv	s1,a0
    333c:	00410693          	addi	a3,sp,4
    3340:	01000613          	li	a2,16
    3344:	68258593          	addi	a1,a1,1666 # 3682 <sgp30_set_humidity+0xa>
    3348:	05800513          	li	a0,88
    334c:	00812c23          	sw	s0,24(sp)
    3350:	01212823          	sw	s2,16(sp)
    3354:	00112e23          	sw	ra,28(sp)
    3358:	00012223          	sw	zero,4(sp)
    335c:	00012423          	sw	zero,8(sp)
    3360:	00010623          	sb	zero,12(sp)
    3364:	00410413          	addi	s0,sp,4
    3368:	e28fe0ef          	jal	1990 <i2c_read_nbyte>
    336c:	00d10913          	addi	s2,sp,13
    3370:	00040513          	mv	a0,s0
    3374:	f61ff0ef          	jal	32d4 <sensirion_crc8.constprop.0>
    3378:	00244783          	lbu	a5,2(s0)
    337c:	f8a798e3          	bne	a5,a0,330c <sgp30_read_serial_id+0xc>
    3380:	00340413          	addi	s0,s0,3
    3384:	fe8916e3          	bne	s2,s0,3370 <sgp30_read_serial_id+0x70>
    3388:	00414783          	lbu	a5,4(sp)
    338c:	00714683          	lbu	a3,7(sp)
    3390:	00514603          	lbu	a2,5(sp)
    3394:	00879713          	slli	a4,a5,0x8
    3398:	00b14783          	lbu	a5,11(sp)
    339c:	01869693          	slli	a3,a3,0x18
    33a0:	00100513          	li	a0,1
    33a4:	00d7e7b3          	or	a5,a5,a3
    33a8:	00814683          	lbu	a3,8(sp)
    33ac:	01069693          	slli	a3,a3,0x10
    33b0:	00d7e7b3          	or	a5,a5,a3
    33b4:	00a14683          	lbu	a3,10(sp)
    33b8:	00869693          	slli	a3,a3,0x8
    33bc:	00d7e7b3          	or	a5,a5,a3
    33c0:	00f4a023          	sw	a5,0(s1)
    33c4:	00c767b3          	or	a5,a4,a2
    33c8:	00f4a223          	sw	a5,4(s1)
    33cc:	f45ff06f          	j	3310 <sgp30_read_serial_id+0x10>

000033d0 <sgp30_read_feature_set>:
    33d0:	02051063          	bnez	a0,33f0 <sgp30_read_feature_set+0x20>
    33d4:	00000513          	li	a0,0
    33d8:	00008067          	ret
    33dc:	00000513          	li	a0,0
    33e0:	01c12083          	lw	ra,28(sp)
    33e4:	01812403          	lw	s0,24(sp)
    33e8:	02010113          	addi	sp,sp,32
    33ec:	00008067          	ret
    33f0:	fe010113          	addi	sp,sp,-32
    33f4:	000025b7          	lui	a1,0x2
    33f8:	00812c23          	sw	s0,24(sp)
    33fc:	00300713          	li	a4,3
    3400:	00c10693          	addi	a3,sp,12
    3404:	01000613          	li	a2,16
    3408:	02f58593          	addi	a1,a1,47 # 202f <st7735_fill+0x6b>
    340c:	00050413          	mv	s0,a0
    3410:	05800513          	li	a0,88
    3414:	00112e23          	sw	ra,28(sp)
    3418:	00011623          	sh	zero,12(sp)
    341c:	00010723          	sb	zero,14(sp)
    3420:	d70fe0ef          	jal	1990 <i2c_read_nbyte>
    3424:	00c10513          	addi	a0,sp,12
    3428:	eadff0ef          	jal	32d4 <sensirion_crc8.constprop.0>
    342c:	00e14783          	lbu	a5,14(sp)
    3430:	faa796e3          	bne	a5,a0,33dc <sgp30_read_feature_set+0xc>
    3434:	00c15783          	lhu	a5,12(sp)
    3438:	00100513          	li	a0,1
    343c:	0087d713          	srli	a4,a5,0x8
    3440:	00879793          	slli	a5,a5,0x8
    3444:	00f707b3          	add	a5,a4,a5
    3448:	00f41023          	sh	a5,0(s0)
    344c:	f95ff06f          	j	33e0 <sgp30_read_feature_set+0x10>

00003450 <sgp30_init_air_quality>:
    3450:	000025b7          	lui	a1,0x2
    3454:	ff010113          	addi	sp,sp,-16
    3458:	05800513          	li	a0,88
    345c:	00000713          	li	a4,0
    3460:	00000693          	li	a3,0
    3464:	01000613          	li	a2,16
    3468:	00358593          	addi	a1,a1,3 # 2003 <st7735_fill+0x3f>
    346c:	00112623          	sw	ra,12(sp)
    3470:	c64fe0ef          	jal	18d4 <i2c_write_nbyte>
    3474:	00c12083          	lw	ra,12(sp)
    3478:	00100513          	li	a0,1
    347c:	01010113          	addi	sp,sp,16
    3480:	00008067          	ret

00003484 <sgp30_measure_air_quality>:
    3484:	02051063          	bnez	a0,34a4 <sgp30_measure_air_quality+0x20>
    3488:	00000513          	li	a0,0
    348c:	00008067          	ret
    3490:	00000513          	li	a0,0
    3494:	01c12083          	lw	ra,28(sp)
    3498:	01812403          	lw	s0,24(sp)
    349c:	02010113          	addi	sp,sp,32
    34a0:	00008067          	ret
    34a4:	fe010113          	addi	sp,sp,-32
    34a8:	00812c23          	sw	s0,24(sp)
    34ac:	00050413          	mv	s0,a0
    34b0:	00c00513          	li	a0,12
    34b4:	00112e23          	sw	ra,28(sp)
    34b8:	00012423          	sw	zero,8(sp)
    34bc:	00011623          	sh	zero,12(sp)
    34c0:	e24fd0ef          	jal	ae4 <delay_ms>
    34c4:	000025b7          	lui	a1,0x2
    34c8:	00600713          	li	a4,6
    34cc:	00810693          	addi	a3,sp,8
    34d0:	01000613          	li	a2,16
    34d4:	00858593          	addi	a1,a1,8 # 2008 <st7735_fill+0x44>
    34d8:	05800513          	li	a0,88
    34dc:	cb4fe0ef          	jal	1990 <i2c_read_nbyte>
    34e0:	00810513          	addi	a0,sp,8
    34e4:	df1ff0ef          	jal	32d4 <sensirion_crc8.constprop.0>
    34e8:	00a14783          	lbu	a5,10(sp)
    34ec:	faa792e3          	bne	a5,a0,3490 <sgp30_measure_air_quality+0xc>
    34f0:	00b10513          	addi	a0,sp,11
    34f4:	de1ff0ef          	jal	32d4 <sensirion_crc8.constprop.0>
    34f8:	00d14783          	lbu	a5,13(sp)
    34fc:	f8a79ae3          	bne	a5,a0,3490 <sgp30_measure_air_quality+0xc>
    3500:	00815783          	lhu	a5,8(sp)
    3504:	00100513          	li	a0,1
    3508:	0087d713          	srli	a4,a5,0x8
    350c:	00879793          	slli	a5,a5,0x8
    3510:	00f707b3          	add	a5,a4,a5
    3514:	00f41023          	sh	a5,0(s0)
    3518:	00c14783          	lbu	a5,12(sp)
    351c:	00b14703          	lbu	a4,11(sp)
    3520:	00879793          	slli	a5,a5,0x8
    3524:	00e7e733          	or	a4,a5,a4
    3528:	00871713          	slli	a4,a4,0x8
    352c:	0087d793          	srli	a5,a5,0x8
    3530:	00e787b3          	add	a5,a5,a4
    3534:	00f41123          	sh	a5,2(s0)
    3538:	f5dff06f          	j	3494 <sgp30_measure_air_quality+0x10>

0000353c <sgp30_get_baseline>:
    353c:	02051063          	bnez	a0,355c <sgp30_get_baseline+0x20>
    3540:	00000513          	li	a0,0
    3544:	00008067          	ret
    3548:	00000513          	li	a0,0
    354c:	01c12083          	lw	ra,28(sp)
    3550:	01812403          	lw	s0,24(sp)
    3554:	02010113          	addi	sp,sp,32
    3558:	00008067          	ret
    355c:	fe010113          	addi	sp,sp,-32
    3560:	00812c23          	sw	s0,24(sp)
    3564:	00050413          	mv	s0,a0
    3568:	00a00513          	li	a0,10
    356c:	00112e23          	sw	ra,28(sp)
    3570:	00012423          	sw	zero,8(sp)
    3574:	00011623          	sh	zero,12(sp)
    3578:	d6cfd0ef          	jal	ae4 <delay_ms>
    357c:	000025b7          	lui	a1,0x2
    3580:	00600713          	li	a4,6
    3584:	00810693          	addi	a3,sp,8
    3588:	01000613          	li	a2,16
    358c:	01558593          	addi	a1,a1,21 # 2015 <st7735_fill+0x51>
    3590:	05800513          	li	a0,88
    3594:	bfcfe0ef          	jal	1990 <i2c_read_nbyte>
    3598:	00810513          	addi	a0,sp,8
    359c:	d39ff0ef          	jal	32d4 <sensirion_crc8.constprop.0>
    35a0:	00a14783          	lbu	a5,10(sp)
    35a4:	faa792e3          	bne	a5,a0,3548 <sgp30_get_baseline+0xc>
    35a8:	00b10513          	addi	a0,sp,11
    35ac:	d29ff0ef          	jal	32d4 <sensirion_crc8.constprop.0>
    35b0:	00d14783          	lbu	a5,13(sp)
    35b4:	f8a79ae3          	bne	a5,a0,3548 <sgp30_get_baseline+0xc>
    35b8:	00815783          	lhu	a5,8(sp)
    35bc:	00100513          	li	a0,1
    35c0:	0087d713          	srli	a4,a5,0x8
    35c4:	00879793          	slli	a5,a5,0x8
    35c8:	00f707b3          	add	a5,a4,a5
    35cc:	00f41023          	sh	a5,0(s0)
    35d0:	00c14783          	lbu	a5,12(sp)
    35d4:	00b14703          	lbu	a4,11(sp)
    35d8:	00879793          	slli	a5,a5,0x8
    35dc:	00e7e733          	or	a4,a5,a4
    35e0:	00871713          	slli	a4,a4,0x8
    35e4:	0087d793          	srli	a5,a5,0x8
    35e8:	00e787b3          	add	a5,a5,a4
    35ec:	00f41123          	sh	a5,2(s0)
    35f0:	f5dff06f          	j	354c <sgp30_get_baseline+0x10>

000035f4 <sgp30_set_baseline>:
    35f4:	08050063          	beqz	a0,3674 <sgp30_set_baseline+0x80>
    35f8:	00255783          	lhu	a5,2(a0)
    35fc:	fe010113          	addi	sp,sp,-32
    3600:	00812c23          	sw	s0,24(sp)
    3604:	0087d713          	srli	a4,a5,0x8
    3608:	00879793          	slli	a5,a5,0x8
    360c:	00f707b3          	add	a5,a4,a5
    3610:	00050413          	mv	s0,a0
    3614:	00810513          	addi	a0,sp,8
    3618:	00112e23          	sw	ra,28(sp)
    361c:	00f11423          	sh	a5,8(sp)
    3620:	cb5ff0ef          	jal	32d4 <sensirion_crc8.constprop.0>
    3624:	00045783          	lhu	a5,0(s0)
    3628:	00a10523          	sb	a0,10(sp)
    362c:	00b10513          	addi	a0,sp,11
    3630:	0087d713          	srli	a4,a5,0x8
    3634:	00e105a3          	sb	a4,11(sp)
    3638:	00f10623          	sb	a5,12(sp)
    363c:	c99ff0ef          	jal	32d4 <sensirion_crc8.constprop.0>
    3640:	000025b7          	lui	a1,0x2
    3644:	00a106a3          	sb	a0,13(sp)
    3648:	00810693          	addi	a3,sp,8
    364c:	05800513          	li	a0,88
    3650:	00600713          	li	a4,6
    3654:	01000613          	li	a2,16
    3658:	01e58593          	addi	a1,a1,30 # 201e <st7735_fill+0x5a>
    365c:	a78fe0ef          	jal	18d4 <i2c_write_nbyte>
    3660:	01c12083          	lw	ra,28(sp)
    3664:	01812403          	lw	s0,24(sp)
    3668:	00100513          	li	a0,1
    366c:	02010113          	addi	sp,sp,32
    3670:	00008067          	ret
    3674:	00008067          	ret

00003678 <sgp30_set_humidity>:
    3678:	fe010113          	addi	sp,sp,-32
    367c:	00855793          	srli	a5,a0,0x8
    3680:	00851513          	slli	a0,a0,0x8
    3684:	00a787b3          	add	a5,a5,a0
    3688:	00c10513          	addi	a0,sp,12
    368c:	00112e23          	sw	ra,28(sp)
    3690:	00f11623          	sh	a5,12(sp)
    3694:	c41ff0ef          	jal	32d4 <sensirion_crc8.constprop.0>
    3698:	000025b7          	lui	a1,0x2
    369c:	00a10723          	sb	a0,14(sp)
    36a0:	00c10693          	addi	a3,sp,12
    36a4:	05800513          	li	a0,88
    36a8:	00300713          	li	a4,3
    36ac:	01000613          	li	a2,16
    36b0:	06158593          	addi	a1,a1,97 # 2061 <st7735_fill+0x9d>
    36b4:	a20fe0ef          	jal	18d4 <i2c_write_nbyte>
    36b8:	01c12083          	lw	ra,28(sp)
    36bc:	00100513          	li	a0,1
    36c0:	02010113          	addi	sp,sp,32
    36c4:	00008067          	ret

000036c8 <sgp30_measure_test>:
    36c8:	02051063          	bnez	a0,36e8 <sgp30_measure_test+0x20>
    36cc:	00000513          	li	a0,0
    36d0:	00008067          	ret
    36d4:	00000513          	li	a0,0
    36d8:	01c12083          	lw	ra,28(sp)
    36dc:	01812403          	lw	s0,24(sp)
    36e0:	02010113          	addi	sp,sp,32
    36e4:	00008067          	ret
    36e8:	fe010113          	addi	sp,sp,-32
    36ec:	00812c23          	sw	s0,24(sp)
    36f0:	00050413          	mv	s0,a0
    36f4:	0dc00513          	li	a0,220
    36f8:	00112e23          	sw	ra,28(sp)
    36fc:	00011623          	sh	zero,12(sp)
    3700:	00010723          	sb	zero,14(sp)
    3704:	be0fd0ef          	jal	ae4 <delay_ms>
    3708:	000025b7          	lui	a1,0x2
    370c:	00300713          	li	a4,3
    3710:	00c10693          	addi	a3,sp,12
    3714:	01000613          	li	a2,16
    3718:	03258593          	addi	a1,a1,50 # 2032 <st7735_fill+0x6e>
    371c:	05800513          	li	a0,88
    3720:	a70fe0ef          	jal	1990 <i2c_read_nbyte>
    3724:	00c10513          	addi	a0,sp,12
    3728:	badff0ef          	jal	32d4 <sensirion_crc8.constprop.0>
    372c:	00e14783          	lbu	a5,14(sp)
    3730:	faa792e3          	bne	a5,a0,36d4 <sgp30_measure_test+0xc>
    3734:	00c15783          	lhu	a5,12(sp)
    3738:	00100513          	li	a0,1
    373c:	0087d713          	srli	a4,a5,0x8
    3740:	00879793          	slli	a5,a5,0x8
    3744:	00f707b3          	add	a5,a4,a5
    3748:	00f41023          	sh	a5,0(s0)
    374c:	f8dff06f          	j	36d8 <sgp30_measure_test+0x10>

00003750 <main>:
    3750:	fd010113          	addi	sp,sp,-48
    3754:	02112623          	sw	ra,44(sp)
    3758:	02812423          	sw	s0,40(sp)
    375c:	03212023          	sw	s2,32(sp)
    3760:	01312e23          	sw	s3,28(sp)
    3764:	02912223          	sw	s1,36(sp)
    3768:	01412c23          	sw	s4,24(sp)
    376c:	01512a23          	sw	s5,20(sp)
    3770:	01612823          	sw	s6,16(sp)
    3774:	01712623          	sw	s7,12(sp)
    3778:	01812423          	sw	s8,8(sp)
    377c:	01912223          	sw	s9,4(sp)
    3780:	af5fd0ef          	jal	1274 <sys_uart_init>
    3784:	0002d537          	lui	a0,0x2d
    3788:	5bc50513          	addi	a0,a0,1468 # 2d5bc <open_pcm+0xad7c>
    378c:	895fd0ef          	jal	1020 <printf>
    3790:	0002d537          	lui	a0,0x2d
    3794:	300187b7          	lui	a5,0x30018
    3798:	5e450513          	addi	a0,a0,1508 # 2d5e4 <open_pcm+0xada4>
    379c:	d007a023          	sw	zero,-768(a5) # 30017d00 <heap_offset>
    37a0:	881fd0ef          	jal	1020 <printf>
    37a4:	0002e7b7          	lui	a5,0x2e
    37a8:	8087a583          	lw	a1,-2040(a5) # 2d808 <open_pcm_len>
    37ac:	00023537          	lui	a0,0x23
    37b0:	84050513          	addi	a0,a0,-1984 # 22840 <open_pcm>
    37b4:	0015d593          	srli	a1,a1,0x1
    37b8:	c35fc0ef          	jal	3ec <extract_features_fixed>
    37bc:	0002e7b7          	lui	a5,0x2e
    37c0:	8047a583          	lw	a1,-2044(a5) # 2d804 <close_pcm_len>
    37c4:	00050913          	mv	s2,a0
    37c8:	00017537          	lui	a0,0x17
    37cc:	0015d593          	srli	a1,a1,0x1
    37d0:	70050513          	addi	a0,a0,1792 # 17700 <close_pcm>
    37d4:	c19fc0ef          	jal	3ec <extract_features_fixed>
    37d8:	0002e7b7          	lui	a5,0x2e
    37dc:	8007a583          	lw	a1,-2048(a5) # 2d800 <open_test_pcm_len>
    37e0:	00050993          	mv	s3,a0
    37e4:	0000e537          	lui	a0,0xe
    37e8:	0015d593          	srli	a1,a1,0x1
    37ec:	e0050513          	addi	a0,a0,-512 # de00 <open_test_pcm>
    37f0:	bfdfc0ef          	jal	3ec <extract_features_fixed>
    37f4:	0002d7b7          	lui	a5,0x2d
    37f8:	7fc7a583          	lw	a1,2044(a5) # 2d7fc <close_test_pcm_len>
    37fc:	00050413          	mv	s0,a0
    3800:	00004537          	lui	a0,0x4
    3804:	0015d593          	srli	a1,a1,0x1
    3808:	a8050513          	addi	a0,a0,-1408 # 3a80 <close_test_pcm>
    380c:	be1fc0ef          	jal	3ec <extract_features_fixed>
    3810:	00193793          	seqz	a5,s2
    3814:	0019b713          	seqz	a4,s3
    3818:	00f76733          	or	a4,a4,a5
    381c:	00143793          	seqz	a5,s0
    3820:	00e7e7b3          	or	a5,a5,a4
    3824:	00079663          	bnez	a5,3830 <main+0xe0>
    3828:	00050a13          	mv	s4,a0
    382c:	04051063          	bnez	a0,386c <main+0x11c>
    3830:	02812403          	lw	s0,40(sp)
    3834:	02c12083          	lw	ra,44(sp)
    3838:	02412483          	lw	s1,36(sp)
    383c:	02012903          	lw	s2,32(sp)
    3840:	01c12983          	lw	s3,28(sp)
    3844:	01812a03          	lw	s4,24(sp)
    3848:	01412a83          	lw	s5,20(sp)
    384c:	01012b03          	lw	s6,16(sp)
    3850:	00c12b83          	lw	s7,12(sp)
    3854:	00812c03          	lw	s8,8(sp)
    3858:	00412c83          	lw	s9,4(sp)
    385c:	0002d537          	lui	a0,0x2d
    3860:	5fc50513          	addi	a0,a0,1532 # 2d5fc <open_pcm+0xadbc>
    3864:	03010113          	addi	sp,sp,48
    3868:	fb8fd06f          	j	1020 <printf>
    386c:	0002d537          	lui	a0,0x2d
    3870:	62850513          	addi	a0,a0,1576 # 2d628 <open_pcm+0xade8>
    3874:	facfd0ef          	jal	1020 <printf>
    3878:	00090593          	mv	a1,s2
    387c:	00040513          	mv	a0,s0
    3880:	8f5fc0ef          	jal	174 <compute_dtw_distance_fixed>
    3884:	00050493          	mv	s1,a0
    3888:	00098593          	mv	a1,s3
    388c:	00040513          	mv	a0,s0
    3890:	8e5fc0ef          	jal	174 <compute_dtw_distance_fixed>
    3894:	00050613          	mv	a2,a0
    3898:	10a4d663          	bge	s1,a0,39a4 <main+0x254>
    389c:	0002d6b7          	lui	a3,0x2d
    38a0:	5ac68693          	addi	a3,a3,1452 # 2d5ac <open_pcm+0xad6c>
    38a4:	0002d437          	lui	s0,0x2d
    38a8:	00048593          	mv	a1,s1
    38ac:	64c40513          	addi	a0,s0,1612 # 2d64c <open_pcm+0xae0c>
    38b0:	f70fd0ef          	jal	1020 <printf>
    38b4:	0002d537          	lui	a0,0x2d
    38b8:	68050513          	addi	a0,a0,1664 # 2d680 <open_pcm+0xae40>
    38bc:	f64fd0ef          	jal	1020 <printf>
    38c0:	00090593          	mv	a1,s2
    38c4:	000a0513          	mv	a0,s4
    38c8:	8adfc0ef          	jal	174 <compute_dtw_distance_fixed>
    38cc:	00050493          	mv	s1,a0
    38d0:	00098593          	mv	a1,s3
    38d4:	000a0513          	mv	a0,s4
    38d8:	89dfc0ef          	jal	174 <compute_dtw_distance_fixed>
    38dc:	00050613          	mv	a2,a0
    38e0:	0c955863          	bge	a0,s1,39b0 <main+0x260>
    38e4:	0002d6b7          	lui	a3,0x2d
    38e8:	5b468693          	addi	a3,a3,1460 # 2d5b4 <open_pcm+0xad74>
    38ec:	00048593          	mv	a1,s1
    38f0:	64c40513          	addi	a0,s0,1612
    38f4:	f2cfd0ef          	jal	1020 <printf>
    38f8:	0002d537          	lui	a0,0x2d
    38fc:	6a450513          	addi	a0,a0,1700 # 2d6a4 <open_pcm+0xae64>
    3900:	f20fd0ef          	jal	1020 <printf>
    3904:	934fd0ef          	jal	a38 <adc_init>
    3908:	0002d7b7          	lui	a5,0x2d
    390c:	6b878a93          	addi	s5,a5,1720 # 2d6b8 <open_pcm+0xae78>
    3910:	300007b7          	lui	a5,0x30000
    3914:	00078b13          	mv	s6,a5
    3918:	0002d7b7          	lui	a5,0x2d
    391c:	0002d4b7          	lui	s1,0x2d
    3920:	6c878c13          	addi	s8,a5,1736 # 2d6c8 <open_pcm+0xae88>
    3924:	64c40b93          	addi	s7,s0,1612
    3928:	00d00513          	li	a0,13
    392c:	b94fd0ef          	jal	cc0 <gpio_get_level>
    3930:	04051c63          	bnez	a0,3988 <main+0x238>
    3934:	000a8513          	mv	a0,s5
    3938:	ee8fd0ef          	jal	1020 <printf>
    393c:	000045b7          	lui	a1,0x4
    3940:	e8058593          	addi	a1,a1,-384 # 3e80 <close_test_pcm+0x400>
    3944:	000b0513          	mv	a0,s6
    3948:	aa5fc0ef          	jal	3ec <extract_features_fixed>
    394c:	00090593          	mv	a1,s2
    3950:	00050c93          	mv	s9,a0
    3954:	821fc0ef          	jal	174 <compute_dtw_distance_fixed>
    3958:	00050a13          	mv	s4,a0
    395c:	00098593          	mv	a1,s3
    3960:	000c8513          	mv	a0,s9
    3964:	811fc0ef          	jal	174 <compute_dtw_distance_fixed>
    3968:	00050613          	mv	a2,a0
    396c:	5b448693          	addi	a3,s1,1460 # 2d5b4 <open_pcm+0xad74>
    3970:	00aa5663          	bge	s4,a0,397c <main+0x22c>
    3974:	0002d6b7          	lui	a3,0x2d
    3978:	5ac68693          	addi	a3,a3,1452 # 2d5ac <open_pcm+0xad6c>
    397c:	000a0593          	mv	a1,s4
    3980:	000b8513          	mv	a0,s7
    3984:	e9cfd0ef          	jal	1020 <printf>
    3988:	00e00513          	li	a0,14
    398c:	b34fd0ef          	jal	cc0 <gpio_get_level>
    3990:	f8051ce3          	bnez	a0,3928 <main+0x1d8>
    3994:	000c0513          	mv	a0,s8
    3998:	e88fd0ef          	jal	1020 <printf>
    399c:	844fd0ef          	jal	9e0 <ADC_read>
    39a0:	f85ff06f          	j	3924 <main+0x1d4>
    39a4:	0002d6b7          	lui	a3,0x2d
    39a8:	5b468693          	addi	a3,a3,1460 # 2d5b4 <open_pcm+0xad74>
    39ac:	ef9ff06f          	j	38a4 <main+0x154>
    39b0:	0002d6b7          	lui	a3,0x2d
    39b4:	5ac68693          	addi	a3,a3,1452 # 2d5ac <open_pcm+0xad6c>
    39b8:	f35ff06f          	j	38ec <main+0x19c>
    39bc:	0000                	.insn	2, 0x0000
	...

000039c0 <SIN_TABLE_128>:
    39c0:	0000 0648 0c8c 12c8 18f9 1f1a 2528 2b1f     ..H.........(%.+
    39d0:	30fb 36ba 3c56 41ce 471c 4c3f 5133 55f5     .0.6V<.A.G?L3Q.U
    39e0:	5a82 5ed7 62f1 66cf 6a6d 6dc9 70e2 73b5     .Z.^.b.fmj.m.p.s
    39f0:	7641 7884 7a7c 7c29 7d89 7e9c 7f61 7fd8     Av.x|z)|.}.~a...
    3a00:	7fff 7fd8 7f61 7e9c 7d89 7c29 7a7c 7884     ....a..~.})||z.x
    3a10:	7641 73b5 70e2 6dc9 6a6d 66cf 62f1 5ed7     Av.s.p.mmj.f.b.^
    3a20:	5a82 55f5 5133 4c3f 471c 41ce 3c56 36ba     .Z.U3Q?L.G.AV<.6
    3a30:	30fb 2b1f 2528 1f1a 18f9 12c8 0c8c 0648     .0.+(%........H.
    3a40:	0000 0000                                   ....

00003a44 <MEL_BIN_POINTS>:
    3a44:	0000 0000 0006 0000 000c 0000 0013 0000     ................
    3a54:	001b 0000 0023 0000 002b 0000 0033 0000     ....#...+...3...
    3a64:	003a 0000 0040 0000 0000 0000 0006 0000     :...@...........
    3a74:	0000 0000 0001 0000 0000 0000               ............

00003a80 <close_test_pcm>:
	...
    3ce8:	ffff 0000 0000 0000 0000 0000 0000 0000     ................
	...
    3d0c:	ffff 0000 0000 0000 0000 0000 0000 0001     ................
    3d1c:	0000 ffff 0000 0000 0001 0000 0000 0000     ................
    3d2c:	0000 0001 0000 0000 0001 ffff 0000 0000     ................
    3d3c:	0000 0000 0001 0000 0000 ffff ffff 0001     ................
    3d4c:	0001 fffe ffff 0001 ffff ffff 0000 0000     ................
    3d5c:	0000 ffff 0001 0001 ffff 0001 0002 0000     ................
    3d6c:	0000 0000 0001 0000 0002 ffff 0002 0002     ................
    3d7c:	0001 fffc ffff 0001 fffa fffd fffe fffd     ................
    3d8c:	fff1 fff6 fff6 fff7 fff1 fffe 0002 0000     ................
    3d9c:	ffff fffd 0003 0006 000b fffc 0002 fffa     ................
    3dac:	0002 fff9 fff7 fffa fffa ffef ffef ffe7     ................
    3dbc:	fffc fffa fff0 fffd 0002 fffb ffe5 fffc     ................
    3dcc:	0003 0014 0000 0008 0009 0016 fff9 0010     ................
    3ddc:	001b 0026 0011 000c fffb fff4 fff5 0000     ..&.............
    3dec:	fff9 fff1 fffd ffdf ffe0 fffd ffec ffe4     ................
    3dfc:	fff9 fff0 fff9 000c 0022 0025 0029 0028     ........".%.).(.
    3e0c:	002c 001d 0038 0015 001d 0012 0017 fffd     ,...8...........
    3e1c:	fff2 ffd9 ffd5 ffde ffda ffd9 ffa3 ff83     ................
    3e2c:	ff91 ffbc ff8e ff74 ffca fff1 ffed ffdb     ......t.........
    3e3c:	fff4 fff0 000f 000f 000e 0022 0029 0037     ..........".).7.
    3e4c:	0045 009c 0074 006f 007e 0099 0074 0067     E...t.o.~...t.g.
    3e5c:	006b 0089 007b 005f 004b 0051 0022 0005     k...{._.K.Q."...
    3e6c:	0004 0010 0026 001b 0014 fffe ffed 0014     ....&...........
    3e7c:	000c ffe5 fffd ffeb ffdd ffd1 ffda ffb4     ................
    3e8c:	ffc9 ffc7 ff95 ff72 ff91 ff9b ff6c ff69     ......r.....l.i.
    3e9c:	ff4b ff79 ff60 ff69 ff7f ff93 ffb3 ff9b     K.y.`.i.........
    3eac:	ffd0 fff7 0016 000e 0022 0038 0066 0022     ........".8.f.".
    3ebc:	002c 0035 001d 002e 0048 0044 0048 0040     ,.5.....H.D.H.@.
    3ecc:	0041 0049 003b 0039 0042 004c 000a 000e     A.I.;.9.B.L.....
    3edc:	ffe7 0007 ffef ffe7 ffd6 0017 000f ffe5     ................
    3eec:	fff9 0038 002c 001a 0036 0017 0037 0004     ..8.,...6...7...
    3efc:	ffe1 fffa fff0 ffbe ffe6 0006 ffdf fff0     ................
    3f0c:	ffcd ffc8 ffb9 ffda ffce ff96 ff8a ffde     ................
    3f1c:	ffc6 ffc8 ffb9 fff6 0004 fff2 001b 0013     ................
    3f2c:	0026 0024 0052 004b 0062 0060 004c 0016     &.$.R.K.b.`.L...
    3f3c:	0062 003a fff9 fff8 0016 001d fff2 0005     b.:.............
    3f4c:	ffdc fff9 0037 0038 fff0 000d 006c 0048     ....7.8.....l.H.
    3f5c:	0003 0020 0034 004e 000c 002f 003f fff5     .. .4.N.../.?...
    3f6c:	fffe 0024 000f ffd9 ffc9 ff9f ffc7 ffdf     ..$.............
    3f7c:	fff8 ffb7 ffb0 fff4 ffd9 ffda ffc5 ffea     ................
    3f8c:	ffee ffef ffd6 ffe6 ffdb 0035 0026 ffdc     ..........5.&...
    3f9c:	001f 003f 001e 001e 0048 002c ffed 0014     ..?.....H.,.....
    3fac:	0024 000d 001f 0002 0018 001f fffd ffe1     $...............
    3fbc:	ffab ffbd ff9e ff90 ffa0 ffa5 ff9a ffb5     ................
    3fcc:	ffc1 0012 fff5 fff8 ffde 0023 000a 0004     ..........#.....
    3fdc:	fff8 0013 0003 ffee 0017 ffec 0007 ffe2     ................
    3fec:	0001 0003 002e ffe4 ffe0 0020 0040 002d     .......... .@.-.
    3ffc:	0012 0075 0059 006c 0083 0087 006e 0067     ..u.Y.l.....n.g.
    400c:	0073 0025 0032 0026 002a 000c fff0 ffc5     s.%.2.&.*.......
    401c:	ffbb ffdb ffd5 ffcf ffde ffbb ffe4 fffc     ................
    402c:	ff96 ffb0 ffeb ffd1 ffe7 ffcf 0017 ffe8     ................
    403c:	ffdd ffed 0008 ffd1 0020 003a 004b 0019     ........ .:.K...
    404c:	ffcc 0011 ffe2 ffe5 ffd4 ffef 0012 ffe5     ................
    405c:	fffc ffc6 fffd ffd9 ffc5 ffd0 0010 ffa0     ................
    406c:	001f 000c 0011 fff3 ffde 0007 0004 fff7     ................
    407c:	0013 0056 ffe1 0022 0038 004c 000b 003e     ..V...".8.L...>.
    408c:	0027 002b ffd4 ffde ffd1 ffce ffa5 ffcd     '.+.............
    409c:	ff8b ffb1 ffb6 001b 001d ffe5 0018 000f     ................
    40ac:	003e 003e 003a 0034 0050 0051 0040 ffec     >.>.:.4.P.Q.@...
    40bc:	0028 002a fffe ffec 0016 002b 0007 ffed     (.*.......+.....
    40cc:	ffe9 ffc6 ffc3 ffff ffe8 0014 fff8 0017     ................
    40dc:	001c 0023 003b 003f 005f 0042 0033 0065     ..#.;.?._.B.3.e.
    40ec:	0057 0039 0039 0056 002b 0029 001e 0026     W.9.9.V.+.)...&.
    40fc:	0018 fffd fffb ffd0 ffe2 ffb4 ff91 ff6f     ..............o.
    410c:	ff84 ff89 ff7b ff6e ffb8 ff86 ff8a ffbc     ....{.n.........
    411c:	ffe7 ffb7 ffb2 ffd8 fff3 ffc7 ffaf ffeb     ................
    412c:	0022 000f 0018 0018 0028 0001 002d 0013     ".......(...-...
    413c:	000e 0007 001f 001f 002a 0048 003a 002d     ........*.H.:.-.
    414c:	0017 000b fffa 0035 ffc4 0009 ffff 0013     ......5.........
    415c:	0010 0007 0012 fff0 fffb ffeb fff5 ffda     ................
    416c:	ffd6 ffbc ffdf ffbf fff8 ffe4 0001 0033     ..............3.
    417c:	0048 0029 0018 0058 0050 0064 0077 0079     H.)...X.P.d.w.y.
    418c:	004d 006e 008b 00b0 004a 0035 004a 0078     M.n.....J.5.J.x.
    419c:	001d ffee fff8 000a fffa 0020 ffd5 ffa1     .......... .....
    41ac:	ffc4 ffb8 ff93 ff90 ff99 ff8e ff84 ff6e     ..............n.
    41bc:	ffe9 ffbe ffbe ffdd fffa ffeb ffc0 ffd6     ................
    41cc:	ffba ffcc ff97 ffe0 ffc0 ffec ffc7 ffee     ................
    41dc:	ffd5 fff8 ffc8 0008 0010 0006 001b 001d     ................
    41ec:	003c 0030 002a fffc fffa 0026 000f ffe4     <.0.*.....&.....
    41fc:	ffed fffd ffef 0004 ffe9 0014 001c 0028     ..............(.
    420c:	0017 fffc 0029 ffef 001e 0046 001b 0007     ....).....F.....
    421c:	001b 001d 0002 fffc 0000 0046 002d 003a     ..........F.-.:.
    422c:	001e fffc 0049 001e ffeb fff2 0010 000f     ....I...........
    423c:	ffd9 0006 fff8 0006 0040 0049 003f 0038     ........@.I.?.8.
    424c:	ffe6 0046 0020 000d ffe4 fffd 0007 002f     ..F. ........./.
    425c:	ffc5 0011 0066 004c 0023 002c 001a 0018     ....f.L.#.,.....
    426c:	0020 0026 fff5 001a 0034 ffe2 fff3 ffe4      .&.....4.......
    427c:	fff4 ffc3 ffbc ffc6 ffb7 ff81 ffab ffb5     ................
    428c:	ffed ffae ffbe fff0 ffae ffe2 ffeb 0002     ................
    429c:	ffcd ffed fffc ffe3 ffe0 ffcb fffb ffd3     ................
    42ac:	ffe0 ffb0 ffd7 ffa4 0025 ffee ffb0 ffd5     ........%.......
    42bc:	0008 001b ffdb 001e 000c 0023 000b 006a     ..........#...j.
    42cc:	0030 0008 002a 0041 0004 fffe fff1 005e     0...*.A.......^.
    42dc:	0005 fff3 0019 002d ffc7 000f ffe6 ffdd     ......-.........
    42ec:	fff9 000b ffd8 0014 0017 fff6 0002 ffce     ................
    42fc:	fff4 ffef 0023 ffc8 002e 0011 0027 0066     ....#.......'.f.
    430c:	003b 004b 0048 004c 0049 0049 0033 0056     ;.K.H.L.I.I.3.V.
    431c:	0046 005a fffb 0017 0035 0002 0004 fff5     F.Z.....5.......
    432c:	0000 ffda ffab fff0 ffdb ffba ffed ffa3     ................
    433c:	ffbf ffdc ffff ffeb ffa2 ffee ffdd 0003     ................
    434c:	ffda ffe7 000d fffe 0017 0064 0036 fffe     ..........d.6...
    435c:	003f 009d 0056 0030 0007 0037 008e 0025     ?...V.0...7...%.
    436c:	ffef 000e 0021 0029 0026 ffd3 ffee fff2     ....!.).&.......
    437c:	ffc9 ffe9 ffc8 ff88 ffa5 ff9d ffa4 ff93     ................
    438c:	ff7d ffd4 ff7d ffc7 ff7d ffd7 ff8f ffea     }...}...}.......
    439c:	ffe8 0017 ffc9 fff2 fff2 0042 0047 ffec     ..........B.G...
    43ac:	005d fff0 0002 ffc6 002a ffcc fff0 fffe     ].......*.......
    43bc:	0030 ffe6 ffe8 ffdd 0005 0038 0010 0036     0.........8...6.
    43cc:	0015 0000 0004 0075 fffc ffea 0045 007d     ......u.....E.}.
    43dc:	0059 0017 001a 004c fffe 001e 004f 0044     Y.....L.....O.D.
    43ec:	0059 001d 0064 005f ffdf 0031 001c fffa     Y...d._...1.....
    43fc:	fff0 0008 ffca ffdd ffca ffe2 002f ffcd     ............/...
    440c:	ffb8 ffd7 ffe1 fff0 0004 ffba ffb8 ff85     ................
    441c:	ffde ffe3 ffa8 0019 ffed 0020 ffd3 ffe5     .......... .....
    442c:	ffe4 ffee ffd4 0005 ffda ffa5 ffd6 0007     ................
    443c:	ffce ffb8 0015 0027 0019 001a 004a 0016     ......'.....J...
    444c:	0071 0080 0098 008d 0082 00a3 00a7 006f     q.............o.
    445c:	0052 005b 005f 0074 004c 006d 003d 000b     R.[._.t.L.m.=...
    446c:	0021 ffd7 ffc4 0005 ffa4 ff96 ffbd ffb0     !...............
    447c:	ffb0 ff60 ff75 ff5f ff4a ff55 ff71 ff66     ..`.u._.J.U.q.f.
    448c:	ff9c ffce ffc6 ffbf fff2 0052 0004 ffd0     ..........R.....
    449c:	001f ffd2 0001 0003 0044 001f ffe2 fff3     ........D.......
    44ac:	ffd7 0009 0000 ffb2 ffc2 ffdf ffb0 ffd6     ................
    44bc:	fff6 ffdc ffce fff4 0023 ff9c ffe9 000d     ........#.......
    44cc:	0002 0021 0034 0058 0022 fffd 0044 0025     ..!.4.X."...D.%.
    44dc:	002c 0039 004e 0052 0034 0059 ffec 0011     ,.9.N.R.4.Y.....
    44ec:	0011 fffa ffe4 0062 0039 fff6 0033 0038     ......b.9...3.8.
    44fc:	004c 003d 0039 008d 00ab 009b 00a9 00ac     L.=.9...........
    450c:	00ac 0094 00ac 0084 00ca 008c 006d 005e     ............m.^.
    451c:	001b 0031 001b ffa5 ffa4 ff90 ff52 ff81     ..1.........R...
    452c:	ff21 ff26 ff59 ff1c ff38 ff6a ff41 ff76     !.&.Y...8.j.A.v.
    453c:	ff58 ff35 ff60 ff32 ff6c ff75 ff64 ff7a     X.5.`.2.l.u.d.z.
    454c:	ffcd ffc4 ffa2 ffa1 ffba 000a fff6 fffb     ................
    455c:	ffd9 ffef 001b fff9 000c ffef 005e 000b     ............^...
    456c:	0061 0094 0071 007c 0067 0049 0099 006c     a...q.|.g.I...l.
    457c:	006d 00ab 0079 0028 0054 005f 0086 004d     m...y.(.T._...M.
    458c:	0042 000e 005a 004f 0041 0005 001c 0042     B...Z.O.A.....B.
    459c:	fff0 fff4 ffd1 0013 fff0 ffd6 ffbf fffa     ................
    45ac:	ffd6 0023 ffb2 0015 000a 0006 0007 ffed     ..#.............
    45bc:	002f ffde ffde ffde 002c ff96 fff6 ffe6     /.......,.......
    45cc:	ffc8 ffdf ffc3 ffa6 ffb9 ffbb ffb5 ffbe     ................
    45dc:	0002 0012 ffc8 0006 fffd fffc ffb9 ffc4     ................
    45ec:	ffb7 ffd3 ffb7 fffd 0022 fff8 0028 0095     ........"...(...
    45fc:	0057 0064 0045 008e 0027 002d 0017 006a     W.d.E...'.-...j.
    460c:	001d 0052 007b 0020 fff6 fffb 0011 ffbe     ..R.{. .........
    461c:	ffd1 ffd5 ffb1 ffa9 ffed ffca ffee ffd2     ................
    462c:	ffe7 0040 0010 0006 fff7 000c ffd9 ffdb     ..@.............
    463c:	ffc5 ffb3 ffb6 fff1 001c ffb9 0009 ffc7     ................
    464c:	fff2 ffad ff92 ffa4 ff69 ff93 ffab ffd5     ........i.......
    465c:	fffa 0003 fff6 ffde ffd6 0019 0025 0005     ............%...
    466c:	0029 006a 0043 0073 005a 0070 0048 0048     ).j.C.s.Z.p.H.H.
    467c:	0052 000e fff7 000a 000d 0025 003e 000d     R.........%.>...
    468c:	0004 0038 000a fff3 ffdd 002b 0024 ffb5     ..8.......+.$...
    469c:	002a fffc 001b 0020 002c 0036 0024 001b     *..... .,.6.$...
    46ac:	0049 0058 0048 009f 0067 004d 0046 0046     I.X.H...g.M.F.F.
    46bc:	000d 001b ffef 0028 fff2 ffe6 ffdd ffda     ......(.........
    46cc:	ffc1 ffb9 ffca ff8b ffd4 ffae ffeb ff4e     ..............N.
    46dc:	ffb7 ffde ffd4 ff93 ff98 ffa1 ff89 ff98     ................
    46ec:	ff44 ff70 ff90 ffbe ffba ffc7 ffbc 002c     D.p...........,.
    46fc:	ffba ffe8 0004 fff3 ffed 0001 005f 0045     ............_.E.
    470c:	000b 0028 007c 0050 003c 0052 0062 0068     ..(.|.P.<.R.b.h.
    471c:	0030 005a 0040 0069 001d 000a ffd1 fffa     0.Z.@.i.........
    472c:	0028 001c 001b 002b 0058 004f ffcd ff9a     (.....+.X.O.....
    473c:	fff1 000c fff7 ffde 002b 0012 001f 0000     ........+.......
    474c:	000a 001f 0020 fff7 fffe 0001 003b 000c     .... .......;...
    475c:	004e 002d 0047 0041 0013 0031 0009 fffa     N.-.G.A...1.....
    476c:	0010 001a ffe1 0001 ffe8 fff0 ffae ff60     ..............`.
    477c:	ffb1 ff7f ffab ff92 ffa0 ff73 ffae ffbc     ..........s.....
    478c:	ff84 ff72 ff7c ff93 ff81 ffa6 ffc9 fff8     ..r.|...........
    479c:	fff7 000c ffca ffd9 0033 0028 004f 003d     ........3.(.O.=.
    47ac:	002e 0080 0062 0091 0067 007f 007a 0091     ....b...g...z...
    47bc:	00a6 00cb 0097 00b3 0087 008e 007d 0035     ............}.5.
    47cc:	0016 0018 002c fff7 ffd7 ffbe 0005 000e     ....,...........
    47dc:	ffba ff9f ff7a ff77 ff89 ff84 ff28 ff57     ....z.w.....(.W.
    47ec:	ff81 ff67 ff6e ff86 ffdd 000a ffcb ffaa     ..g.n...........
    47fc:	fff0 0015 003e 006b 0063 00b4 00aa 00c4     ....>.k.c.......
    480c:	00fa 00e9 00e2 00eb 00cc 00b8 006e 005e     ............n.^.
    481c:	001a ffdc ffbd ffb8 ff92 ff66 ff4b ff12     ..........f.K...
    482c:	fef4 ff03 fedf fe96 fea1 feb2 fed2 fec5     ................
    483c:	fef5 fefe ff53 ff55 ff73 ffc8 003a 001c     ....S.U.s...:...
    484c:	002e 0054 00ab 00a2 0093 007f 00a2 008f     ..T.............
    485c:	0091 006b 0040 0070 0078 0046 0064 0065     ..k.@.p.x.F.d.e.
    486c:	0066 0067 0077 0073 001c 008c 0099 008f     f.g.w.s.........
    487c:	007b 00d9 00b5 0082 00b8 00cc 00fd 00af     {...............
    488c:	00ca 00b9 00a5 0035 002a 0006 001c 003a     ......5.*.....:.
    489c:	ffbd 000b ffd5 ffcf ffaa ff8a ff5d ff8e     ............]...
    48ac:	ff40 ff5f ff5d ff7d ff46 ff23 ff64 ff82     @._.].}.F.#.d...
    48bc:	ff88 ff69 ffb7 ff62 ffb8 ff85 ff65 ff63     ..i...b.....e.c.
    48cc:	ff6e ff78 ff51 ff8c ff7b ffa7 ff8e ff7f     n.x.Q...{.......
    48dc:	ff81 ffa7 ffb8 ff83 ffb9 ffba fff7 0033     ..............3.
    48ec:	001a 001e 0065 006b 005e 0060 0065 008a     ....e.k.^.`.e...
    48fc:	007a 00da 009c 008f 006a 009b 007a 009e     z.......j...z...
    490c:	0069 008d 0092 0053 008b 0073 0068 002c     i.....S...s.h.,.
    491c:	0074 003f 0073 0077 0053 0008 0017 001b     t.?.s.w.S.......
    492c:	001f 0001 fff8 0026 004d ffdf fff5 0025     ......&.M.....%.
    493c:	ffe4 ff9f ffcc ffb9 ff85 ffd4 ffb4 ff9f     ................
    494c:	ff95 ff8c ffb2 ff74 ffb3 ffd2 ffff ffa8     ......t.........
    495c:	ffc3 0007 ffca ffc5 ffd9 0000 ffc5 ffee     ................
    496c:	ffbc fffa ffb0 ffb9 ffd9 ffa7 ffc3 ffcd     ................
    497c:	ffc1 ffdf ffd7 001d ffb5 ff5f 0023 fff7     .........._.#...
    498c:	fff0 fff2 000b 002b 002d 0086 005f 0039     ......+.-..._.9.
    499c:	0058 006d 009a 00bb 0062 006b 0060 0096     X.m.....b.k.`...
    49ac:	0056 0061 0050 0057 0002 003f 0011 0016     V.a.P.W...?.....
    49bc:	ffd2 ffc9 ffb5 ffec ffd5 ffb2 ffbd ffe1     ................
    49cc:	ffda ffb1 ffee ffff 004c 0029 0008 0022     ........L.)...".
    49dc:	0044 0012 001e 0036 ffc7 ffd9 ffcf ffff     D.....6.........
    49ec:	ffd7 ffec ffb4 ff82 ffa6 ff97 ffae ff94     ................
    49fc:	ff9e ff5e ffa1 ffb2 ff6e ff9b ffd7 0002     ..^.....n.......
    4a0c:	ffd8 ffdc ffde 0022 0026 0033 0008 005c     ......".&.3...\.
    4a1c:	0072 002c 004d 0040 0059 001d 0047 0049     r.,.M.@.Y...G.I.
    4a2c:	000f 0006 0050 0023 0033 003a 003c 0061     ....P.#.3.:.<.a.
    4a3c:	0076 006b 0011 004e 0066 0020 0034 000a     v.k...N.f. .4...
    4a4c:	003c 0068 0046 0000 0028 ffec 000b ffec     <.h.F...(.......
    4a5c:	0010 0012 ffdb ffd4 0011 ffe6 ff8b ffaf     ................
    4a6c:	ffe4 ffcb ff8e ffc1 ffe2 ffc1 ffc9 001d     ................
    4a7c:	ffed 0005 ffab ffce ffd5 000e ffc5 ffc5     ................
    4a8c:	ffc4 ffd6 fffb ffe2 000f fff2 002e 0007     ................
    4a9c:	0020 fff3 ffa4 ffcf 002b 0009 002f ffcc      .......+.../...
    4aac:	0029 002f fff8 fffc 0015 0013 0003 001e     )./.............
    4abc:	fff2 ffe0 0014 0006 fff0 ffde ffcc ffbc     ................
    4acc:	fffa ffff 0003 ffed 0005 0036 0018 001a     ..........6.....
    4adc:	001c 0015 fff6 ffe0 000f 0038 fffe 0018     ..........8.....
    4aec:	0002 fff7 000b fff5 fff6 fff9 0025 0007     ............%...
    4afc:	000e 0018 fff3 003a 004d 004f 0046 008c     ......:.M.O.F...
    4b0c:	0053 000b 005a 002a 000a fffe 001d fff3     S...Z.*.........
    4b1c:	fff4 ffb2 ffdf ffd9 ffaa ff9c ff8e ffa5     ................
    4b2c:	ff85 ff4b ff81 ff9d ff7f ff64 ff9a ffc1     ..K.......d.....
    4b3c:	ffea fff2 0010 000c ffdc 0055 0026 0055     ..........U.&.U.
    4b4c:	0044 00a4 007d 0065 003f 0072 00b1 0084     D...}.e.?.r.....
    4b5c:	006d 0052 0094 0055 001b ffd7 fff7 0014     m.R...U.........
    4b6c:	fff0 ffc3 0007 003e 000f 0024 ffd5 0034     ......>...$...4.
    4b7c:	fff0 003d ffd2 fff9 001d 0008 002c 0016     ..=.........,...
    4b8c:	ffeb fff1 ffc6 ffce ffe7 ff84 0003 ffb9     ................
    4b9c:	fff8 000a 000c 0043 fff0 ffe9 000f fff4     ......C.........
    4bac:	0003 fffd ffe0 fff7 0012 fff5 ffe2 ff92     ................
    4bbc:	0001 ffbd ffab ff79 ff87 ffac ff7c ff5b     ......y.....|.[.
    4bcc:	ff91 ff86 ff5e ff98 ff5d ffae ffea ffb5     ....^...].......
    4bdc:	ffcd 0001 fffc 0011 0003 0018 0034 0035     ............4.5.
    4bec:	006d 002f 004b 000a 001b 0033 002a 0026     m./.K.....3.*.&.
    4bfc:	0032 002d 003d 0026 0026 003f 0039 002b     2.-.=.&.&.?.9.+.
    4c0c:	0045 0098 0073 0061 0042 0047 0081 003a     E...s.a.B.G...:.
    4c1c:	0084 00a9 00b5 00d9 0067 0056 00a5 00a2     ........g.V.....
    4c2c:	006c fffe 0003 003c 0002 ffb8 ffc6 ffc7     l.....<.........
    4c3c:	ffba ff83 ffd5 ff75 ff7e ffcf ffae ff95     ......u.~.......
    4c4c:	ffc7 ffb8 ffc7 ffe7 ffad ffd4 0006 0021     ..............!.
    4c5c:	fff7 ffc4 ffe1 ffe7 ffcf ffea ffd8 fff9     ................
    4c6c:	fff5 ffbf ffe7 ffa1 ff9b ffd0 ffcb ff75     ..............u.
    4c7c:	ff75 ff9d ffc7 ff86 ffce ff98 ffdb fffd     u...............
    4c8c:	ffd8 ffdc 0019 fff7 ffdd 003f 003a 0049     ..........?.:.I.
    4c9c:	0031 0042 003f 0018 0018 0009 ffad ffed     1.B.?...........
    4cac:	fff7 ffe9 0017 ffe8 0012 001d 0045 0036     ............E.6.
    4cbc:	0061 001a 0064 0044 0069 0055 00ba 0059     a...d.D.i.U...Y.
    4ccc:	0075 0089 009c 007d 0051 002a 001d 0070     u.....}.Q.*...p.
    4cdc:	fffa 0006 ffce ffd4 0001 fff3 ff95 ffc0     ................
    4cec:	ffcd ffc9 ffac ff91 ff83 ffa8 ffd6 ffbb     ................
    4cfc:	ffc2 ffe3 0021 0009 fff6 0036 0043 000d     ....!.....6.C...
    4d0c:	002d 004c fff3 ffdf ffd6 ffd0 ffc3 ffb8     -.L.............
    4d1c:	ffd5 ffd7 ffc4 0001 ffeb fffe 0015 ffe4     ................
    4d2c:	0021 001e 0047 0007 ffe0 0019 0039 0021     !...G.......9.!.
    4d3c:	0037 0017 0067 005e 006a 006d 0037 001b     7...g.^.j.m.7...
    4d4c:	001b 0022 0023 ffe9 ffc0 0006 0028 ffd6     ..".#.......(...
    4d5c:	ffe3 ffcc ffdc ffc1 ffad ffbf ffcc ffa1     ................
    4d6c:	ffdf ffbd ffe4 ffc1 ffdc fffc 0011 ffd7     ................
    4d7c:	ffe1 ffd5 ffd0 ffd7 ffda ffff ffa0 ffbf     ................
    4d8c:	ffd9 ffa4 ff67 ffc0 ffd4 fff5 ffe5 0007     ....g...........
    4d9c:	ffe3 fffc 002e 0027 000a 002a 0072 0026     ......'...*.r.&.
    4dac:	003c 003e 0064 001d 0038 0039 004a 0004     <.>.d...8.9.J...
    4dbc:	001c 0015 0019 0043 fffc 003b 003f 001c     ......C...;.?...
    4dcc:	004e 0010 001f ffff 0042 000f 003a 001b     N.......B...:...
    4ddc:	003d 000d fffb 0004 0001 ffe9 ffe7 001c     =...............
    4dec:	ffcb ffc5 ffc3 ffb7 ffaf ffc0 ffc5 ff8b     ................
    4dfc:	ff88 ff83 001b ffe3 0000 0009 003c 0031     ............<.1.
    4e0c:	003d 0043 004e 006e 0099 0088 005e 00e8     =.C.N.n.....^...
    4e1c:	008c 006f 0054 007d 006a 007d 0028 0049     ..o.T.}.j.}.(.I.
    4e2c:	001e fffd ffe3 ff8f ff8a ffac ff91 ff9c     ................
    4e3c:	ff34 ff61 ffa5 ff73 ff6f ff46 ff8e ffba     4.a...s.o.F.....
    4e4c:	ffb9 ffb2 ffd2 ffe4 ffcc ffb5 ffd4 0002     ................
    4e5c:	ffd5 ff94 ffca ffd8 ffce ffba ff7b ffb1     ............{...
    4e6c:	ffc9 ffc4 ffac ffb4 001c 001c 000c fff6     ................
    4e7c:	004c 0048 00a9 0062 0097 0077 009f 00ce     L.H...b...w.....
    4e8c:	00cb 00e4 00d7 00a6 0066 0092 0040 003a     ........f...@.:.
    4e9c:	001d 0041 ffeb 0014 ffc0 ffbd ffa5 ffbe     ..A.............
    4eac:	ff97 ff76 ffa3 ffbe ffbb ff60 ffd2 ffc6     ..v.......`.....
    4ebc:	ffcc ffd7 0041 0053 0055 004c 0035 0055     ....A.S.U.L.5.U.
    4ecc:	0020 001f ffdd ffcc 0012 0014 fff0 ffeb      ...............
    4edc:	ffc6 ffa9 ffc5 ffdb ffc6 ffa8 ffec fff0     ................
    4eec:	ffc8 0028 0032 0011 0072 0039 0084 004f     ..(.2...r.9...O.
    4efc:	0069 00af 0061 0045 0025 0036 001d ffbe     i...a.E.%.6.....
    4f0c:	fff1 ffda ff8b ff83 ff3a ff6c ff96 ff99     ........:.l.....
    4f1c:	ff40 ff6d ff8a ffa9 ff9b ffe7 ffcf 0000     @.m.............
    4f2c:	0052 0055 004f 0028 0063 003f 005d 006c     R.U.O.(.c.?.].l.
    4f3c:	009e 003b 007e 0045 0047 0033 0020 0011     ..;.~.E.G.3. ...
    4f4c:	0005 0006 ffc0 ffc3 ffc1 ffd3 fffc ffd5     ................
    4f5c:	ffcb 0004 ffc1 ffff ffb2 ffd2 0007 fff7     ................
    4f6c:	001c 0045 0030 0020 0047 0023 003d 000a     ..E.0. .G.#.=...
    4f7c:	0028 ffec ffe3 ffee 0021 ffaa ffd4 ff97     (.......!.......
    4f8c:	ffaf ffc3 ffb0 ffc3 ff95 ffc7 ffb2 ffac     ................
    4f9c:	ffa1 0001 ffe2 ffad fff7 ffe4 0009 0038     ..............8.
    4fac:	ffbb 000c 0044 ffea 0008 ffea 000e 001b     ....D...........
    4fbc:	000d 0010 0028 002b 004c 0015 0020 0062     ....(.+.L... .b.
    4fcc:	007c 0026 0052 008b 00a6 009b 0083 006f     |.&.R.........o.
    4fdc:	0083 0072 006e 0057 0057 0078 0029 003f     ..r.n.W.W.x.).?.
    4fec:	0016 0017 ffd9 fffa ffe6 fffe ffde ffad     ................
    4ffc:	ffcf ffbf ffde ffd3 ffd4 ff94 ffbe ffbb     ................
    500c:	ffd0 ffcd ff8d ff87 ffda ffab ff61 ffa9     ............a...
    501c:	ffd8 ffd1 ff95 ff8f ff9e ffa3 ff96 ffc9     ................
    502c:	ffa2 ffaf ffb4 ffbb 0002 ffcd 000d 002c     ..............,.
    503c:	009b 0098 008b 0074 0052 002a 006c 0060     ......t.R.*.l.`.
    504c:	0005 0051 004d 0043 0073 0014 ffe3 ffd0     ..Q.M.C.s.......
    505c:	ffae ff77 ff45 ff5d ff94 ff6a ff89 ffa1     ..w.E.]...j.....
    506c:	ffb9 ffa5 0005 0030 fff9 0031 0044 0062     ......0...1.D.b.
    507c:	0079 00a9 008c 00a0 00b5 0072 00a2 0075     y.........r...u.
    508c:	00ad 006e 0066 0053 002c ffdb ffc1 ffb1     ..n.f.S.,.......
    509c:	ffd6 ffeb ffe2 ffd0 ffc3 0004 ffb0 ffb0     ................
    50ac:	ffed fff0 000d ffea 0054 005c 003a fff0     ........T.\.:...
    50bc:	001b 0031 0026 000e 000e ffd4 ffc1 ff98     ..1.&...........
    50cc:	ffb0 ff92 ff87 ffb4 ff84 ffaf ffdb ffcf     ................
    50dc:	ffd6 ffd8 ffd4 ffdc 002b ffe5 0019 0031     ........+.....1.
    50ec:	fffe 0023 0036 0006 0038 ffeb 0013 0007     ..#.6...8.......
    50fc:	ffea ffd2 0006 fffc 0018 ffca ffcc ffb4     ................
    510c:	ffd1 ffe2 ffea fff3 000c 000e fff5 0040     ..............@.
    511c:	0051 0060 0039 0044 0054 006a 0071 00b8     Q.`.9.D.T.j.q...
    512c:	00a5 0062 0048 0047 002f fff1 fffe fffc     ..b.H.G./.......
    513c:	ffe0 fff6 ffce ffb1 ff99 ffc8 ff97 ffbc     ................
    514c:	ffb9 ff86 ffe0 ffe2 ffdd 0014 001f 002f     ............../.
    515c:	0045 0048 001c 003b 0034 0035 0016 ffdf     E.H...;.4.5.....
    516c:	ffe2 ffbb 0007 ffd3 ffb4 ff89 ffbf ff85     ................
    517c:	ff71 ff61 ffa3 ff9d ff8e ff7e ffc7 ffd2     q.a.......~.....
    518c:	ffff 0036 0023 0053 0059 006c 0059 009e     ..6.#.S.Y.l.Y...
    519c:	00a5 006c 00b3 0083 0061 0070 0046 0019     ..l.....a.p.F...
    51ac:	0028 fffc fff0 ffd8 ffeb ffe5 ffa2 ffae     (...............
    51bc:	fff1 ffda ffa3 ffc0 ffcb ff7b ffa1 ffd6     ..........{.....
    51cc:	0023 0011 0032 001c 0015 0014 001c 0065     #...2.........e.
    51dc:	002e fff4 fffc 000f ffdc ffd3 ffd0 ffe0     ................
    51ec:	ff9c ffc4 ffe7 ffcf ffbb fff0 ffe2 ffcc     ................
    51fc:	0011 000d 0025 001d 0055 0077 0030 0071     ....%...U.w.0.q.
    520c:	0091 0062 0053 0038 0009 0030 0006 fff4     ..b.S.8...0.....
    521c:	ffd5 ffc6 ffb6 ff73 ff8f ff89 ffb4 ffcf     ......s.........
    522c:	ffb9 ffbd ffed fffe ffce ffc0 fff4 001d     ................
    523c:	003f 0017 003e 0030 003b 003d 0051 004a     ?...>.0.;.=.Q.J.
    524c:	0028 0013 0015 ffe9 ffdb 001c ffd4 ffdf     (...............
    525c:	fffa fff4 fff5 ffe1 ffdf fffc ffb5 fff0     ................
    526c:	fffb fff1 0045 fff9 0038 0015 006a 0045     ....E...8...j.E.
    527c:	003f 0080 00ec 0071 0052 0072 0035 0028     ?.....q.R.r.5.(.
    528c:	ffcf ffac ffa1 ffb7 ffb7 ffe1 ffc1 ffcf     ................
    529c:	ffaf ffb8 ffab ff9a ff91 ffe1 ffb6 ffe0     ................
    52ac:	fff0 0016 0003 002b 004d 0028 fff3 002e     ......+.M.(.....
    52bc:	0028 fff2 ffe6 ffee 0000 fffb ffcf ffd6     (...............
    52cc:	ffdd ffd4 ffcd fff4 ffce ffc9 ffec ffe8     ................
    52dc:	ffde ffc5 fff2 0005 0017 000c 0027 0034     ............'.4.
    52ec:	0046 0049 0085 0039 0051 0037 0003 001f     F.I...9.Q.7.....
    52fc:	ffe4 fff1 0021 0026 fff2 fff1 0003 0005     ....!.&.........
    530c:	ffd7 ffec ffe2 ffba ffd6 ffde ffb3 ffdd     ................
    531c:	fff9 fffd fff1 0015 fff6 0004 002b 0053     ............+.S.
    532c:	001a 0018 fff2 0028 000e 000c 002f 0022     ......(...../.".
    533c:	0033 0037 000e 0021 0008 ffd0 0003 ffd1     3.7...!.........
    534c:	ffc6 ffc0 fff2 ffbb 0019 ffce 0010 ffce     ................
    535c:	ffcd ffcf ffc6 0015 0017 ffc5 ffb0 0016     ................
    536c:	0000 0001 fff9 ffe7 fff4 0001 ffc6 ffda     ................
    537c:	fffd 0027 0033 0009 0066 0071 0059 001f     ..'.3...f.q.Y...
    538c:	004a 007f 0070 004f 003e 0043 0029 002d     J...p.O.>.C.).-.
    539c:	0054 0057 0059 000c ffc5 ffd0 ffec ffec     T.W.Y...........
    53ac:	ffb1 ffba ffc9 ffe2 ffbc ff82 ff77 fff5     ............w...
    53bc:	ffa9 ffa1 ffb3 ffc3 ffb5 ffe6 000a ffff     ................
    53cc:	0004 ffe1 000d 0028 ffee fff5 ffe7 ffea     ......(.........
    53dc:	0028 ffdf 000d 0004 001e 0026 0014 0029     (.........&...).
    53ec:	004d 0035 005b 0027 001b 0022 0027 0036     M.5.[.'...".'.6.
    53fc:	0061 ffea 0039 0054 0053 fff6 0046 0004     a...9.T.S...F...
    540c:	ffdc ffbf ffb0 fff7 ffb0 ff6d ff8b ff95     ..........m.....
    541c:	ff79 ffa2 ff89 ffa9 ffce fff2 ffc5 ffdc     y...............
    542c:	ffb7 000b 001e 004d 0013 003f 003b 0036     ......M...?.;.6.
    543c:	0014 0051 002a 004b 002f 0033 006d 004d     ..Q.*.K./.3.m.M.
    544c:	0057 0021 fff6 fff0 0024 0013 ffd6 ffbd     W.!.....$.......
    545c:	0013 003b 0011 ffd0 ffe3 0029 ffe6 0004     ..;.......).....
    546c:	ffd4 ffeb 0009 ffcd ffe5 fff1 000d ffea     ................
    547c:	ffdd 001a ffef ffd5 fff0 0021 0000 ffcb     ..........!.....
    548c:	0009 0027 0008 0024 0027 000d 0008 0015     ..'...$.'.......
    549c:	000d 003c 0034 005c 0010 0033 0055 004e     ..<.4.\...3.U.N.
    54ac:	fff5 0014 0005 001a ffc4 ff96 ffc6 ffac     ................
    54bc:	ffa3 ffb0 ffcc ffd8 fffb fff8 fff7 fffc     ................
    54cc:	fff5 fffc 0037 0021 0033 0002 004e 002d     ....7.!.3...N.-.
    54dc:	0024 005e 003f 002e 0019 001b 002c 0036     $.^.?.......,.6.
    54ec:	ffd3 ffd1 ffd0 ffaa ff9b ff71 ffa6 ffa2     ..........q.....
    54fc:	ffba ffb0 ff7c ff6f ffa8 ff9b ffb7 ffd2     ....|.o.........
    550c:	fffe ffee 0005 ffd5 0000 fffe ffe9 fff4     ................
    551c:	ffdd ffda 000a ffd8 ffe9 ffb8 ffd9 fff3     ................
    552c:	ffe7 ffe7 0003 0039 0067 000b 000d 0076     ......9.g.....v.
    553c:	0124 0183 0127 00ea 0135 011c 00b4 00e0     $...'...5.......
    554c:	010c 00c0 0081 00a1 00ca 00cf 00b7 009f     ................
    555c:	0069 ffd3 ffb1 ff4a ff1a ff16 ff29 feef     i.....J.....)...
    556c:	ff22 ff19 ff38 ff36 ff5d ff93 ff85 ff94     "...8.6.].......
    557c:	ff48 ff52 ff6c ff88 ff8e ff9f ff93 ffab     H.R.l...........
    558c:	ffde ff9d ffaa ffa7 ff9d ff98 ff94 ff6d     ..............m.
    559c:	ff71 ff88 ffea ffa7 ff97 ffce ffff 0010     q...............
    55ac:	004e 002d 003f 009b 0056 008d 0068 0066     N.-.?...V...h.f.
    55bc:	00e1 00d3 00bb 00be 00ad 0082 003f 009e     ............?...
    55cc:	003f 001a fff5 0002 fffd ffec ffa4 ffd4     ?...............
    55dc:	ffca ffce ffd6 ffb3 001c 0002 001f 0004     ................
    55ec:	0002 000d 003d 0050 0064 0008 0060 0047     ....=.P.d...`.G.
    55fc:	001c 0030 0039 006a 0032 003c 004c 000e     ..0.9.j.2.<.L...
    560c:	0007 fff3 0000 fff9 0011 fff0 0001 ffe3     ................
    561c:	0032 0024 003d 0065 0025 005a 0039 0044     2.$.=.e.%.Z.9.D.
    562c:	0027 0048 005d 0027 001a ffff ffdb ffd6     '.H.].'.........
    563c:	ffca ffa0 ffb9 ff53 ff89 ff73 ff3b ff70     ......S...s.;.p.
    564c:	ff53 ff11 ff69 ff59 ff68 ff78 ffa4 ffc8     S...i.Y.h.x.....
    565c:	ffe5 ffb0 ffd7 fff2 fffe ffe0 fff7 fff8     ................
    566c:	000c 002a 0038 002e 000f 0049 ffe7 ffe2     ..*.8.....I.....
    567c:	ffe1 0016 ffe8 ffe7 ffc1 ffd6 ffd6 ffba     ................
    568c:	ffee 001b 000a 0018 0024 0022 0036 0002     ........$.".6...
    569c:	0026 004e 0017 002c 000a 0024 005f 0043     &.N...,...$._.C.
    56ac:	0048 004a 005a 00a2 0061 001f 002b 002d     H.J.Z...a...+.-.
    56bc:	ffe8 0050 002a 0012 004e 0074 001a 0028     ..P.*...N.t...(.
    56cc:	0026 002e 001f fff2 0029 ffe6 0010 0015     &.......).......
    56dc:	fff6 ffba fff0 ffe1 fff2 ffbd ff9d 0010     ................
    56ec:	ff8f ffaf ffc5 ffb6 fffb ffdb 0003 0018     ................
    56fc:	0001 0024 003f 0008 003a 0022 0055 003c     ..$.?...:.".U.<.
    570c:	0059 002e 003d 0053 0058 fffa ffe4 ffd9     Y...=.S.X.......
    571c:	ffa6 ffc1 ff71 ffae ff5c ff45 ff4a ff5a     ....q...\.E.J.Z.
    572c:	ff74 ff6f ff4c ffb7 ffb5 ff98 ff9e ffb8     t.o.L...........
    573c:	0001 0029 fff6 0053 005b 0039 0047 0040     ..)...S.[.9.G.@.
    574c:	0042 0051 0040 0055 003c 0023 0026 ffc1     B.Q.@.U.<.#.&...
    575c:	ffdc ffb3 0008 ffaa fff1 ffe3 0011 001c     ................
    576c:	ffe5 fff1 0007 0058 0059 0094 00c7 00a8     ......X.Y.......
    577c:	009e 00b6 00a0 0091 0071 0080 008b 0078     ........q.....x.
    578c:	001c 0001 0026 ffdb ff99 ffb8 ffd0 ff98     ....&...........
    579c:	ffb0 ff83 ffa9 ff6a ff80 ff8d ff8f ffaf     ......j.........
    57ac:	ffd3 000a 0036 0012 0031 005b 0019 0037     ....6...1.[...7.
    57bc:	0083 005a 0073 0077 0031 0039 ffe6 0004     ..Z.s.w.1.9.....
    57cc:	ffd7 ffc2 ff8f ffd6 ffd1 ff56 ff36 ff67     ..........V.6.g.
    57dc:	ff08 ff7f ff50 ff8b ffb1 ffb4 ffc7 ffe8     ....P...........
    57ec:	ffe6 ffe8 0027 0024 004e 005d 004d 0060     ....'.$.N.].M.`.
    57fc:	0050 002f 006d 0051 0010 ffeb 003d 0020     P./.m.Q.....=. .
    580c:	000c ffd6 ffd4 ffaf fff4 fffa ffce fff3     ................
    581c:	001b ffbb ffe5 0004 002f 0018 0020 0062     ......../... .b.
    582c:	0035 002c 0077 0058 0042 0026 0032 0071     5.,.w.X.B.&.2.q.
    583c:	fffc 000d 005e 0025 0011 000d fffe ffec     ....^.%.........
    584c:	fff7 ffcf ffae ffd4 ffdb ff9f ffdf 0001     ................
    585c:	002a ffe8 0007 fff6 002f fffc 002a fffa     *......./...*...
    586c:	ffd0 ffcd ffec ffd7 ffba ffc7 ffd8 ffc3     ................
    587c:	ffaa fff8 ffdc ff9e 0011 001c ffd6 000e     ................
    588c:	0028 0030 0004 ffed 002d 0058 0025 0030     (.0.....-.X.%.0.
    589c:	0044 0071 004a 0022 004d 0050 0007 fff4     D.q.J.".M.P.....
    58ac:	0008 fff3 ffb8 ff97 ffc9 ffe1 ffba ff97     ................
    58bc:	ffb7 ffd6 000e 0000 ffce ffe7 ffe0 ffdf     ................
    58cc:	0007 0057 000e 0037 008c 0070 006c 0042     ..W...7...p.l.B.
    58dc:	0072 004c 0027 005e 0031 0043 0020 fffe     r.L.'.^.1.C. ...
    58ec:	ffce fff5 ffb1 ffd4 ff92 ff85 ff73 ff91     ............s...
    58fc:	ff99 ff86 ff94 ff83 ffd2 ffcd 0004 ffdb     ................
    590c:	ffe7 fff7 0010 fffa 0024 0008 ffe7 fff7     ........$.......
    591c:	002b 0023 0014 000a 0017 002b 0028 004c     +.#.......+.(.L.
    592c:	003d 0042 003a 0038 0031 006c 0075 0066     =.B.:.8.1.l.u.f.
    593c:	0087 0057 000f 0005 0003 0025 002c fffe     ..W.......%.,...
    594c:	ffe8 0012 ffb9 ffa4 ffc9 ffe8 ffb6 ffcb     ................
    595c:	ffa5 ffb9 ff9d ffa8 ff5c ff92 ffb5 ffd4     ........\.......
    596c:	fff4 ffac ffdb ffd2 ffea ffd1 fff2 0021     ..............!.
    597c:	0024 0009 0005 0018 0018 0090 007b 005d     $...........{.].
    598c:	0055 003b 005f 0032 0010 002b 0051 0031     U.;._.2...+.Q.1.
    599c:	0014 fff6 001a 0021 fff0 ffae ffdb ffef     ......!.........
    59ac:	0021 fff8 ffd3 0005 0003 ff80 ffda ffd0     !...............
    59bc:	ffbb ffa2 ffb2 ffc5 ffbe ffc1 ffef ffd1     ................
    59cc:	ffe4 0009 ffeb 002b 0038 006a 0032 0028     ......+.8.j.2.(.
    59dc:	0064 0040 000f 0035 002e 0023 ffdd 0010     d.@...5...#.....
    59ec:	0002 0007 0025 0044 002d 0038 ffe5 ffc9     ....%.D.-.8.....
    59fc:	0007 0021 000b 0021 0032 003f ffe1 0009     ..!...!.2.?.....
    5a0c:	0035 0020 000d 0038 002a 0026 0005 0018     5. ...8.*.&.....
    5a1c:	0034 0004 0004 0011 0013 ffcb ffd7 ffec     4...............
    5a2c:	ffd3 ffc4 fff3 ffd8 ffc9 ffc9 ffb2 ffb7     ................
    5a3c:	ff97 ffb2 ffb2 ff86 ffb9 ffad ff8e ff90     ................
    5a4c:	ffe6 ffd7 fffe 000e 0015 ffeb 0001 0005     ................
    5a5c:	0021 fff7 ffe8 fff8 0040 ffc3 0008 002a     !.......@.....*.
    5a6c:	0014 0019 0025 ffe8 0049 0052 0039 003b     ....%...I.R.9.;.
    5a7c:	0041 004c 0044 0031 fff2 004b 002c 0039     A.L.D.1...K.,.9.
    5a8c:	0069 0076 003f 0034 0001 0054 0009 0030     i.v.?.4...T...0.
    5a9c:	0061 000d 0051 ffe3 0012 ffdf 000e ffa8     a...Q...........
    5aac:	ffaa ffab ff95 ff9f ffab ffc0 ffca 0001     ................
    5abc:	ffb4 fffc ffec 0002 fff9 fff1 ffe1 ffdf     ................
    5acc:	fff6 0017 ffec ffdf ffea ffe6 0012 ffaf     ................
    5adc:	0010 0020 ffec ffcc ffe9 0002 ffec ffc3     .. .............
    5aec:	fff2 ffc8 ffaf ffe5 ffe2 000a ffda 000c     ................
    5afc:	ffec 0020 ffed 001c fff1 0021 0015 0008     .. .......!.....
    5b0c:	0013 003e 0049 004f 003f 0020 0061 001b     ..>.I.O.?. .a...
    5b1c:	0072 004f 002c 0028 0063 0041 0024 0046     r.O.,.(.c.A.$.F.
    5b2c:	0071 006f 0016 0027 ffe9 ffe0 fffe ffc5     q.o...'.........
    5b3c:	000c ffcb fff6 ff4c 007b ffb4 00ee ffd7     ......L.{.......
    5b4c:	ffd5 ffdb ff66 ffce ff83 ffba ffab 0023     ....f.........#.
    5b5c:	002b ffde ffd0 003d 0046 ffe9 001c ffe8     +.....=.F.......
    5b6c:	ffbd ff79 ffd5 ff59 ffc8 ffc0 0005 ffaf     ..y...Y.........
    5b7c:	ff64 fffa ffd1 0054 ff94 004b ff95 0020     d.....T...K... .
    5b8c:	ffec ffd8 0066 ffdf 005c fff1 0059 004c     ....f...\...Y.L.
    5b9c:	0037 002f 00b7 0010 0043 0017 002e 0051     7./.....C.....Q.
    5bac:	ffdf 003c 004e 0053 0041 ffdc 004a 0038     ..<.N.S.A...J.8.
    5bbc:	ffaf 000d ffeb 0034 ffc3 ff80 ffe8 ff6f     ......4.......o.
    5bcc:	ffb5 ffb4 ffeb 000c ffc5 ffda ffd2 ffb6     ................
    5bdc:	0023 0010 0006 0026 0018 fff2 ffec ffd3     #.....&.........
    5bec:	0025 004f 004c 001f ffc3 0005 0042 0010     %.O.L.......B...
    5bfc:	001c 0001 000e ffb6 ff8a ffe4 0000 001b     ................
    5c0c:	000e ffba 0021 fff8 ffb3 000f 0018 fff3     ....!...........
    5c1c:	0040 0042 0022 002b 0036 002f 0053 fffd     @.B.".+.6./.S...
    5c2c:	ffc7 ff75 ffa1 ff72 ffd7 ffe6 0037 0021     ..u...r.....7.!.
    5c3c:	ffdc 000e ffe3 fff4 ffcf 0038 ffb3 0007     ..........8.....
    5c4c:	ffe7 000a 0008 002b 0014 008d 0045 0067     ......+.....E.g.
    5c5c:	0032 006d 0084 0027 0073 0058 0097 004a     2.m...'.s.X...J.
    5c6c:	0005 fff6 0054 001f 0003 0000 ffbe ffe5     ....T...........
    5c7c:	ffa7 ffdf fff8 ffe0 0016 ffb2 0055 0006     ............U...
    5c8c:	ff8d ffef fff5 fff3 fff4 0020 0045 0027     .......... .E.'.
    5c9c:	0023 ffee ffb2 ff70 ff65 ffa8 ffd8 ffa0     #.....p.e.......
    5cac:	ff78 ffa9 ffcf 0008 ffb3 ffd9 ff9f ff84     x...............
    5cbc:	ffb4 ff9c ff82 ffc3 ffaa ff9e ffd3 0034     ..............4.
    5ccc:	001d fff5 0032 0078 0068 0008 fff2 002a     ....2.x.h.....*.
    5cdc:	0025 0022 0030 ffe8 fff5 003a 002d 0066     %.".0.....:.-.f.
    5cec:	005b 0061 fffa 0075 0068 0048 0093 000c     [.a...u.h.H.....
    5cfc:	0021 0035 0063 00db 0069 0094 008f 003a     !.5.c...i.....:.
    5d0c:	004d 0070 0040 001a 001c 0020 ffe3 ff5c     M.p.@..... ...\.
    5d1c:	ffbc ffa6 ffbe ffb8 ff92 ff97 ffe1 ffe5     ................
    5d2c:	ffc5 ffd5 0001 ff94 ffa6 ff9e ff7a ffbb     ............z...
    5d3c:	ff65 ffa0 ff6a ffe5 ff76 ffba ffa0 ffd5     e...j...v.......
    5d4c:	ffc6 ff95 ffc8 ffdc ffd9 ffc5 fff2 ffed     ................
    5d5c:	ffea 0055 000e fffd 0071 0001 0047 0066     ..U.....q...G.f.
    5d6c:	0077 00a7 0073 0080 009d 001b 0082 007c     w...s.........|.
    5d7c:	002f 003e 0050 0041 007d 0053 ffe3 0011     /.>.P.A.}.S.....
    5d8c:	002a 0039 000c fff1 000d ffec fffa 000b     *.9.............
    5d9c:	ffdf ffd5 fffd 0026 000f 0016 ffff ffd1     ......&.........
    5dac:	0073 001c 0043 ffd9 ffb8 ffee ffc5 ff74     s...C.........t.
    5dbc:	ff1c ff7f ff46 ff89 ff91 ffb0 ffa8 ffc6     ....F...........
    5dcc:	ff7f ffed ffdc ffd7 ffeb 0004 ffe7 ffe8     ................
    5ddc:	0022 0031 006c 005e 0069 0060 0063 00b9     ".1.l.^.i.`.c...
    5dec:	0091 0058 0069 005a 003e 000d ffed ff3f     ..X.i.Z.>.....?.
    5dfc:	ffcc ffad ffad ff92 ffbb ffa5 ffee ffa3     ................
    5e0c:	ffdf ffe9 fff9 0007 001a 002b fff4 003a     ..........+...:.
    5e1c:	0046 0068 00d5 00fe 00d4 008f 00c6 0064     F.h...........d.
    5e2c:	003d 000a 003d 002a 000e 0012 ffb1 ffec     =...=.*.........
    5e3c:	ffa4 ffdb ffec ffed ffbb ffa1 ffbd ffa2     ................
    5e4c:	ff59 ffaa ff36 ff54 ff54 ff69 ff76 ffc4     Y...6.T.T.i.v...
    5e5c:	ff93 ffac ff90 ff94 ff9a ff94 ffcc ffb7     ................
    5e6c:	ffd6 ff6f ffd1 ffe4 fff4 ffb6 0005 0062     ..o...........b.
    5e7c:	006d fffd 00b2 007f 0086 0070 0070 00a2     m.........p.p...
    5e8c:	0093 00e6 00c1 00cb 0069 00c2 0070 0085     ........i...p...
    5e9c:	ffd7 002a 000f 0006 001d ffef ffbe ffc6     ..*.............
    5eac:	0012 ffc7 000b 0016 0022 0009 0027 fff0     ........"...'...
    5ebc:	ffcd ffc0 002d 0074 0021 001e 0038 0064     ....-.t.!...8.d.
    5ecc:	fff9 fffd ffd7 ffc9 ffc6 ff84 ffa7 ffad     ................
    5edc:	ffdc ffb1 ffc9 ffa5 ffc4 ff96 ff8c ff98     ................
    5eec:	ff9b ffd9 ff9f ffa6 ff9f ffed 001f fff2     ................
    5efc:	003a 003b 003d 0068 005c 0033 006e 0056     :.;.=.h.\.3.n.V.
    5f0c:	001b 001e 0026 001e fff3 0028 001d 002d     ....&.....(...-.
    5f1c:	002e fff9 0005 001a fffa ffd9 000c ffb6     ................
    5f2c:	ffa5 ff8d ffd3 ffaa ffc1 0014 0037 0003     ............7...
    5f3c:	ffe0 ffd7 ffcb ffe9 0002 fff7 ffb8 ffd0     ................
    5f4c:	0031 002c 0015 0020 0022 000f 002f 0002     1.,... .".../...
    5f5c:	fffd fff1 fff3 0015 ffda ffba ffd3 fff3     ................
    5f6c:	ffb4 ffef ffee 002f 0011 ffe6 001e 0049     ....../.......I.
    5f7c:	0034 0040 0018 ffff 001b ffef 0022 0038     4.@.........".8.
    5f8c:	001c fff9 ffe8 0021 002c fff7 fff1 005c     ......!.,.....\.
    5f9c:	0083 0027 0023 ffee ffbc ffe4 ffcf ffe1     ..'.#...........
    5fac:	ffe5 fff7 ffe5 0023 ffd3 ffe3 0000 0015     ......#.........
    5fbc:	001d fffd ffdf 0012 0002 ffeb 0042 004e     ............B.N.
    5fcc:	0040 ffd2 0051 0028 0039 0030 002b ffe8     @...Q.(.9.0.+...
    5fdc:	ffdb 0017 ffd8 0021 000c 0083 0030 0036     ......!.....0.6.
    5fec:	002a 0016 0009 ffe0 0008 ffe1 ffe6 fff0     *...............
    5ffc:	ffaf ffa9 ffac ff94 ff9f ffbc ffd7 ffbb     ................
    600c:	ffad ffb2 ffb8 ffda ff9a ff91 ffc4 0014     ................
    601c:	0000 000a 0005 0000 0002 ffe1 0026 ffc8     ............&...
    602c:	ffb8 ffd7 002e 0034 fff3 002c 005a 0011     ......4...,.Z...
    603c:	0019 0015 0023 0055 002e 0012 0006 ffc5     ....#.U.........
    604c:	fff0 0001 000e 003b 0032 0036 0054 001f     ......;.2.6.T...
    605c:	0033 005e 005f 0057 0005 0005 ffdb ffda     3.^._.W.........
    606c:	ffe4 ffe8 fff4 0037 002f 0005 001e ffec     ......7./.......
    607c:	0010 000d 0013 002a 000d 0014 ffbc ffc1     ......*.........
    608c:	ffd6 000d ff69 ff8d ffc1 ffcb ffb9 ff90     ....i...........
    609c:	ffb0 ffbc 0008 ffef fff5 ffe6 0019 0036     ..............6.
    60ac:	ffd4 fff2 fff8 0053 004c 003b 0033 003f     ......S.L.;.3.?.
    60bc:	0050 003c fffd 0037 0049 0021 0054 000b     P.<...7.I.!.T...
    60cc:	001d 0012 0039 fff7 fff8 ffd5 ffdf ffea     ....9...........
    60dc:	ffa1 ffcb ffd4 ffb4 ff9c ffa5 ffcf 000d     ................
    60ec:	ffd9 fffd 003f fff6 0026 0008 0032 fffb     ....?...&...2...
    60fc:	0043 001d 0060 0026 0020 005a 0017 0041     C...`.&. .Z...A.
    610c:	fff2 ffd4 ffef 0019 ffd9 ffab ffc1 003e     ..............>.
    611c:	ffc0 ffaa fff6 001d fff0 000c 0053 000c     ............S...
    612c:	ffd5 ffad ffbb 0008 0042 002b 0020 fff0     ........B.+. ...
    613c:	0014 001c 0033 004a 0083 ffff ffe6 ffee     ....3.J.........
    614c:	ffe5 ffdf ffef 0000 ffd6 ffbe ff9a ff9d     ................
    615c:	ffbc ffbc ff7a ff68 ffb4 ffce ffdd ffe1     ....z.h.........
    616c:	0018 0034 0042 007b 006d 003f 003d 0028     ..4.B.{.m.?.=.(.
    617c:	0030 0073 003c 005a 002c 0027 0047 003c     0.s.<.Z.,.'.G.<.
    618c:	005c 004b fff2 ffb4 ffe6 ffe6 ffe3 fff3     \.K.............
    619c:	fffc ffbd 0004 0016 fff8 ffcd ffc7 ffc1     ................
    61ac:	ffdb ffbb ffca ffd9 ffbb ffca ffe0 ffd8     ................
    61bc:	0026 ffe4 ffe7 0008 ffcd ffc6 ffee ffd0     &...............
    61cc:	0010 000a ffdb 0019 ffbb ffd3 0026 000f     ............&...
    61dc:	ffd1 ffcd ffdd 0000 0002 003b 0044 0057     ..........;.D.W.
    61ec:	0031 0035 004f 004b 005b 0053 0022 0063     1.5.O.K.[.S.".c.
    61fc:	007e 0061 0065 0067 0085 0026 0056 004e     ~.a.e.g...&.V.N.
    620c:	0034 0036 0014 ffcc ffa7 ffe8 ff8f ffb7     4.6.............
    621c:	ff6e ffba ffd6 ffd8 ffad ffb8 ff99 ffa3     n...............
    622c:	0001 ffd5 ffcd ffd0 ffdf ffe0 ffc9 ffc9     ................
    623c:	0020 000a ffea 0022 0024 fff9 ffa7 fff7      .....".$.......
    624c:	ffdf ffd9 ffb9 fff6 ffaa fff8 001d 0008     ................
    625c:	ffea 0011 fff5 ffe7 fff9 ffc5 0003 0039     ..............9.
    626c:	fffb 000e 0021 0027 001c 001c 0039 0070     ....!.'.....9.p.
    627c:	0050 0046 0056 003c 0056 0021 001a 0009     P.F.V.<.V.!.....
    628c:	0013 0028 ffe1 000b 000c 001b 0006 001d     ..(.............
    629c:	ffd6 fffb fff6 0024 0043 0039 0017 0002     ......$.C.9.....
    62ac:	000f fff9 0016 ffee 0022 005d 0033 002c     ........".].3.,.
    62bc:	ffe0 ffd8 0016 0021 ffd5 ffc9 ff98 ff9c     ......!.........
    62cc:	ffaa ffac ff95 ffda ffb2 ffff ffc5 ffc0     ................
    62dc:	001f fff4 ffef 0037 0007 0047 0049 0045     ......7...G.I.E.
    62ec:	0027 001d 0034 fff2 ffa7 ffe3 ffa1 ff96     '...4...........
    62fc:	ffae ffb0 fff9 ffa3 ffab ff82 ff7b ff75     ............{.u.
    630c:	ff6d ff8f ffa9 ffe8 000f 0016 fff9 0013     m...............
    631c:	0041 0044 008e 007f 005a 007e 00a5 0068     A.D.....Z.~...h.
    632c:	0095 006a 00b8 0020 0064 001e ffe7 ffe5     ..j... .d.......
    633c:	0006 ffbd ffc6 ff95 ffb0 ffbd ffa5 ffde     ................
    634c:	ffc9 ff94 ffe2 ffcc 0000 000c 0040 0078     ............@.x.
    635c:	0004 0045 008b 004e 008c 0060 000d 001e     ..E...N...`.....
    636c:	0026 001b ffdb ffbc ffff ff9c ffc5 ffdc     &...............
    637c:	ffc3 ffcf ffdd 002f ffc9 ffc5 0005 0015     ....../.........
    638c:	fff2 0036 0019 004a 0089 0087 00c7 0082     ..6...J.........
    639c:	0073 00a1 0055 000b 0010 002d ffe6 ff85     s...U.....-.....
    63ac:	ff5b ff7d ff61 ff79 ff66 ff7e ff7e ffa6     [.}.a.y.f.~.~...
    63bc:	ff74 ffa9 ffb0 ffdf fff9 005d 001e ffe5     t.........].....
    63cc:	005c 004c 003b 0023 0015 0028 0029 0022     \.L.;.#...(.).".
    63dc:	fff6 ffef ffec ffac ff9a ffad ff6a ff45     ............j.E.
    63ec:	ff1d ff18 ff5b ff50 ff43 ff9c ffd4 ffd7     ....[.P.C.......
    63fc:	ffd1 0060 0061 007b 00ab 0103 0142 0144     ..`.a.{.....B.D.
    640c:	015e 0191 01a7 018f 017c 0133 00e3 00aa     ^.......|.3.....
    641c:	0069 0038 0017 000f fffb ffe1 ffde ffa5     i.8.............
    642c:	ff3f fef7 fe4e fe20 fdff fdc9 fe10 fe3e     ?...N. .......>.
    643c:	fe81 ff1c ff81 ffb0 ffbc ff92 ff81 ff33     ..............3.
    644c:	ff6d ff70 ff90 001b 0060 004f 00c0 0111     m.p.....`.O.....
    645c:	014a 015c 018a 01ae 01b8 01e7 01d9 019a     J.\.............
    646c:	017f 0147 0147 00c2 007e 0082 0087 0048     ..G.G...~.....H.
    647c:	0042 0008 ffec fff4 ffc4 ff36 fec8 fea6     B.........6.....
    648c:	fe9d fe5d fe66 fee5 ff45 ff63 ffc2 ff91     ..].f...E.c.....
    649c:	0004 ffbc ff78 ff9a ff81 ffec ffce ffbf     ....x...........
    64ac:	ffde 0010 fffe ffb5 ff0c ff71 ff67 ff76     ..........q.g.v.
    64bc:	ff3d ff55 ffb4 fff9 0027 0023 ffc1 0044     =.U.....'.#...D.
    64cc:	00ad 00d8 00df 0128 016c 01d0 017a 0181     ......(.l...z...
    64dc:	0186 01b3 01be 0176 0136 00af 0064 0013     ......v.6...d...
    64ec:	ffa3 ff0a feca fe79 fe2d fe05 fe22 fdd6     ......y.-..."...
    64fc:	fe06 fe42 fe23 fe76 fee9 fef8 feec fed9     ..B.#.v.........
    650c:	ffa4 ffbd 0003 0081 00c4 00f4 019c 0195     ................
    651c:	017f 01aa 0167 0179 0131 010e 00e5 00b2     ....g.y.1.......
    652c:	00ee 00a3 0061 0093 0085 000d 0020 0039     ....a....... .9.
    653c:	0017 ffc8 0017 ff9a ff8e ffbf ff9b ff90     ................
    654c:	ffe5 002a fffa 000a 0035 0072 002a ffed     ..*.....5.r.*...
    655c:	0009 ff95 ff76 ff1f ff21 ff4d ff45 ff5a     ....v...!.M.E.Z.
    656c:	ff34 ff5f ffac ffde ff8e ffc1 ffff 0050     4._...........P.
    657c:	ffe6 001b 001c 003b 0008 0060 004e fff6     ......;...`.N...
    658c:	0011 ffff 0014 ffe8 ffaa ffc4 ffe9 000e     ................
    659c:	ffbe ffbf 0006 fff3 ffdc 000d 002d 001f     ............-...
    65ac:	008c 0080 00ad 00ac 0086 0077 0082 0085     ..........w.....
    65bc:	0020 fffb ffe8 ff97 ff7c ffeb ffe3 ffba      .......|.......
    65cc:	ff76 ffe2 ffc5 ffb2 ff92 000d ffea ff65     v.............e.
    65dc:	ffa1 ffc6 0013 fff3 0000 002f ffdc fffd     ........../.....
    65ec:	0033 0000 ffee fffd 0006 ffce 0018 0033     3.............3.
    65fc:	0030 0015 0034 004f ffbb 0009 008b 001c     0...4.O.........
    660c:	0061 0009 0038 00b6 0061 00a8 0068 0022     a...8...a...h.".
    661c:	0028 ffff ffcc ffbd ffab ffed 0016 ffeb     (...............
    662c:	ffee 0005 0059 0004 fff2 ffff ff99 ffb3     ....Y...........
    663c:	fffb ffcc ff9c ffb6 ffdf ffd7 ffd0 ffe0     ................
    664c:	ffa9 ff83 ffc4 ff55 ff65 ff9f fffa 0011     ......U.e.......
    665c:	ffec ffc6 000a 0009 004b 0041 002f 0076     ........K.A./.v.
    666c:	00a1 0063 0064 0075 0072 009b 00ae 0040     ..c.d.u.r.....@.
    667c:	fff3 003d 0061 0071 001d 000c 001e 0034     ..=.a.q.......4.
    668c:	fff3 0029 ffcc ffc3 ffd0 fff9 ff90 ff24     ..)...........$.
    669c:	ff6d ffaf ff7b ff29 ff90 ffb9 ffe8 ffef     m...{.).........
    66ac:	0029 0032 0011 003a 0019 fff0 ffef ffc9     ).2...:.........
    66bc:	ff70 ffbe ff7e ffa2 ff57 ff7e ffd2 ffd8     p...~...W.~.....
    66cc:	ffc2 ff9d ffdb 000d 0012 fff0 000e 00b0     ................
    66dc:	00d4 00c6 00df 00ee 00fa 0104 00be 00fd     ................
    66ec:	0105 00b1 00eb 009b 0094 0021 0005 ffeb     ..........!.....
    66fc:	ffb7 ff91 ff1d fefa fed3 ff23 fef7 fee1     ..........#.....
    670c:	fef1 ff2f ff4c ff61 ffac ff70 ff57 ffe1     ../.L.a...p.W...
    671c:	000a 0033 006f 006b 0046 0078 006b 007f     ..3.o.k.F.x.k...
    672c:	0080 0070 0093 00df 0075 007a 007d 0098     ..p.....u.z.}...
    673c:	0089 ffe3 ffff ffec 008c 0042 0011 ffe4     ..........B.....
    674c:	ffe9 0003 ffa6 ffb5 ffc3 0036 fff9 ffc7     ..........6.....
    675c:	0016 002b ffad fff0 ffff fff4 ffcf ffab     ..+.............
    676c:	ff9e ff7e ff81 ff70 ff81 ff5f ff77 ff6b     ..~...p..._.w.k.
    677c:	ff28 ffa3 ffce ffc0 ffb1 ffcc ffec ffe4     (...............
    678c:	ffea fffd ffe8 002d 006c 0077 0059 0076     ......-.l.w.Y.v.
    679c:	0090 007c 0066 0044 00ac 0091 00c3 0089     ..|.f.D.........
    67ac:	0028 0068 0069 ffd3 000e 0025 fff8 001a     (.h.i.....%.....
    67bc:	0018 ffed ffd4 fff6 0001 ffd5 ffa2 ff97     ................
    67cc:	ffa6 ffaf ff6d ffb0 ffe2 fffa 0010 0068     ....m.........h.
    67dc:	0058 0045 0020 003f 006f 005f 001e ffd2     X.E. .?.o._.....
    67ec:	0051 0036 ffcb ff9a ffd8 ffbe ff8c ff84     Q.6.............
    67fc:	ff5b ff8c ffa9 fffc 0004 ff82 002a 0035     [...........*.5.
    680c:	0011 0022 0075 004d 0057 00b9 0043 002b     ..".u.M.W...C.+.
    681c:	0013 0006 fff7 ffda ff9c ff9d fff8 fffc     ................
    682c:	ffab ffbe fffd ffc8 ffef 001d 0006 ffb4     ................
    683c:	ffef fffb 0014 0014 0018 005a 0028 0079     ..........Z.(.y.
    684c:	0049 001f 0052 0053 0080 002f ffeb ffb8     I...R.S.../.....
    685c:	ffd0 ffb6 ffcc ff9b ffc0 ffd2 fff7 ffef     ................
    686c:	ffe1 ffb8 0005 003a 002b fffd 0029 0069     ......:.+...).i.
    687c:	0052 0039 0004 001a 000a 002e 003c 0043     R.9.........<.C.
    688c:	0037 005f 0065 002c 0007 ff7d ffa7 ff88     7._.e.,...}.....
    689c:	ff84 ff30 ff42 ffbc ff6d ff72 ffc0 ffe6     ..0.B...m.r.....
    68ac:	ffb2 ffc4 ffeb ffbd ffb3 ffad ff9e ffa0     ................
    68bc:	ffcc 000d ffc7 0008 ffee 001e 0058 002a     ............X.*.
    68cc:	0055 0089 00a4 00e4 00d1 011c 00f9 00df     U...............
    68dc:	00da 00b1 008f 005d 003d 0023 004f 0072     ......].=.#.O.r.
    68ec:	0056 ffcc fff4 ffb4 ff9f ff69 ff48 ff6e     V.........i.H.n.
    68fc:	ff62 ff9e ff21 ff0d ff10 ff17 fed1 ff02     b...!...........
    690c:	ff6b ff9e 0000 0020 0021 000d 007c 007e     k..... .!...|.~.
    691c:	0062 008b 0093 00ab 009c 0088 0092 008b     b...............
    692c:	0087 007c 0054 006a 0042 fffd ffec ff8d     ..|.T.j.B.......
    693c:	ff79 ff9b ffb5 fff0 ffcf 0018 0018 0051     y.............Q.
    694c:	0044 fff5 fffe 0032 0007 ffe9 ffa2 ffd1     D.....2.........
    695c:	ff75 ff5a ffca ffae ffb1 ff92 ff67 ff95     u.Z.........g...
    696c:	ff66 ff5d ff76 ff8d ffe0 ffa2 ffd8 ffe3     f.].v...........
    697c:	000a 0032 0035 0089 00de 00f3 00eb 00ea     ..2.5...........
    698c:	00e5 00dd 010a 010e 00bb 0083 0082 0081     ................
    699c:	0072 002d 0018 ffd8 ffc5 ffb2 ff78 ff6a     r.-.........x.j.
    69ac:	ff50 ff33 ff85 ff88 ff5b ff87 ff8a ff37     P.3.....[.....7.
    69bc:	ff95 ff78 ff33 ff9c ff92 ffbe ff7c fff1     ..x.3.......|...
    69cc:	ffb0 ff8e ffc4 ffe0 ffd4 ffb9 0020 fff8     ............ ...
    69dc:	ffdf ffe6 000f 0040 003f 0095 0078 003c     ......@.?...x.<.
    69ec:	007e 00bc 00d6 0099 00da 0102 0112 00e8     ~...............
    69fc:	00f3 00aa 0057 0043 fffa ff8e ff5c ff6c     ....W.C.....\.l.
    6a0c:	ff8e ff7e ff56 ffa6 ff5e ff81 ff6c ff61     ..~.V...^...l.a.
    6a1c:	ff84 ff59 ff6e ff7a ffce 000f 007f 009b     ..Y.n.z.........
    6a2c:	0063 00ce 0127 00c6 00f2 00d3 00ab 00ab     c...'...........
    6a3c:	005f 0058 0027 0020 ffe7 fff4 ffcd 0005     _.X.'. .........
    6a4c:	ff9d ff76 ff9a ff96 ffd0 ffd1 ffc0 fff1     ..v.............
    6a5c:	ffdf 002f ffc4 ffd1 000a ffd0 ffde ff94     ../.............
    6a6c:	ffee ffd1 ff7c ff84 ff92 ff9e 0007 0001     ....|...........
    6a7c:	ffd0 0019 ffe8 ffa9 ff51 ff54 ff57 fee6     ........Q.T.W...
    6a8c:	ff11 ff6d ff76 ff8e ff78 ffe2 0043 0054     ..m.v...x...C.T.
    6a9c:	0018 0011 0068 0058 000f 0004 0062 003e     ....h.X.....b.>.
    6aac:	0089 0082 006c 0042 008f 0099 00b9 006c     ....l.B.......l.
    6abc:	0088 003a 0096 0069 009a 00c2 00f4 0125     ..:...i.......%.
    6acc:	00cd 00f0 00b2 00e1 005d 008f 007a 0033     ........]...z.3.
    6adc:	0001 ffd0 000e ffbc ffcf ffbf ffc6 ff29     ..............).
    6aec:	ff4c ff56 fee4 fedf fef6 ff2a ff13 ff54     L.V.......*...T.
    6afc:	ff0a ff72 ffa6 ffe2 ffbe ffbe ffe5 ffe1     ..r.............
    6b0c:	0026 ffe3 001e ffe6 0028 ffd8 0011 ffed     &.......(.......
    6b1c:	0010 002e ffc8 ffd3 ff8d ffaa ff93 fffd     ................
    6b2c:	ffdf ff95 ffe0 003d 0038 004c 0076 006e     ......=.8.L.v.n.
    6b3c:	00c8 00f7 00ad 00f7 0142 0117 00f1 00fb     ........B.......
    6b4c:	0114 00b0 00c6 0097 0084 001c ff8d ff76     ..............v.
    6b5c:	ff13 ff2d ff19 feb6 ff10 fec5 ff01 ff23     ..-...........#.
    6b6c:	ff0f fed2 ff2f ff28 ff13 ff12 ffb8 ffe4     ..../.(.........
    6b7c:	fff7 0069 0073 0079 00b0 00b2 00cb 007b     ..i.s.y.......{.
    6b8c:	00b2 00ff 012d 014a 00d9 00b2 00f4 00b6     ....-.J.........
    6b9c:	0015 ffe5 fff4 0043 fff8 ffe8 ff8b ff94     ......C.........
    6bac:	001b ffdf ff7d ff35 ffd7 ffea fff6 fff2     ....}.5.........
    6bbc:	fff9 ffed 0023 0080 0018 ffde 0027 004c     ....#.......'.L.
    6bcc:	0035 ff88 ff3c ff52 ffbc ff8b ff56 ff60     5...<.R.....V.`.
    6bdc:	ff0f ff34 ff19 fee6 ff27 ffa2 ff92 ffd8     ..4.....'.......
    6bec:	000e 000f fffe 0046 007c 004a 0066 0085     ......F.|.J.f...
    6bfc:	008c 00e4 010b 0101 014b 0151 0120 00f2     ........K.Q. ...
    6c0c:	00f6 0128 00dd 0088 004d fff8 fffb ffdc     ..(.....M.......
    6c1c:	ffb4 ff6f ff42 ff4c ff68 ff36 ff39 ff41     ..o.B.L.h.6.9.A.
    6c2c:	ff61 ff49 ff76 ff76 ffa9 ffd9 ffe3 ffbb     a.I.v.v.........
    6c3c:	ffdf 0003 0026 ffec 004d 0071 00d0 00cd     ....&...M.q.....
    6c4c:	004e 0043 004a 002a ffc0 fffc ff84 ffa3     N.C.J.*.........
    6c5c:	ff54 ffa9 ff97 ffc0 ff69 ffc1 ffe0 0016     T.......i.......
    6c6c:	ffec ffd1 002e ffa5 007a ffe8 004c 0083     ........z...L...
    6c7c:	0082 0015 0003 ff94 ff6a ff4a ff5c ffa2     ........j.J.\...
    6c8c:	ffd9 002f 003a 002c ffe9 003f 002c 0019     ../.:.,...?.,...
    6c9c:	0095 ff9d 0027 0061 002e 0015 0058 0073     ....'.a.....X.s.
    6cac:	fff0 0086 00bb ffa7 0077 0056 0013 011d     ........w.V.....
    6cbc:	005c 00d3 0045 00ea 00ca ffee 005e ffe6     \...E.......^...
    6ccc:	ffc0 ff8b fff7 ff74 ffa5 ffcd ff6d ff6e     ......t.....m.n.
    6cdc:	ff8d ffc1 ff4d ff0d fff6 ff91 fecb fee5     ....M...........
    6cec:	ff80 ff63 ff5f ff47 003c ffcc 004c 009b     ..c._.G.<...L...
    6cfc:	0042 005d 0064 004b 0081 0031 005a 00e3     B.].d.K...1.Z...
    6d0c:	00ba 00c2 012f 013a 0061 00e4 00b3 004a     ..../.:.a.....J.
    6d1c:	fffe ff6c ffaa feee ff2d feed ff3f ff61     ..l.....-...?.a.
    6d2c:	ff20 ff24 fed7 ff17 ff27 ff61 ff2b fff8      .$.....'.a.+...
    6d3c:	ffcd ff8d ff54 0010 fffc 0012 ffd9 0021     ....T.........!.
    6d4c:	0062 0069 0075 00aa 0123 01ce 0210 019e     b.i.u...#.......
    6d5c:	0183 0148 013d 0115 00be 00c7 008b 0096     ..H.=...........
    6d6c:	002a ffb2 ff8c ff8a ff83 ff49 ff68 ff37     *.........I.h.7.
    6d7c:	ff1d ff50 ff16 fe91 fe9e fee0 fece feb2     ..P.............
    6d8c:	ff0b ff6b ff6b ff7d ffd8 ffa5 0039 0076     ..k.k.}.....9.v.
    6d9c:	004c 0031 fff8 006b 0057 ffff 003d 00a3     L.1...k.W...=...
    6dac:	00ac 0077 008f 0053 003a 000c 0056 0055     ..w...S.:...V.U.
    6dbc:	0042 002b 005c 004a 0096 0082 005a 00c8     B.+.\.J.....Z...
    6dcc:	011f 0082 0047 0080 fffd ffe9 ffbb ff6e     ....G.........n.
    6ddc:	ff72 ff6c ffc9 ffea ff65 ff58 ff4b ff42     r.l.....e.X.K.B.
    6dec:	ff6b ff4e ff5a ff17 fee3 ff08 feb6 fed3     k.N.Z...........
    6dfc:	ff6f ffdf 0044 0046 00ae 00c5 0116 011b     o...D.F.........
    6e0c:	0128 0110 0166 0165 00f0 00f8 0086 00c4     (...f.e.........
    6e1c:	005a 0060 0039 005f 006c 004b 0044 0069     Z.`.9._.l.K.D.i.
    6e2c:	0021 ff9e ffa7 ff8e ff94 ff73 ffb7 ff2e     !.........s.....
    6e3c:	ff39 ff0a fefd ff42 ff79 ffee ffb1 ffe2     9.....B.y.......
    6e4c:	0027 ffe7 ffed ffea fff5 ffd4 ff89 ffa3     '...............
    6e5c:	ff3d ff25 ff6a ff49 ffb2 ffb3 ff98 ffb8     =.%.j.I.........
    6e6c:	0008 000e 002c 0011 0058 0037 ffd8 ffdc     ....,...X.7.....
    6e7c:	0055 0042 007a 0098 00d5 0129 012d 0107     U.B.z.....).-...
    6e8c:	00cd 00b6 00ee 008d 0086 00a7 00bb 009c     ................
    6e9c:	0063 0052 0020 0065 0023 0053 0022 005a     c.R. .e.#.S.".Z.
    6eac:	001c ffbe ff59 ff19 feb7 ff44 fec5 fe7d     ....Y.....D...}.
    6ebc:	fef8 ff14 fefa ff05 ff3f ff54 ff54 fef5     ........?.T.T...
    6ecc:	ff1f ff7b ffd6 ffb3 fffa 0024 007d 004d     ..{.......$.}.M.
    6edc:	003a 0003 0042 0065 00b4 00db 0047 0087     :...B.e.....G...
    6eec:	003f 006e 001e ffed 0014 0046 0044 004c     ?.n.......F.D.L.
    6efc:	0076 0093 00e3 0087 0074 0049 009d 0097     v.......t.I.....
    6f0c:	00a9 0088 0053 009b 003e 0091 0091 00df     ....S...>.......
    6f1c:	00fb 0106 00c8 0075 0001 ffd1 ffa3 ff1a     ......u.........
    6f2c:	ff2b ff0f fe76 feb6 feb1 ff0a ff2f ff0c     +...v......./...
    6f3c:	ff23 ff2d ffcb ffc5 ffb7 000e 0029 ffef     #.-.........)...
    6f4c:	fff6 003c 000a 003d ffe2 001b 0002 0038     ..<...=.......8.
    6f5c:	0027 0054 0050 0017 ffdb ff8e ffc7 ff99     '.T.P...........
    6f6c:	ff38 ff60 ff41 ff3c ff1a ff5a ffc0 fff3     8.`.A.<...Z.....
    6f7c:	001e 008a 00a1 0071 0055 004b ffeb fff8     ......q.U.K.....
    6f8c:	0007 ff47 ffc7 ffba ffc5 00b5 007c 00b1     ..G.........|...
    6f9c:	00c0 0037 002e 0062 ffff ffc1 0022 0017     ..7...b....."...
    6fac:	0068 00b0 0106 00ef 0125 0113 00e5 00df     h.......%.......
    6fbc:	00dd 00ae 0059 007b 0051 0009 0022 ffb7     ....Y.{.Q..."...
    6fcc:	ffbe 0006 ff81 ff8e ff42 ff41 ff3d ffc2     ........B.A.=...
    6fdc:	ffaa ff78 0038 0095 0006 005d 00b0 0090     ..x.8.....].....
    6fec:	0075 008c 0026 0010 ffe3 ffe2 ffaa ff24     u...&.........$.
    6ffc:	ff48 ff2f ff2a fedc ff32 ff3a fed3 fe6b     H./.*...2.:...k.
    700c:	febc fecf fe6d fe68 ff2e ff9a ffb1 001d     ....m.h.........
    701c:	0085 009a 006f 001b 002a 0088 003b 005a     ....o...*...;.Z.
    702c:	0046 009c 00d1 00f1 0112 00ec 00dc 0112     F...............
    703c:	00fa 006d 0030 004b 0024 001c ffa5 ffa6     ..m.0.K.$.......
    704c:	ff53 ffe3 0007 003b 0038 003a 00e6 00aa     S.....;.8.:.....
    705c:	0088 ffe9 fffd ffe2 ffa3 ff67 ff40 ff3f     ..........g.@.?.
    706c:	ff61 ff3f ff7f ffb9 0029 0076 007c 00bc     a.?.....).v.|...
    707c:	0099 0039 ffff 0069 005e 005d 005a 008c     ..9...i.^.].Z...
    708c:	00cc 00eb 011f 0127 0120 014e 0107 009f     ......'. .N.....
    709c:	003a ffe5 ff6a ff47 ff20 ff2a febb fe3c     :...j.G. .*...<.
    70ac:	fe15 fe7a fef1 f941 fb7f fd99 0001 ff37     ..z...A.......7.
    70bc:	ff41 0075 018f 01ca 021c 0177 00f5 0004     A.u.......w.....
    70cc:	00b8 01e0 0050 ff20 ff42 003a 00e1 00fb     ....P. .B.:.....
    70dc:	ffa8 0074 00ba 00a0 0097 ffe2 ff78 ff9e     ..t.........x...
    70ec:	0013 ff76 ff5f fec3 ff4b 0036 0084 010c     ..v._...K.6.....
    70fc:	019c 0196 0174 0240 011c 0113 014d 0104     ....t.@.....M...
    710c:	0120 0043 00c7 00b2 ff8b 002c 0037 ffdf      .C.......,.7...
    711c:	ff94 ffdf ffe6 fecf ffe1 fef2 ffac fee0     ................
    712c:	fe30 ff0a ff0e fdca fd71 fef3 fe65 ffb6     0.......q...e...
    713c:	0017 ff71 fee0 ff9c 00ba ff8d ff2e ff01     ..q.............
    714c:	ff21 0098 004c 003b 009f ffb9 00aa 0161     !...L.;.......a.
    715c:	0160 ffbc ff78 fed9 fff5 00c4 0000 ff9e     `...x...........
    716c:	012c 0213 0120 015c ff85 fea5 fee6 fffd     ,... .\.........
    717c:	ff45 fffc ffbf ffff 016b 0147 0168 0072     E.......k.G.h.r.
    718c:	0162 00d2 0183 ff6a 008e 002f ff10 00d4     b.....j.../.....
    719c:	ff7f 0063 ffd0 00da 0142 ff9f 0074 0040     ..c.....B...t.@.
    71ac:	0051 002d ff94 ff3e fe61 0004 0059 ff33     Q.-...>.a...Y.3.
    71bc:	fdf7 fed3 002f 00ed 013c 0022 007a 010a     ..../...<.".z...
    71cc:	00a7 016c ff22 ff0a ff58 ff16 0062 fe06     ..l."...X...b...
    71dc:	fe96 fee7 ffd3 fed4 fea7 0027 ffa0 ff54     ..........'...T.
    71ec:	ff69 0000 0027 ff72 ff58 ff56 ff8f ff82     i...'.r.X.V.....
    71fc:	ff1b 0055 0029 007b ffe2 ffee 01ac 005d     ..U.).{.......].
    720c:	004e ffa6 ff33 fe38 ff91 00ca 0001 ff6f     N...3.8.......o.
    721c:	fe15 008e 00be 002b ff87 ff40 0164 0179     ......+...@.d.y.
    722c:	00cf 0061 00da 01c3 0203 0160 00b6 0060     ..a.......`...`.
    723c:	00b2 018e 0159 008d 0022 0125 0120 005d     ....Y...".%. .].
    724c:	007a ffde 0067 006d fff1 0026 ffc8 ff23     z...g.m...&...#.
    725c:	ff36 fef0 feb7 fe43 fef8 fedc ffef ffb3     6.....C.........
    726c:	ff8a ffc1 011d 00c0 012e 00eb ffb6 00d6     ................
    727c:	0081 0039 000b 006a 0065 ff77 fe99 ff0c     ..9...j.e.w.....
    728c:	0045 0044 ff3a fffe 0144 0138 fff2 0023     E.D.:...D.8...#.
    729c:	ff8e ffe8 ffc7 fffc fef1 fecb 0088 0091     ................
    72ac:	01a4 0028 ffce 000a 0049 005b fec8 fe90     ..(.....I.[.....
    72bc:	fe47 fb25 ff36 fc96 fcfc fcc6 fd45 0064     G.%.6.......E.d.
    72cc:	fd3e fc4c fbb4 fe3e fe84 ffff ff7e 00be     >.L...>.....~...
    72dc:	01fd 02ce 045a 02a0 02da 0279 0362 03a9     ....Z.....y.b...
    72ec:	027a 0183 0107 01c4 0138 0114 0098 01e7     z.......8.......
    72fc:	01c3 0173 0113 0035 ffe9 ff64 ffc2 ff76     ..s...5...d...v.
    730c:	feb8 fe3d fee5 ff52 ff3c ffe5 0063 013e     ..=...R.<...c.>.
    731c:	013e 0163 01bc 0155 007f ff5d ff01 0003     >.c...U...].....
    732c:	ff9e fe7f fe5f ff0b ff56 ffb8 ffb1 ff38     ...._...V.....8.
    733c:	ff27 009d 014a ff83 ff80 ff13 007d 0012     '...J.......}...
    734c:	ff20 fed6 febc ff19 ffba ffed feff fe39      .............9.
    735c:	ff9a 014f 021c 0150 ffb4 ffd3 00a1 00de     ..O...P.........
    736c:	0079 fe06 fd45 fe63 ff99 ff72 fede 0034     y...E.c...r...4.
    737c:	008a 01ed 0037 00bb 011f 0043 00a4 ff33     ....7.....C...3.
    738c:	ff70 fdba ff42 ff4e ff74 ff88 ff92 0127     p...B.N.t.....'.
    739c:	008a 0130 0038 00bf 0038 00ec 005a ff37     ..0.8...8...Z.7.
    73ac:	feee 001f 00f7 005d 000a 0119 0288 018f     ......].........
    73bc:	01c4 00ee 012b 006b 0057 000a ff90 feec     ....+.k.W.......
    73cc:	fff3 00ab ff7f ff18 fdc4 ff71 ffaf 0084     ..........q.....
    73dc:	ff7a fe9d fe7e fe92 ff80 ff0d ff63 fe60     z...~.......c.`.
    73ec:	0056 ff68 0055 ff21 ffb9 0056 0016 014d     V.h.U.!...V...M.
    73fc:	ffb8 0162 ffab 00af 0088 0066 0106 010b     ..b.......f.....
    740c:	013d 0055 014f 003b 00a5 ffd9 fff1 00f1     =.U.O.;.........
    741c:	00bf 009e 0107 012b 005e ffa7 ffe1 ffd6     ......+.^.......
    742c:	0061 0056 ffc4 009b 0124 0106 0012 ff50     a.V.....$.....P.
    743c:	feb2 ffb9 ff4d ff85 fedf fe61 fe57 fea9     ....M.....a.W...
    744c:	ff02 ff13 fb15 fb6f fedb ffd1 00d5 fedc     ......o.........
    745c:	ff1b ffa4 007d 006b ff66 ff0d ff30 003f     ....}.k.f...0.?.
    746c:	00fb ffda ff6a 00ba 0208 01f8 0129 01fb     ....j.......)...
    747c:	0229 021e 00d4 000f 0041 00ab 00d8 ffd3     ).......A.......
    748c:	0028 00b6 01df 0171 009f 0093 0207 01d2     (.....q.........
    749c:	016f 002d ffdd ff74 ffa6 0035 feb0 fde4     o.-...t...5.....
    74ac:	ff0d 00c2 0009 ff65 fe79 fe82 feff 002b     ......e.y.....+.
    74bc:	ffb8 fea9 feb7 ff61 0018 ffe8 ff71 ff3c     ......a.....q.<.
    74cc:	0103 0073 0073 004e 0030 ff9a 0032 00f7     ..s.s.N.0...2...
    74dc:	0064 0001 ffe0 00c2 fff0 ff71 ff33 0040     d.........q.3.@.
    74ec:	ffde ffbc ffc6 ffaa 0058 000b 0025 fefa     ........X...%...
    74fc:	ff55 0020 0000 ff92 ffc3 ff56 ffb1 ffae     U. .......V.....
    750c:	ffad ffa4 ffd5 00cc 010c 004a ff6d ffa7     ..........J.m...
    751c:	000c 0033 ff07 fef3 000f 00e5 0078 006a     ..3.........x.j.
    752c:	0016 ffde 0095 008e ffba fed6 ffdb 011d     ................
    753c:	0043 ff99 ff62 ff88 0098 0103 0105 001a     C...b...........
    754c:	0046 00eb 004f ffa7 ff49 ff33 fff2 0017     F...O...I.3.....
    755c:	006d 0024 ffa3 001d 013d 010b 0102 004a     m.$.....=.....J.
    756c:	00fd 0094 fff1 ff5d ffc8 ffef fed0 feba     ......].........
    757c:	ff68 0021 ff89 ffdd ff94 0010 0046 008f     h.!.........F...
    758c:	0026 ff2a ff33 fff6 ffc4 ff3b ffc6 ffa9     &.*.3.....;.....
    759c:	003f 0046 0022 00ab 00f6 0170 0088 0085     ?.F.".....p.....
    75ac:	00d9 00eb 0084 00ae 0061 ff84 009b 00da     ........a.......
    75bc:	ffb5 fe87 fedb ff8e ffbf fffd ff29 ff46     ............).F.
    75cc:	ffb8 003a ff26 fea8 fea4 fffc ffd6 ff50     ..:.&.........P.
    75dc:	fe8b ff66 ff58 00b0 00d5 0098 00c7 0110     ..f.X...........
    75ec:	0223 0060 000c fff0 00a7 0037 ff58 fe84     #.`.......7.X...
    75fc:	fee5 ff83 ffcd ffd1 fee6 ffab 004e 00f1     ............N...
    760c:	0010 fef3 ff05 000d 0014 000f ff36 ff15     ............6...
    761c:	0123 01a7 00fa 0004 002f 013b 009c 00b3     #......./.;.....
    762c:	004f ffb8 ffbf fffe 0057 ffe3 ff76 fed2     O.......W...v...
    763c:	ffc1 fffd 0068 ffa6 ffa2 005c 008a 0062     ....h.....\...b.
    764c:	0064 004b 0037 00c3 0158 0062 ffb5 ff92     d.K.7...X.b.....
    765c:	00f8 0108 0107 ffaf ffaf 00b3 0105 003f     ..............?.
    766c:	ff64 ffbf ffde 00de ffa3 ff52 fdfa ffcf     d.........R.....
    767c:	ff77 ffe0 fe70 feef 0017 0074 ff9f fea8     w...p.....t.....
    768c:	002c 0056 00bb ff86 ffdb ff95 fff2 ff57     ,.V...........W.
    769c:	ff60 fecf ff16 ff01 ff93 ffe0 0043 ff6f     `...........C.o.
    76ac:	ffa6 ffa0 00b9 00c3 000f ffe4 0134 0206     ............4...
    76bc:	00f2 0040 0001 00d7 012e 0197 000e 000f     ..@.............
    76cc:	002b 0162 004c ff75 ffd0 0066 0027 ffb0     +.b.L.u...f.'...
    76dc:	ff1b fed6 ff7f feab ff16 0014 0078 ffc3     ............x...
    76ec:	009a 004a 010c 0071 ff84 ff4d 0047 0077     ..J...q...M.G.w.
    76fc:	ff3d feb8 ff41 00d6 000d fffd ffd8 00d2     =...A...........
    770c:	00f2 00dd 004f ff4c ff3d 0078 0112 fffa     ....O.L.=.x.....
    771c:	ff84 ffcc fff1 fff8 00a3 002c ffc7 0020     ..........,... .
    772c:	008b 005f 0069 ffeb 006a ffce ffc4 0015     .._.i...j.......
    773c:	ff77 ff84 ff6d 0038 ffd5 ff67 fe9d ff5f     w...m.8...g..._.
    774c:	ffea ff55 ff24 fede ffd1 ffa0 ff22 feb2     ..U.$......."...
    775c:	ff56 ffc2 fff8 ffc8 fffd 002e 006c 0096     V...........l...
    776c:	00e0 00d8 006a fff1 0071 00be 00b0 ff90     ....j...q.......
    777c:	0020 004d 00b6 0082 005a 003d 001c 0078      .M.....Z.=...x.
    778c:	0070 0093 fff7 001b ff54 ffd1 000e 0088     p.......T.......
    779c:	004e 0027 00b1 009c 00ee 00a6 0082 ffb2     N.'.............
    77ac:	ffb2 0047 002e ffa4 ff7a ffcf 00cb 0071     ..G.....z.....q.
    77bc:	ff6a ffc6 ffd4 0042 ffaf ff32 ff08 fef8     j.....B...2.....
    77cc:	ffc5 fed6 ff97 ff59 0093 002c 0120 ffb6     ......Y...,. ...
    77dc:	ffbe fff2 ffe7 ff83 fed2 ff44 ff95 002e     ..........D.....
    77ec:	ff31 0010 0005 00c1 008a 010a 0044 ffea     1...........D...
    77fc:	ffff 00c0 00a6 ffea ff50 ffb8 01ad 012b     ........P.....+.
    780c:	008b ffd9 0124 016a 01a9 ffc5 ff53 ffab     ....$.j.....S...
    781c:	007c ff6a fefc fef3 ff67 ff7a ff27 ff45     |.j.....g.z.'.E.
    782c:	fe4a fe7f febb ffea ff51 ffb6 fea2 ff77     J.......Q.....w.
    783c:	000e 002c 009b 007a 00d0 0085 016d 0146     ..,...z.....m.F.
    784c:	011a 0040 009f 0059 009f 0032 0037 0005     ..@...Y...2.7...
    785c:	0041 ffde 0011 ffd6 ffad fec3 fe7e ff1e     A...........~...
    786c:	ff78 ff6a ff8c ffad ffbc 0074 006e 0155     x.j.......t.n.U.
    787c:	002c 005b ff6d 0059 005f 006d ffcb 00b6     ,.[.m.Y._.m.....
    788c:	00b6 0103 00b4 0026 0016 ffc8 004b ffb4     ......&.....K...
    789c:	0033 fff5 0034 ffc9 ffce ff12 ff95 0019     3...4...........
    78ac:	0066 ffc4 ff55 ff6d 0057 002e ffb7 fe68     f...U.m.W.....h.
    78bc:	ffbd 00d6 00b8 002d ffd1 0061 0087 00ba     ......-...a.....
    78cc:	007b 0101 006e 00a8 0060 003c ff76 0008     {...n...`.<.v...
    78dc:	002f 0040 002e ffd7 ffab ffdd 0054 ffc5     /.@.........T...
    78ec:	ffcd ff97 0095 0052 fff7 ff5e ff83 ffeb     ......R...^.....
    78fc:	ffdf ffef ffa2 ffb1 ff98 001d fff6 ff50     ..............P.
    790c:	ff5e ff3a ffc9 ff3a ff3f ff4e ff5d ff67     ^.:...:.?.N.].g.
    791c:	ffd9 0015 ffac ffdb ffe1 ffd9 ffdd ffe9     ................
    792c:	ff8d ffbf ffc5 ffe4 0053 005e 0108 0004     ........S.^.....
    793c:	fff8 ffad 003f ff9f 002b ffd1 fff6 009d     ....?...+.......
    794c:	0089 0076 ffdc ffd9 0018 0097 00ad 0055     ..v...........U.
    795c:	ffd8 ffdd 0090 0103 00b8 0064 005c 00f2     ..........d.\...
    796c:	00a0 00c0 0075 003c ff97 006e 0052 0079     ....u.<...n.R.y.
    797c:	ff96 ff4c ff66 0005 ffcd ffd0 0016 002b     ..L.f.........+.
    798c:	0081 0045 004e ffbd 004b 0019 ff9f ff3a     ..E.N...K.....:.
    799c:	ff98 ffd4 ffbc ff3b ff5d 0044 00ae 003c     ......;.].D...<.
    79ac:	fffc 008b 0097 0059 ff77 ff44 ffa0 ffb2     ......Y.w.D.....
    79bc:	ff5a ff21 ff2f ff4d ffb9 0057 0035 ffd7     Z.!./.M...W.5...
    79cc:	0019 0002 005c 000c 000b ffee 003a ffd4     ....\.......:...
    79dc:	ffd9 0054 0013 0021 0032 0069 0065 004d     ..T...!.2.i.e.M.
    79ec:	ffeb 003d 0001 ffff ff6a ff9f 0019 ffc2     ..=.....j.......
    79fc:	ff93 ffa9 ffe4 0009 ffa6 ffbb 0050 007a     ............P.z.
    7a0c:	002f ff97 ff72 ffbd ffb7 ff6e ffca ff8e     /...r.....n.....
    7a1c:	ffee ffd3 0017 002e 0027 fffa ffe1 fffd     ........'.......
    7a2c:	005d 0026 ffdd ffc7 ffdf 000f fff4 001a     ].&.............
    7a3c:	0023 00ac 0086 004c 004f 0098 007c 0074     #.....L.O...|.t.
    7a4c:	007f 0093 00a9 0067 0068 0002 ffbb ffcc     ......g.h.......
    7a5c:	0023 0040 001e ffc6 001c 0041 0097 005d     #.@.......A...].
    7a6c:	ffe0 ffae ff85 fff6 ffd4 ff32 fef7 ff81     ..........2.....
    7a7c:	0014 0028 fff4 ffd7 0012 009d 0098 ffda     ..(.............
    7a8c:	ffb2 ff7c ffd4 0001 ffb3 ff6f ffa0 0010     ..|.......o.....
    7a9c:	0003 ffe2 ffe6 fff1 0009 002f 0031 ffd2     ........../.1...
    7aac:	0037 0010 0069 ffcd ffdc 0012 0037 fff1     7...i.......7...
    7abc:	ff9b 0014 000a 002a ffd0 ffee ffc7 fff9     ......*.........
    7acc:	fff6 0027 001f ffdd ffa5 ff2f ff8a ffe8     ..'......./.....
    7adc:	fff2 ffa7 ff8c ffd6 00a0 00a9 0044 0014     ............D...
    7aec:	000e 0059 0033 0018 fff1 fffa 0041 fff3     ..Y.3.......A...
    7afc:	ffad ffcb 0027 0011 ffec ff90 ffd5 ffe8     ....'...........
    7b0c:	ffeb ffb4 ffb2 ffd0 ffe1 ffb4 005c 008c     ............\...
    7b1c:	0042 0012 0086 00f8 00f2 009d 007e 0068     B...........~.h.
    7b2c:	00d6 00a0 ffeb ffc3 0018 ffb0 ff85 ff8b     ................
    7b3c:	ffb1 ffa4 ff32 ff2b ff48 ff7c ffc1 ffb3     ....2.+.H.|.....
    7b4c:	ffbb ffab ffbd ffd6 ffe3 0023 0061 0078     ..........#.a.x.
    7b5c:	008e 0017 009f 00dc 00b0 008c 0065 002e     ............e...
    7b6c:	003f 004e 0011 ffcf ff7e ff87 ff8e 001d     ?.N.....~.......
    7b7c:	001f fff2 ffd5 000e 001c 0021 002c 000f     ..........!.,...
    7b8c:	fff2 0032 0052 0041 005d 0033 0021 0009     ..2.R.A.].3.!...
    7b9c:	fff2 ffe5 ffca ffd3 ffed ff9e ff8d ff94     ................
    7bac:	ff85 ff7e ffaa ff9c ff56 ff58 ffb1 0008     ..~.....V.X.....
    7bbc:	ffe6 ffbf ff9b 0010 0024 fff2 ffdc ffe4     ........$.......
    7bcc:	001f ffd8 ffe0 0009 0067 0090 002c 0048     ........g...,.H.
    7bdc:	0058 0047 0010 000a fff9 0003 ffcb ffe7     X.G.............
    7bec:	fff1 ffdd 002b 0021 001d 0070 0074 0029     ....+.!...p.t.).
    7bfc:	0092 0081 0098 0080 007e 0056 0014 ffd1     ........~.V.....
    7c0c:	0007 0016 ffd8 ffe2 0050 0075 fffd ffed     ........P.u.....
    7c1c:	ffd4 ffcd ff74 ff8a ff8e ffb8 ff84 ff75     ....t.........u.
    7c2c:	ffba ff77 0005 ffc8 001c 0029 004b 0032     ..w.......).K.2.
    7c3c:	001f 0040 0011 001f 0022 0026 fffb ffe5     ..@.....".&.....
    7c4c:	ffd3 ffd1 ffb0 ffc0 ffb9 003d 0041 0015     ..........=.A...
    7c5c:	fffb ffdd 000a ffbf ffc0 ff96 ffad fff9     ................
    7c6c:	0004 0031 fff0 fffa ffe5 0012 0042 ffe8     ..1.........B...
    7c7c:	ffbc ff9d ffc0 ffbc ffdd ffc3 ff8f ffb2     ................
    7c8c:	ffd1 ffe8 001e 0025 0007 004d 0077 0067     ......%...M.w.g.
    7c9c:	006a 008a 0091 0079 0039 008c 00bc 008a     j.....y.9.......
    7cac:	0039 0020 0033 ffea fffe ffe5 ffa8 ffba     9. .3...........
    7cbc:	ffad ffd2 0007 fff4 003a 001c 001d 0014     ........:.......
    7ccc:	0006 0026 000e 0034 001a 003f 0034 fff4     ..&...4...?.4...
    7cdc:	002b 0072 0048 0053 0052 004a 0035 0012     +.r.H.S.R.J.5...
    7cec:	ffac ffb8 ffde fff4 0010 ffa1 ff8c ff73     ..............s.
    7cfc:	ff91 ff97 ff94 ff97 ffbd fff7 ffee ffbe     ................
    7d0c:	0011 0000 ffbe ffc2 ffe0 0025 0040 002f     ..........%.@./.
    7d1c:	0005 ffe2 ffc7 ff9f ffe6 ff42 ff3c ff6d     ..........B.<.m.
    7d2c:	ff39 ff8e ff66 ff72 ff7b ffbe 0000 0004     9...f.r.{.......
    7d3c:	0034 006d 004b 0048 004a 0027 007d 0068     4.m.K.H.J.'.}.h.
    7d4c:	0081 0090 0060 007d 0068 0062 0038 ffe5     ....`.}.h.b.8...
    7d5c:	fff0 ffa5 ffa8 ff78 ffad ff9c ff79 ff9c     ......x.....y...
    7d6c:	001a 0021 0041 00ea 0093 0060 002e 0059     ..!.A.....`...Y.
    7d7c:	0069 0048 0043 0026 0013 001f 0019 0041     i.H.C.&.......A.
    7d8c:	007b 003a ffef ffc6 001d 003d 005d 0024     {.:.......=.].$.
    7d9c:	0001 0039 0013 0043 0012 002e 0017 ffd5     ..9...C.........
    7dac:	0009 0004 002e ffe3 0049 0047 0086 0086     ........I.G.....
    7dbc:	00ab 006e 0082 008f 00a9 0075 ffe9 ffe8     ..n.......u.....
    7dcc:	ff8d ff85 fec7 fefb ff0d fea5 fe9d feb5     ................
    7ddc:	febb feb4 febd fe7e fe90 fee5 ff5b ff8a     ......~.....[...
    7dec:	ff73 0004 0069 0021 0081 00a8 0085 007e     s...i.!.......~.
    7dfc:	006d 00d1 00d8 00ca 009b 0059 00bc 0086     m.........Y.....
    7e0c:	006b 00d6 00ee 00d7 00a0 0067 00c9 0061     k.........g...a.
    7e1c:	fff7 0012 0035 ffb4 ffba fffe fffb 0013     ....5...........
    7e2c:	0073 005c 0009 0048 0052 0033 0016 ffeb     s.\...H.R.3.....
    7e3c:	fff6 fffa ffbb ffd0 fff8 ffe9 0010 ffe6     ................
    7e4c:	ffdd ffcf ff98 ffb8 ff86 ff6d ff14 ff4e     ..........m...N.
    7e5c:	ff53 ff49 ff01 ff6b ff90 ff5f ffae ffee     S.I...k..._.....
    7e6c:	fff6 002f fff5 0000 0019 ffce ffe6 0024     ../...........$.
    7e7c:	fff7 fff0 005f ffd9 ffac 0047 0048 000b     ...._.....G.H...
    7e8c:	fff4 0061 0096 0073 009e 00c8 00d5 00cc     ..a...s.........
    7e9c:	006d 0071 00b7 00dc 0083 0064 0072 004a     m.q.......d.r.J.
    7eac:	003d fff3 ffa6 ffc4 ffc4 ffb0 ffc6 ffae     =...............
    7ebc:	ffa1 ffdf ffd5 002b 0081 0061 0034 005d     ......+...a.4.].
    7ecc:	0099 00a5 004e 0069 0057 0001 0019 006b     ....N.i.W.....k.
    7edc:	0047 000a ffcd ff7d ff72 ff3e ff12 ff06     G.....}.r.>.....
    7eec:	fef8 fea3 fe7a fe9d fef8 fef9 fedb fee4     ....z...........
    7efc:	ff3e ff4a ff55 ff89 ffa0 ffa5 fff4 0001     >.J.U...........
    7f0c:	0023 0056 00b1 007b 00a7 00b3 010e 00b4     #.V...{.........
    7f1c:	004e 005b 0085 0079 ffe6 0027 fffd 0003     N.[...y...'.....
    7f2c:	ffcd 0020 0030 0008 0033 0052 fffe 0074     .. .0...3.R...t.
    7f3c:	007d 0045 0056 0076 00a0 0056 00c6 00b2     }.E.V.v...V.....
    7f4c:	0098 00c1 00c7 007f 006a 004e 0070 0069     ........j.N.p.i.
    7f5c:	ffc1 0019 010f 0073 ffa7 fec6 feb2 ff35     ......s.......5.
    7f6c:	0015 005e 0045 0013 001b ff80 ffbc 0044     ..^.E.........D.
    7f7c:	0099 00f0 006b fff3 ff80 ff6f ffcc fff5     ....k.....o.....
    7f8c:	ffdc fff2 ffc3 ff69 ff2f ff95 ff60 ffaa     ......i./...`...
    7f9c:	ff8d ff7a ff60 ff41 ff9d ff9a ffc5 ffeb     ..z.`.A.........
    7fac:	ffd2 ffb8 ffc3 000f fffe 000f 000f 0013     ................
    7fbc:	002e ffd8 ff98 0027 0027 ffe9 ffdc ffb8     ......'.'.......
    7fcc:	ff9b ff7b ff67 ff73 ffde ffde ffd7 ffe3     ..{.g.s.........
    7fdc:	0021 fffd 0023 0001 0039 008c 0066 009e     !...#...9...f...
    7fec:	0056 00cd 00a4 00c4 00c9 00c7 006f 0091     V...........o...
    7ffc:	0043 006c 0000 ffd2 ffc9 fffe ffa9 ff86     C.l.............
    800c:	ffe5 ffa6 ffb6 fff5 0002 fff9 0016 0055     ..............U.
    801c:	002e 0007 001e 0043 0027 0046 00b7 00d6     ......C.'.F.....
    802c:	008a 0066 00a2 0094 0054 005c 0028 0050     ..f.....T.\.(.P.
    803c:	0010 ffc4 ff93 ff98 ffad ff86 ff8c ff8f     ................
    804c:	ffc1 ff9c ff8c ff6e ffa1 ff89 ffae ff81     ......n.........
    805c:	ff5c ff9f ff78 ff50 ff42 ff83 ff62 ff69     \...x.P.B...b.i.
    806c:	ff88 ffba ffaf ffb2 ffdb 0002 001d fff3     ................
    807c:	002b 0060 004a 005a 009a 0087 0068 007a     +.`.J.Z.....h.z.
    808c:	00e5 00f4 0093 00b3 00b5 00af 007c 0041     ............|.A.
    809c:	0067 008f 0072 002f 000b 0029 0024 0008     g...r./...).$...
    80ac:	0022 0000 001d 003d ffec ffb6 ffd0 001c     ".....=.........
    80bc:	fffb ffbb ff9b 0035 ffe4 ff97 ff72 ff90     ......5.....r...
    80cc:	ffa7 ff76 ff58 ff9c ffbd ffa8 ff6f ff57     ..v.X.......o.W.
    80dc:	ffa4 ff9f ff87 ff51 ffd3 ffe9 ffa7 ffe2     ......Q.........
    80ec:	ffc2 fff4 ffea 001b ffc6 ffe1 0007 001b     ................
    80fc:	ffcc 002e 0037 ffe7 0053 0035 001f 0049     ....7...S.5...I.
    810c:	0093 006d 009b 0087 009f 00a0 00bf 008b     ..m.............
    811c:	00a3 0084 0092 00b0 008f 002b 0047 009a     ..........+.G...
    812c:	000b 000e 000e ffee ffce ffcd fff4 fff4     ................
    813c:	ffd4 0027 0018 fff2 fff5 000f fffe 0030     ..'...........0.
    814c:	0005 000d ffe4 fffc ffdc ffcf ffa1 ff73     ..............s.
    815c:	ffa5 ff67 ff6c ff2f ff58 feff ff23 ff0d     ..g.l./.X...#...
    816c:	ff15 ff2c fef7 ff00 ff25 ff44 ff60 ff75     ..,.....%.D.`.u.
    817c:	ff8d ffa6 ffee 0017 000d 0051 009f 00c0     ..........Q.....
    818c:	00c5 00cc 012f 0123 0106 00e2 0120 00e0     ..../.#..... ...
    819c:	00a6 0073 009d 0069 0038 0040 0021 0006     ..s...i.8.@.!...
    81ac:	ffc2 fffc ffdb ffc8 ffd0 ffe0 0007 ffe7     ................
    81bc:	000c fffb 0055 0025 0007 0064 0075 005d     ....U.%...d.u.].
    81cc:	002b 005a 0073 001a 0031 0067 0070 000b     +.Z.s...1.g.p...
    81dc:	ffe1 ffe9 fff9 ffcb ffde fffb ffce ffeb     ................
    81ec:	ffb3 ffdb ffec fff0 0020 fffc fff9 0012     ........ .......
    81fc:	ffdd ffd4 ffd7 ffad ffb3 ffd1 ffdb ffd1     ................
    820c:	ffd6 ffa4 ff5c ff75 ff71 ff6b ff54 ff56     ....\.u.q.k.T.V.
    821c:	ff9c ff7b ff76 ffb8 0012 ffc5 ffcb fff4     ..{.v...........
    822c:	003f 0023 0023 0051 006c 0063 0034 0038     ?.#.#.Q.l.c.4.8.
    823c:	0059 00b7 0043 0048 002f 000b 0028 0008     Y...C.H./...(...
    824c:	ffe1 ffbc ffd3 ffdf ffb7 ff63 ffb9 ff8a     ..........c.....
    825c:	ffcb ffc2 ff95 ffc9 fff3 ffba 0005 0022     ..............".
    826c:	0051 0076 0060 0084 0078 0092 0097 006d     Q.v.`...x.....m.
    827c:	0076 0091 009b 0072 003c 0043 002d 0034     v.....r.<.C.-.4.
    828c:	000e 0001 0011 ffeb ffe5 ffcb ffc4 fff4     ................
    829c:	0029 0014 000b ffe5 0004 0033 0024 000b     ).........3.$...
    82ac:	0019 ffe6 ffc5 ffd0 ffc2 ffad ffb0 ffd7     ................
    82bc:	ffec ffd4 fffa ffee ffda ffd6 ffa0 ffa9     ................
    82cc:	ffd0 ffca fffa ffd9 fff2 fff7 ffd4 fff9     ................
    82dc:	0029 0026 0031 0062 0050 002d 0002 001f     ).&.1.b.P.-.....
    82ec:	0022 0001 0022 fff9 ffac ffc7 ffef ffa8     "..."...........
    82fc:	ff6f ff89 ff74 ff85 ffff ffd0 000d 000b     o...t...........
    830c:	0001 000e 0083 002b ffd9 0049 0037 0021     ......+...I.7.!.
    831c:	003f 005b 003a 0030 0023 0012 0029 0017     ?.[.:.0.#...)...
    832c:	0047 001b fffe ffd1 fff6 fff6 ffac ffba     G...............
    833c:	ffd7 ffe7 ffd0 ffb4 ffcc ffdb ffde ffc9     ................
    834c:	0005 fffa 0017 fffe fff3 ffc9 001c 0027     ..............'.
    835c:	0010 0066 0056 0097 00a0 0082 0037 0040     ..f.V.......7.@.
    836c:	0022 0041 004d 0077 0066 0067 0013 ffa9     ".A.M.w.f.g.....
    837c:	ffbd ff8d ffab ff89 ffa8 ffad ffa0 ffa8     ................
    838c:	ff81 ff7c ff7e ff79 ff62 ff86 ff8f ffbc     ..|.~.y.b.......
    839c:	ff8c ffcb 0001 0012 0041 0030 0030 001d     ........A.0.0...
    83ac:	004e 0059 0074 0030 0037 004b 006a 0072     N.Y.t.0.7.K.j.r.
    83bc:	0065 0088 0074 009a 00ad 00c4 00d5 00a5     e...t...........
    83cc:	00a4 007a 0066 0006 fff1 0026 0043 0040     ..z.f.....&.C.@.
    83dc:	0023 0045 0019 0032 0010 ffcc ff99 ff7a     #.E...2.......z.
    83ec:	ff75 ff65 ff66 ff71 ffc0 ffa7 ff9f ff8f     u.e.f.q.........
    83fc:	ff92 ff87 ff74 ff60 ff9c ffb7 ffb3 ffcc     ....t.`.........
    840c:	ffcf ffd3 ffdd fff5 000f fff1 0012 001f     ................
    841c:	001d 0000 000b 0018 fff7 ffdd ffbe ffbf     ................
    842c:	ffc1 ffd8 ffd9 ffd9 0026 0016 002a 0005     ........&...*...
    843c:	000b 0029 0014 002f 004a 0081 00bd 00a4     ..).../.J.......
    844c:	00a8 00a9 002a 0030 ffdf ff96 ff6c ff9f     ....*.0.....l...
    845c:	ff79 ff36 ff04 ff0e ff4a ff21 ff1f ff42     y.6.....J.!...B.
    846c:	ffb2 ffef 000e 0037 0057 0070 006a 0020     ......7.W.p.j. .
    847c:	0067 0060 0044 0079 0086 0065 00e7 0097     g.`.D.y...e.....
    848c:	ffd8 ffb4 ff27 fe62 fdd8 fdc0 fdb6 fdea     ....'.b.........
    849c:	fe69 fec6 ff42 ff3f ff93 ffed ffd6 008b     i...B.?.........
    84ac:	0115 015b 01ec 02e2 0323 039b 03c2 0466     ..[.....#.....f.
    84bc:	0491 0518 04d2 0803 0b8f 0e17 0dc8 0aa2     ................
    84cc:	046c fd3c f5c9 f04b edd6 efe2 f3b4 f9fe     l.<...K.........
    84dc:	fedd 02e1 03b6 030e ffb1 fcd8 f999 f87d     ..............}.
    84ec:	f813 f981 fac3 fc9b fea6 0000 0060 00af     ............`...
    84fc:	00dc 00cc 008e 007b 00cc 00ce 00ec 0123     ......{.......#.
    850c:	014f 01b3 01e3 0173 0184 01eb 023c 01f0     O.....s.....<...
    851c:	01ad 01f0 011c 0034 ffa4 ffc0 ff12 001e     ......4.........
    852c:	00bc 0257 02e7 039a 0356 02e8 0260 00cc     ..W.....V...`...
    853c:	ff82 feb2 feab fe9f ff97 ffd7 00d4 0104     ................
    854c:	0148 00d4 00f4 007d ffe3 ff9d ff46 ff58     H.....}.....F.X.
    855c:	fee7 ff29 ff75 ffe9 0037 004c 0033 000d     ..).u...7.L.3...
    856c:	0032 0015 002e 0029 00a6 0035 000b fee5     2.....)...5.....
    857c:	ff1e fe95 feb8 ff6c ffc8 0074 007a 0064     ......l...t.z.d.
    858c:	ff7f ff38 ff0a ff25 ffb0 007a 0107 00df     ..8...%...z.....
    859c:	00de 0074 0084 0015 0075 007d 014b 013e     ..t.....u.}.K.>.
    85ac:	00c5 005f ffeb ff0f fed0 ff3d ff68 ff24     .._.......=.h.$.
    85bc:	ff31 fec9 fea6 fe38 fecb feb6 fefe ff5d     1.....8.......].
    85cc:	ffcb ff4d fecc febb feaf fef0 ff15 ff66     ..M...........f.
    85dc:	002b 009a 00a5 00a1 00c4 0088 003a 0037     +...........:.7.
    85ec:	006d 00c8 00f2 0193 0192 0172 0072 ff86     m.........r.r...
    85fc:	ff19 fe58 fe08 ff1b 0067 015a 01df 01be     ..X.....g.Z.....
    860c:	0145 0004 ff2a fe83 fed1 ff96 009b 01d3     E...*...........
    861c:	0234 01ac 0073 ff50 fe1a fda7 fdfd feed     4...s.P.........
    862c:	ffe9 00ba 0131 00d5 005b ffc1 ffcf ff89     ....1...[.......
    863c:	fff2 0026 00e1 007e 0030 ffb7 ff5c ff38     ..&...~.0...\.8.
    864c:	fea3 fee8 fed9 fed0 ff7e 0076 00ec 017d     ........~.v...}.
    865c:	025b 022c 0244 019c 00b6 fff3 ffd4 ff87     [.,.D...........
    866c:	ff50 ff25 fee3 fe6d fdb3 fe2c fe0a ff4e     P.%...m...,...N.
    867c:	0009 0049 00dd 0092 0072 fffe ffd9 ffe5     ..I.....r.......
    868c:	0044 00a0 0140 0170 0288 0305 0318 03c2     D...@.p.........
    869c:	0417 03f1 0362 032c 0330 028f 01dd 019e     ....b.,.0.......
    86ac:	0154 00b0 fff7 ffa3 fef2 fe35 fdc0 fd76     T.........5...v.
    86bc:	fd45 fc89 fbb0 fae1 fa2c f9a9 f961 f9c7     E.......,...a...
    86cc:	fa4f fa71 fa24 f9c3 f955 f927 f908 f9c9     O.q.$...U.'.....
    86dc:	fa97 fc18 fdc3 ff79 017b 035b 0619 08f6     ......y.{.[.....
    86ec:	0bdd 0e74 113e 135a 13e1 13e6 135e 12bb     ..t.>.Z.....^...
    86fc:	11c0 1018 0e3b 0c74 0a04 072f 03ba 0068     ....;.t.../...h.
    870c:	fd2f f8fd f5b0 f282 f021 eda1 eae0 e878     /.......!.....x.
    871c:	e5d8 e3d5 e2bb e326 e47d e655 e81b ea02     ......&.}.U.....
    872c:	ec1f ee6b f1ab f53e f70c ff01 0b9e 1695     ..k...>.........
    873c:	21ac 2925 2d40 2997 2521 1ea5 17ce 11e5     .!%)@-.)!%......
    874c:	0da5 08b5 0089 fa9a f482 f107 efcb f32b     ..............+.
    875c:	f90b fcea 0139 0369 045e 04cc 0544 06e7     ....9.i.^...D...
    876c:	07c4 0a33 0ba7 0c53 0afa 0a8b 0a2d 0a28     ..3...S.....-.(.
    877c:	0ad2 0a73 09ed 075e 03f9 fee8 f943 f44c     ..s...^.....C.L.
    878c:	eede eadb e603 e1b8 dd82 da30 d8f0 d7c1     ..........0.....
    879c:	d888 da41 dd70 df46 e2e9 e774 ed1f f3d3     ..A.p.F...t.....
    87ac:	0193 122d 1f03 2988 2edc 303a 2a25 24be     ..-....)..:0%*.$
    87bc:	1f90 18c8 1422 0e44 08de ffe6 fafe f7d6     ....".D.........
    87cc:	f611 f83a fbb2 ffe8 0131 029b 0291 00a3     ..:.....1.......
    87dc:	fef2 fddf fd2f fa70 f9f3 fa6b fc09 fe82     ..../.p...k.....
    87ec:	03ea 0ae3 1178 1721 1ab7 1b5a 19a3 15b2     ....x.!...Z.....
    87fc:	116f 0be8 0639 006b fa90 f4d8 efc8 eb65     o...9.k.......e.
    880c:	e713 e435 e1e6 e0d7 e0ce e1d7 e377 e445     ..5.........w.E.
    881c:	e519 e432 e447 e38d e463 e72f ea3d ee7c     ..2.G...c./.=.|.
    882c:	f680 06a6 158f 21c8 2ad6 2f19 2eca 297c     .......!.*./..|)
    883c:	2536 1ec6 1771 1012 078b fffe f912 f758     6%..q.........X.
    884c:	f768 f96c fd9c 023a 050f 064c 094e 0a23     h.l...:...L.N.#.
    885c:	09a6 0787 0502 013c ffc4 0058 02a0 05d0     ......<...X.....
    886c:	0a27 0d52 0eda 102a 1162 114c 0f88 0d46     '.R...*.b.L...F.
    887c:	07ef 00f2 fa7a f52a eff1 eb57 e792 e38a     ....z.*...W.....
    888c:	deff dca5 dc1e dcf3 de92 e07c e1c6 e1c5     ..........|.....
    889c:	e22f e342 e5b1 e8cb ed6c f221 fd57 0f44     /.B.....l.!.W.D.
    88ac:	1cd7 26d7 2ad4 2c9a 2891 22fd 1f86 190d     ...&.*.,.(."....
    88bc:	131b 0c61 064a ff96 fd02 fe47 0045 02cc     ..a.J.....G.E...
    88cc:	05a7 07da 0766 06b7 0777 0527 0178 fd52     ....f...w.'.x.R.
    88dc:	faa4 f892 f903 fd80 02d3 087a 0e57 13bc     ..........z.W...
    88ec:	1643 17c1 17d6 14df 0f66 08d3 0257 fa66     C.......f...W.f.
    88fc:	f617 f363 f07f edf0 eb59 e8ab e51f e342     ..c.....Y.....B.
    890c:	e249 e1cf e07c df5c de3b dd83 ddad df17     I...|.\.;.......
    891c:	e111 e4eb e861 ee61 f646 0549 17d9 23e4     ....a.a.F.I....#
    892c:	2b8c 2c76 2b46 2528 2021 1aba 12d3 0b06     .+v,F+(%! ......
    893c:	048d fff6 fd68 ffc5 02fc 0539 06cf 084c     ....h.....9...L.
    894c:	0919 08de 08cf 074b 02b8 fd5e f95d f713     ......K...^.]...
    895c:	f789 fc7c 02f6 0890 0dc1 13f5 180d 1900     ..|.............
    896c:	1938 166e 0fc1 0788 006d f9dc f3f6 f091     8.n.....m.......
    897c:	ed0a e92f e720 e64d e4a9 e340 e2cd e1e1     ../. .M...@.....
    898c:	e04a df54 ded4 de94 ddb8 ded3 df7d e31a     J.T.........}...
    899c:	e94d f215 fa6f 0a01 1c31 25c9 2a11 2a8b     M...o...1..%.*.*
    89ac:	29b2 23ea 1e98 18cf 10a8 08d9 04bb 0386     .).#............
    89bc:	0213 0372 05b2 06cd 079f 095f 0a92 09e9     ..r......._.....
    89cc:	080c 0445 ffa9 fb7d f9fd f974 fabf 0003     ..E...}...t.....
    89dc:	056d 0b06 10e2 1745 1995 191a 1759 1268     m.....E.....Y.h.
    89ec:	0bbf 058b 005e fa11 f437 f12e eeaa ec81     ....^...7.......
    89fc:	ea5c e871 e5bb e26c e0fa dff3 df3a de77     \.q...l.....:.w.
    8a0c:	ddd3 dd45 dd85 df39 e1b1 e48b e927 efca     ..E...9.....'...
    8a1c:	f7f7 0354 1563 220b 27f6 2954 293e 25e6     ..T.c..".'T)>).%
    8a2c:	2006 1b40 12ae 0aff 0609 05c2 04ee 0693     . @.............
    8a3c:	08d5 0aa4 0b96 0cff 0eff 0ece 0d34 0853     ............4.S.
    8a4c:	02d4 fdca fab4 f8fe faf2 ff3c 0382 08a3     ..........<.....
    8a5c:	0e28 1466 171e 163c 13da 1056 0ace 0520     (.f...<...V... .
    8a6c:	ff5b f90f f3ba efb0 ed65 eb25 e950 e787     [.......e.%.P...
    8a7c:	e452 e245 e100 e011 deec ddf6 de05 de60     R.E...........`.
    8a8c:	defd e0b5 e413 e7e0 ed90 f3b8 fbc7 06ed     ................
    8a9c:	177d 223c 27fc 296c 290e 255c 2111 1b73     }.<".'l).)\%.!s.
    8aac:	1331 0c3e 07a3 060f 0579 069b 06e2 0788     1.>.....y.......
    8abc:	0919 0abe 0c60 0c1d 0a32 0698 0201 fe65     ....`...2.....e.
    8acc:	fb94 fbcc fde2 00e3 0519 0a67 0e97 11df     ..........g.....
    8adc:	148b 1380 1085 0ca6 08cd 0335 fdde f7e1     ..........5.....
    8aec:	f19c ecad e9e5 e6db e37f e179 df5e de67     ..........y.^.g.
    8afc:	dd98 ddb7 dd05 dd0b ddcc df6d e12a e55e     ..........m.*.^.
    8b0c:	e8ff ecd4 f288 f9d1 01c0 0c48 1a8e 224a     ..........H...J"
    8b1c:	26eb 2838 2895 2544 2193 1b74 13cb 0d82     .&8(.(D%.!t.....
    8b2c:	09a0 0718 0554 04fa 0431 04a5 05f6 0841     ....T...1.....A.
    8b3c:	09a5 09ef 08ea 0667 03d9 017a 0235 025f     ......g...z.5._.
    8b4c:	03c1 0677 0943 0b87 0d96 0fb3 0f68 0dcc     ..w.C.......h...
    8b5c:	0b06 084a 03e7 ff6b f9a3 f26d ec79 e82e     ..J...k...m.y...
    8b6c:	e4a8 e05f ddcf dc49 db42 db08 db20 dc57     .._...I.B... .W.
    8b7c:	dce9 df92 e13f e3a0 e675 eae9 eeeb f486     ....?...u.......
    8b8c:	fae2 01c3 080e 13b5 1ee7 23f0 26b8 27b4     ...........#.&.'
    8b9c:	268a 2297 203f 1901 11aa 0cf7 0a54 0685     .&."? ......T...
    8bac:	049d 044e 02cd 0330 053f 06aa 0821 08e0     ..N...0.?...!...
    8bbc:	08bd 070a 06ef 0778 0759 0775 07c0 08ca     ......x.Y.u.....
    8bcc:	097a 0b3f 09f2 0a05 07f8 0743 04ab 01d1     z.?.......C.....
    8bdc:	fcb9 f75b f2cf ec9f e6d6 e27f dfc3 dc8b     ..[.............
    8bec:	da38 d969 d97c da4a dc25 de6e e141 e4d1     8.i.|.J.%.n.A...
    8bfc:	e903 ed27 f15a f5ab fabe ff7c 0579 0b0f     ..'.Z.....|.y...
    8c0c:	148e 1c67 215c 2365 24e2 2461 21d4 1ecd     ..g.\!e#.$a$.!..
    8c1c:	18b6 1461 0f35 0cf3 08a8 0652 0455 037a     ..a.5.....R.U.z.
    8c2c:	0385 0504 070d 088e 09f3 09b9 0bea 0cf7     ................
    8c3c:	0cb7 0abb 0b22 0ac7 08da 07d6 062b 04bb     ....".......+...
    8c4c:	03a0 0323 012f ff19 fc63 f8e2 f4a1 f046     ..#./...c.....F.
    8c5c:	ebb3 e72d e458 e166 de45 db8a dacc da83     ..-.X.f.E.......
    8c6c:	dae2 dc7e df5c e380 e849 ed67 f192 f63f     ..~.\...I.g...?.
    8c7c:	fb3b 00ff 05d6 09e7 106d 174b 1bbd 1e60     ;.......m.K...`.
    8c8c:	204c 20fa 1f82 1ee1 1c17 1810 14d5 11f2     L . ............
    8c9c:	0e94 0b4f 0916 0630 053e 04bb 0576 056c     ..O...0.>...v.l.
    8cac:	0602 06ee 0879 0947 09a0 0a40 0a0f 0989     ....y.G...@.....
    8cbc:	08a7 06e7 04ce 02e9 01ee 00ca ff66 fe32     ............f.2.
    8ccc:	fcdc fa75 f796 f51f f1a4 ee27 eb64 e8a3     ..u.......'.d...
    8cdc:	e555 e2bf e0b0 def1 dd86 dd94 deea e09a     U...............
    8cec:	e31d e718 eab2 ee31 f263 f7bd fbda 009b     ......1.c.......
    8cfc:	05a3 0c42 1143 15ff 19c4 1cfe 1e82 1ff0     ..B.C...........
    8d0c:	1fc3 1e35 1d16 1b2a 17ac 14df 1143 0d5c     ..5...*.....C.\.
    8d1c:	0a4a 07c9 05ad 04ce 03e9 0375 037f 04fa     J.........u.....
    8d2c:	06ae 0798 092c 0abf 0a9b 0a36 0a06 0884     ....,.....6.....
    8d3c:	06a2 04ba 0286 ffd6 fd42 f9d6 f6cc f39a     ........B.......
    8d4c:	f049 ed7c eaab e746 e44c e19b deed dd10     I.|...F.L.......
    8d5c:	dbdf daee db11 dc7a de98 e146 e496 e8b6     ......z...F.....
    8d6c:	ed25 f31b f928 fe7e 05f5 0e56 13f3 1935     %...(.~...V...5.
    8d7c:	1e41 20a9 21bf 22c3 220a 1f9c 1dcc 1aeb     A.. .!."."......
    8d8c:	1688 1307 0efa 0a9a 079e 04e7 02c8 022b     ..............+.
    8d9c:	00c7 0034 009c 027d 0389 055a 07b0 0846     ..4...}...Z...F.
    8dac:	08e7 0a24 09da 0851 07ee 06ad 0465 0293     ..$...Q.....e...
    8dbc:	ffda fcb7 f979 f686 f2b0 ef90 ec97 e90b     ....y...........
    8dcc:	e656 e34a e0a8 de71 dcf6 dbf5 dc3d dce4     V.J...q.....=...
    8ddc:	de92 e1f9 e5bf e9b7 ee4c f494 fa3e 0039     ........L...>.9.
    8dec:	06dd 0edb 148c 198c 1ee6 20df 2198 231e     ........... .!.#
    8dfc:	21f6 1f6d 1df0 1b49 1721 1356 0fc6 0c40     .!m...I.!.V...@.
    8e0c:	08c8 06a2 051e 0312 028b 01d0 01b6 028b     ................
    8e1c:	0490 0576 06dd 08d2 0948 097d 09b2 08e8     ..v.....H.}.....
    8e2c:	0842 0733 04cb 0330 00a8 fd2a fa45 f717     B.3...0...*.E...
    8e3c:	f342 efe3 ecb2 e903 e630 e394 e099 de40     B.......0.....@.
    8e4c:	dd0b dc4b dc31 dc90 de6e e11c e443 e874     ..K.1...n...C.t.
    8e5c:	eda5 f32a f999 ffa4 0649 0f1f 1427 19a2     ..*.....I...'...
    8e6c:	1e7f 20e0 21a0 233e 210f 1f91 1e6c 1afd     ... .!>#.!..l...
    8e7c:	179a 146d 1053 0cd9 0a49 07cb 0680 0561     ..m.S...I.....a.
    8e8c:	046c 03dd 0368 034d 0598 0628 06ba 0944     l...h.M...(...D.
    8e9c:	0987 0907 092a 086a 075e 06bc 0522 02d0     ....*.j.^..."...
    8eac:	0087 fd5a f9fc f6a5 f312 f002 ec96 e907     ..Z.............
    8ebc:	e638 e382 e047 de85 dd50 dc43 dc10 dd52     8...G...P.C...R.
    8ecc:	decc e0e8 e48b e8c9 ed4c f2ae f8b0 fe3f     ........L.....?.
    8edc:	04c1 0d20 1250 17c5 1d42 1f89 204d 2180     .. .P...B...M .!
    8eec:	202d 1e59 1d10 1a31 16a7 13b1 0f69 0bc3     - Y...1.....i...
    8efc:	08c0 064b 04a3 03ce 02bc 0271 023e 0240     ..K.......q.>.@.
    8f0c:	03d7 05b8 0613 0780 08bb 08ed 08db 0864     ..............d.
    8f1c:	0785 065b 04bf 030c 00ae fd62 f9eb f70f     ..[.......b.....
    8f2c:	f37b f091 ed73 e9f7 e6d3 e41f e1bb df09     {...s...........
    8f3c:	de35 dda8 dd79 de1a dfab e1d0 e46e e7e3     5...y.......n...
    8f4c:	ece8 f25f f7bf fd50 0417 0c37 1159 169a     .._...P...7.Y...
    8f5c:	1c3a 1e7e 2030 21fe 1ffa 1e62 1dbc 1a06     :.~.0 .!..b.....
    8f6c:	15ef 137f 0f55 0abe 08a6 05bc 0301 0255     ....U.........U.
    8f7c:	019a 004a 00e8 0190 0264 03cf 04f6 0673     ..J.....d.....s.
    8f8c:	07aa 07c4 082d 08cb 07dd 0732 065f 0436     ....-.....2._.6.
    8f9c:	01fd 0025 fd2e f9aa f683 f39a f073 ed56     ..%.........s.V.
    8fac:	ea1d e71e e493 e1fa e044 deee de56 dece     ........D...V...
    8fbc:	dfa3 e153 e3c8 e67d ea58 efc0 f419 f99b     ..S...}.X.......
    8fcc:	003e 07ab 0d80 13a2 198f 1cd8 1ece 2170     >.............p!
    8fdc:	2177 2043 1f5d 1d4c 1a0f 1707 133e 0f73     w!C ].L.....>.s.
    8fec:	0bfc 097a 06fb 04ff 037e 02bb 0292 01aa     ..z.....~.......
    8ffc:	021f 02a2 027c 038b 0477 0471 04f3 0557     ....|...w.q...W.
    900c:	051f 046c 03dd 02b2 00eb ff2b fd81 fa68     ..l.......+...h.
    901c:	f7af f526 f296 ef58 eca8 ea58 e79f e552     ..&...X...X...R.
    902c:	e42a e2e5 e192 e231 e34f e45c e63a e8fa     *.....1.O.\.:...
    903c:	ebf8 efbd f485 f9a4 ffdc 07ab 0dba 13a7     ................
    904c:	193c 1cb6 1f44 2147 2130 20a2 1fd8 1d3b     <...D.G!0!. ..;.
    905c:	1a50 175e 1323 0f8c 0cc2 0a01 074f 05ad     P.^.#.......O...
    906c:	0460 0312 0243 01ef 01db 0202 022c 02d7     `...C.......,...
    907c:	02c4 0318 0324 02c8 025f 01b4 004b fefb     ....$..._...K...
    908c:	fd9d fb80 f915 f68f f41d f173 eee2 ec9c     ..........s.....
    909c:	ea7f e832 e63a e50c e42a e3bb e386 e428     ..2.:...*.....(.
    90ac:	e53e e724 e95c ec28 ef57 f41b f9f0 00b4     >.$.\.(.W.......
    90bc:	070c 0d69 13c7 1858 1b5e 1edc 1fe9 1faf     ..i...X.^.......
    90cc:	1fdb 1e98 1b7c 18c1 1514 1123 0d49 0a61     ....|.....#.I.a.
    90dc:	0716 04de 03b9 025b 0129 00f1 00af 0049     ......[.).....I.
    90ec:	00ba 01b2 01fa 022a 032e 02f8 026d 0256     ......*.....m.V.
    90fc:	0173 006a ff58 fd74 fbb9 f9a9 f714 f462     s.j.X.t.......b.
    910c:	f1c5 ef21 ec92 ea79 e87e e67f e520 e452     ..!...y.~... .R.
    911c:	e3d0 e48c e5b6 e73b e908 ebfc eeae f18e     ......;.........
    912c:	f62b fd20 0285 0894 0fd2 144a 17d7 1c5b     +. .......J...[.
    913c:	1d59 1d54 1ee8 1e00 1b59 19bf 164a 1171     Y.T.....Y...J.q.
    914c:	0e6a 0acc 06c8 04ea 037e 0178 00f5 00e8     j.......~.x.....
    915c:	000d 0095 016c 0199 02f4 040f 041f 0490     ....l...........
    916c:	04f1 0412 0361 02e5 00f0 ff79 fdc4 faf1     ....a.....y.....
    917c:	f7fa f5a9 f283 efe2 ed64 eae9 e894 e6dd     ........d.......
    918c:	e5a1 e4ac e446 e462 e57a e713 e945 eb89     ....F.b.z...E...
    919c:	ee8c f2a3 f853 fe66 046e 0aff 1096 1486     ....S.f.n.......
    91ac:	18a0 1b26 1bda 1d17 1d93 1bbb 1a4a 181b     ..&.........J...
    91bc:	139a 0fc9 0ce9 090e 05ca 03ce 0168 ff7f     ............h...
    91cc:	fe94 fd70 fd2d fe43 ff12 0096 02ec 04d7     ..p.-.C.........
    91dc:	05f4 0715 080d 07e9 083b 0786 069b 0571     ........;.....q.
    91ec:	038f 0075 fda6 face f760 f43d f13c ee7d     ..u.....`.=.<.}.
    91fc:	ebfc ea2c e7f4 e65d e5b8 e5dc e65b e7a3     ..,...].....[...
    920c:	e984 eba7 ee5d f137 f464 f785 fc9a 01a0     ....].7.d.......
    921c:	06ad 0bcf 1021 130a 1621 17c3 183e 18d5     ....!...!...>...
    922c:	185f 16d2 1541 1313 0fd2 0c69 0a23 0716     _...A.....i.#...
    923c:	044f 02f2 012e ff8c febe fe07 fda0 fe5f     O............._.
    924c:	ff92 010b 02ed 04fa 05f8 076a 08a8 08a2     ..........j.....
    925c:	0877 0860 0746 05ca 03ef 014e fe00 fb1a     w.`.F.....N.....
    926c:	f7f4 f4a3 f1d8 ef96 ed58 ebe4 eaba e985     ........X.......
    927c:	e919 e92d e9a5 eab2 ec55 ee13 f026 f2b8     ..-.....U...&...
    928c:	f545 f7c4 fb4c fedd 0287 0639 09d7 0cd3     E...L.....9.....
    929c:	0f54 10fb 1240 12bd 129e 127e 1196 104d     T...@.....~...M.
    92ac:	0ea5 0c9e 0a96 089a 06ae 04f8 033a 0203     ............:...
    92bc:	00d2 ffb9 feec fe70 fe88 ff2a ffe4 00cf     ......p...*.....
    92cc:	01f9 0319 0385 0415 046a 03ad 03b9 0341     ........j.....A.
    92dc:	0261 0136 fffe fe9f fce3 fb63 f983 f7e7     a.6.......c.....
    92ec:	f6bd f5b1 f40c f2f4 f220 f13a f108 f106     ........ .:.....
    92fc:	f140 f1ee f34b f48b f5d9 f786 f92d faee     @...K.......-...
    930c:	fccc feb5 003b 01bb 0359 04b6 0622 078f     ....;...Y..."...
    931c:	081c 093d 0a9e 0b41 0b83 0bc6 0c57 0c3a     ..=...A.....W.:.
    932c:	0bd2 0b31 0b0a 0a2f 0950 0829 0773 0683     ..1.../.P.).s...
    933c:	05c4 04ef 03fc 0340 022e 0143 0066 ff51     ......@...C.f.Q.
    934c:	fe22 fd71 fc0f fac4 fa08 f969 f824 f75a     ".q.......i.$.Z.
    935c:	f6e7 f689 f66d f61d f65b f64e f692 f6e6     ....m...[.N.....
    936c:	f71a f792 f863 f90c f9e0 facc fbbd fc98     ....c...........
    937c:	fd82 fef0 0008 00f6 0267 0363 0456 0566     ........g.c.V.f.
    938c:	063e 06c8 0786 0816 0836 0892 08bf 08c7     >.......6.......
    939c:	08a6 0842 0805 07e6 07db 0722 06c3 0633     ..B......."...3.
    93ac:	054c 049e 03e2 0334 01e0 0143 0036 ffbb     L.....4...C.6...
    93bc:	feec fdda fd77 fcbb fc26 fbdd fb2f fab3     ....w...&.../...
    93cc:	fa82 fa12 f9de f98f f997 f955 f956 f9b6     ..........U.V...
    93dc:	f9e0 fa5b fa9f fb0e fb77 fc1d fc80 fcd0     ..[.....w.......
    93ec:	fd3e fda2 fe87 feda ff9b fffb 009d 0158     >.............X.
    93fc:	01bc 0247 02d6 03a1 03eb 0456 048b 0472     ..G.......V...r.
    940c:	048e 04c6 04c2 04d0 04da 04b9 04d4 0471     ..............q.
    941c:	0478 0456 03f8 0410 0386 0316 02c1 020d     x.V.............
    942c:	01c9 0163 00a5 0015 ffea ff78 feff fe78     ..c.......x...x.
    943c:	fdf6 fdb2 fd58 fcb4 fc74 fc0f fbf9 fbc6     ....X...t.......
    944c:	fb7c fb8f fb7c fbf6 fbf8 fc0b fc8e fc9a     |...|...........
    945c:	fcf3 fd5d fd9a fdb1 fe06 fe6c fed3 fef0     ..].......l.....
    946c:	ff7b ff9f ffbf 0036 0090 00cc 0122 0169     {.....6.....".i.
    947c:	018c 01d8 01c8 0236 0218 028b 02a7 0307     ......6.........
    948c:	02ed 031f 0320 0338 0316 02dd 034a 02eb     .... .8.....J...
    949c:	02c3 0274 026f 0230 01d0 0126 00da 00cd     ..t.o.0...&.....
    94ac:	0069 ffc1 ff4b ff16 febf fe54 fe57 fdd2     i...K.....T.W...
    94bc:	fdbd fdbc fd4b fd3a fd37 fd15 fce3 fce9     ....K.:.7.......
    94cc:	fd09 fd2d fd18 fd32 fd98 fd98 fde7 fe1c     ..-...2.........
    94dc:	fe32 fe9a fef0 ff4a ff3e ff95 ffec ffe5     2.....J.>.......
    94ec:	fffe 0050 008d 00b0 00ec 0167 016a 01ae     ..P.......g.j...
    94fc:	01c9 01c4 0217 0222 01e9 0245 0265 028d     ......"...E.e...
    950c:	025d 021e 0237 0203 0220 01ef 01bf 01a0     ]...7... .......
    951c:	013f 0126 014f 00c0 000b ffe9 fffe ffb9     ?.&.O...........
    952c:	ff3c ff39 ff50 fefe fe9a fe67 feb9 fe71     <.9.P.....g...q.
    953c:	fe57 fe15 fe2f fe73 fe46 fe46 fe39 fe92     W.../.s.F.F.9...
    954c:	fe39 fe93 feb8 ff2a ff04 ff52 ffa4 ff96     9.....*...R.....
    955c:	ffd7 003c 0087 0060 0119 0152 017d 01a9     ..<...`...R.}...
    956c:	01eb 01e7 01c8 01ff 01f9 01b3 018c 016a     ..............j.
    957c:	0136 00d9 008e 009f 0062 002f fff4 ff9f     6.......b./.....
    958c:	ffef fff8 fffe 0004 001a 0028 004e 0027     ..........(.N.'.
    959c:	ffbc ff8d ffc9 ffd8 ff6e ff22 ff48 ff1c     ........n.".H...
    95ac:	ff02 fe86 fe8f fe3e fe48 fdc8 fde4 fdbd     ......>.H.......
    95bc:	fdd9 fce8 ffb4 fef1 fdca fea5 feea 00a4     ................
    95cc:	00da ff21 ff01 005e 0133 00b4 ffed ff87     ..!...^.3.......
    95dc:	015d 0134 024e 02c9 0701 0543 0445 0442     ].4.N.....C.E.B.
    95ec:	05ac 0389 ff96 fe45 fca3 fdfd fbdd f934     ......E.......4.
    95fc:	f936 fb87 fcf7 fa87 fb4d fe8f 0020 fff9     6.......M... ...
    960c:	fee0 00d1 0292 0281 01a3 0135 034f 0395     ..........5.O...
    961c:	02cf 01e7 025e 03b2 016f 0015 0034 00f1     ....^...o...4...
    962c:	ffcb fd9e fe43 fdd2 fe0f fd5e fca5 fdc4     ....C.....^.....
    963c:	fe7d ff0a fec5 ff56 00a9 0083 0069 005e     }.....V.....i.^.
    964c:	007e 000d fff1 002a ff20 ff8a fe2e fd2e     ~.....*. .......
    965c:	fe33 fcfa fb08 fc19 fcd6 fa56 fb10 fbb3     3.........V.....
    966c:	f9ea faf5 faf1 f9b6 faf3 fcee fbf4 fca4     ................
    967c:	ff26 fe98 ff6b 0082 005a 011e 02ff 02a4     &...k...Z.......
    968c:	0223 0375 02b0 01f8 0185 01a8 00b3 0111     #.u.............
    969c:	00e0 0167 02f2 04c7 0787 0a57 0d84 0f71     ..g.......W...q.
    96ac:	11ee 13b2 1581 1751 18ce 1ae0 1cec 1f3f     ......Q.......?.
    96bc:	21ed 23ec 2443 2328 2042 1ced 1731 0f7a     .!.#C$(#B ..1.z.
    96cc:	05ba fd74 f7c9 f33e ed2c e84a e596 e1ad     ..t...>.,.J.....
    96dc:	dd02 d999 d7fa d853 db09 dda2 e269 e7e5     ......S.....i...
    96ec:	e9e5 ee67 f22a f499 f7d7 fb2d fdf5 0161     ..g.*.....-...a.
    96fc:	0361 04c5 07de 08cb 0954 0973 0975 08e2     a.......T.s.u...
    970c:	06f8 0415 0171 fe67 fa62 f637 f2b5 f14b     ....q.g.b.7...K.
    971c:	ef15 ef56 efd1 f2ea f49b f7ef f95f 0373     ..V........._.s.
    972c:	03ab 0927 1267 16d0 1dcd 21d7 2718 2a4f     ..'.g......!.'O*
    973c:	2eaa 2903 2b75 2645 2192 19aa 126e 0c8f     ...)u+E&.!..n...
    974c:	0526 fd8c f745 f63c f11b f0ff efe1 f3a5     &...E.<.........
    975c:	f6b1 fb26 fdbe 0400 0b5f 09e8 0f8c 1103     ..&....._.......
    976c:	1442 11b0 10d7 11a4 0f02 0a1a 052e 031f     B...............
    977c:	faad f835 ed9c e9de e4b4 df0c d942 d714     ..5.........B...
    978c:	d49c d2ee d381 d142 d5bd d74c db59 debc     ......B...L.Y...
    979c:	e820 f2f8 f3e8 fee0 06a6 0e6f 1081 1584      .........o.....
    97ac:	18c0 1dcf 1b75 197f 1b79 17d5 1404 0e05     ....u...y.......
    97bc:	0d01 0805 0312 fd38 fd86 faec f735 f7a9     ......8.....5...
    97cc:	fa58 fbab fc87 0062 03ea 08c8 0980 0d07     X.....b.........
    97dc:	112d 1236 110e 113d 1080 0d59 0898 02e2     -.6...=...Y.....
    97ec:	0007 f972 f47d ef33 eb9d e815 e479 e304     ..r.}.3.....y...
    97fc:	e2e9 e390 e378 e894 eab5 efc6 f4b8 004a     ....x.........J.
    980c:	0115 0ae0 1205 18ab 1e79 1f9e 246a 2613     ........y...j$.&
    981c:	2556 1f3b 2016 187f 151d 0b46 062a fffa     V%;.. ....F.*...
    982c:	f96a f1bf ef6a eb34 e86f e774 e78a eac7     j...j.4.o.t.....
    983c:	ed7f ef5f f556 fc38 0034 0544 0a7e 108f     .._.V.8.4.D.~...
    984c:	116a 13b1 1533 1590 1299 0f5f 0b71 0710     j...3....._.q...
    985c:	00d6 f997 f54d ef00 ea36 e4f8 e1d0 e067     ....M...6.....g.
    986c:	de49 dde5 df73 e0dd e4a0 e804 ed74 f50a     I...s.......t...
    987c:	fc7e ff47 0b29 0fca 16e1 1a0c 1f3a 226b     ~.G.).......:.k"
    988c:	2408 215b 215a 1f60 191b 1525 0e53 0aba     .$[!Z!`...%.S...
    989c:	0296 fd9a f8d1 f630 f122 f050 f005 f263     ......0.".P...c.
    98ac:	f110 f5ec fa2c fd55 013d 055e 0ab9 0d43     ....,.U.=.^...C.
    98bc:	0e9b 0fdf 12ad 0f20 0db9 09cf 07b6 013e     ...... .......>.
    98cc:	fbd0 f71e f2f2 ec58 e8c7 e534 e2dd e0bf     ......X...4.....
    98dc:	dec0 e065 e204 e3f8 e6c5 ebc1 f222 fa64     ..e.........".d.
    98ec:	fabc 07e2 0bfe 12fb 16d3 1bf4 1f6a 2217     ............j.."
    98fc:	1f56 206f 1eac 18c3 15b5 0f1b 0bd9 047a     V.o ..........z.
    990c:	ff07 fb07 f86b f233 f227 f054 f1da f2f3     ....k.3.'.T.....
    991c:	f2e4 f897 fd67 ff0b 03fd 0951 0c70 0fbd     ....g.....Q.p...
    992c:	100d 1341 138a 1056 0f19 0bd2 06ff 01b6     ..A...V.........
    993c:	fbba f7bf f19f eb34 e87f e4e2 e19f e035     ......4.......5.
    994c:	deb6 e064 e0fc e2ce e708 eb48 f01e f8f7     ..d.......H.....
    995c:	fab7 05c0 0ab0 1019 1687 19ac 1d90 1ffa     ................
    996c:	1f51 1eca 1e4a 189c 16d3 0f70 0c30 05d9     Q...J.....p.0...
    997c:	003e fba1 f8f0 f331 f2e9 f09a f237 f1a1     >.....1.....7...
    998c:	f388 f770 fb39 fd8d 017a 06c1 0960 0cc3     ..p.9...z...`...
    999c:	0d3f 10d2 0fb1 0ece 0c80 0ad7 061d 018b     ?...............
    99ac:	fcd8 f8b3 f358 ed67 eaeb e72d e43a e18b     ....X.g...-.:...
    99bc:	e197 e1bf e24c e3dd e7da eb7e efbb f8ca     ....L.....~.....
    99cc:	f992 04b2 0931 0f30 146f 18ac 1c6b 1f4e     ....1.0.o...k.N.
    99dc:	1eca 1ec3 1e7d 1971 1802 10c6 0e77 07b3     ....}.q.....w...
    99ec:	0292 fd91 fb20 f56a f447 f186 f322 f2be     .... .j.G..."...
    99fc:	f2ba f727 fa0d fd3d ff68 04a9 07f2 0b04     ..'...=.h.......
    9a0c:	0b54 0f36 0ec8 0dd4 0c54 0aa3 07c4 0339     T.6.....T.....9.
    9a1c:	fee3 fb2c f71e f17b eee0 eb44 e8b4 e635     ..,...{...D...5.
    9a2c:	e52a e547 e551 e628 e927 ec75 eeb7 f78c     *.G.Q.(.'.u.....
    9a3c:	f8ec 0078 06de 0a8a 11d7 13cd 18c3 1afd     ..x.............
    9a4c:	1c7d 1b5b 1d30 17f8 1787 1195 0ee3 0a12     }.[.0...........
    9a5c:	049d 003c fd6f f8a8 f663 f442 f307 f45c     ..<.o...c.B...\.
    9a6c:	f4b4 f3e6 f9d8 fae4 fe30 01be 04bb 08df     ........0.......
    9a7c:	0a59 0c02 0e3d 0e95 0d24 0d0c 0932 0845     Y...=...$...2.E.
    9a8c:	0329 0027 fc3e f82c f3c3 f0d3 ed54 ea58     ).'.>.,.....T.X.
    9a9c:	e892 e69e e755 e5e6 e7c7 e8e1 eba5 ee21     ....U.........!.
    9aac:	f3f6 f796 fb74 02ed 0660 0ce8 0ec3 1412     ....t...`.......
    9abc:	164d 182d 176e 1945 1711 154d 1268 0f53     M.-.n.E...M.h.S.
    9acc:	0c48 06fe 03bd 0056 fd1d f9a0 f86e f670     H.....V.....n.p.
    9adc:	f5a1 f613 f712 f7f5 fa6f fc79 ffee 01a3     ........o.y.....
    9aec:	04e8 06d1 0939 0a5c 0b25 0b50 0aef 0921     ....9.\.%.P...!.
    9afc:	076d 0570 0241 ff4d fb36 f8e5 f519 f249     m.p.A.M.6.....I.
    9b0c:	ef27 ed4a eb45 e9fb e913 e984 e9e8 eb42     '.J.E.........B.
    9b1c:	ecc0 ef66 f35f f822 f966 00b1 04b3 08f4     ..f._.".f.......
    9b2c:	0c1b 0fcd 1351 14cc 14e2 15f0 160f 134d     ....Q.........M.
    9b3c:	124d 0f2d 0d5f 08a4 05da 02f0 0043 fc38     M.-._.......C.8.
    9b4c:	fb50 f925 f84f f71a f7c6 f8e0 f920 fa5c     P.%.O....... .\.
    9b5c:	fe45 ff02 014a 0432 05e6 07d3 0814 0982     E...J.2.........
    9b6c:	0a53 0904 07d2 07c6 04f0 02d4 ffe7 fddd     S...............
    9b7c:	fb30 f805 f588 f3bb f139 ef49 ee90 ed8f     0.......9.I.....
    9b8c:	ed81 ed5b ef20 f0a5 f239 f469 f73f fa10     ..[. ...9.i.?...
    9b9c:	fcb0 00f0 0218 071b 08a0 0b86 0cbb 0ed2     ................
    9bac:	0f9f 1042 100f 0f7a 0f2e 0cc5 0c18 0931     ..B...z.......1.
    9bbc:	082f 04d8 040e 0185 00d7 fee0 ff04 feaf     /...............
    9bcc:	fe8c fe7a ff9f 00f2 00e1 0211 028d 03b8     ..z.............
    9bdc:	027e 0308 02ce 0243 0055 ff23 fe00 fc62     ~.....C.U.#...b.
    9bec:	fa02 f8ab f763 f581 f3c2 f2f2 f21a f113     ....c...........
    9bfc:	f0ea f129 f1b4 f206 f37d f5f3 f8cc f972     ..).....}.....r.
    9c0c:	fdbb 015e 038a 0676 09e1 0c5b 0e15 0f39     ..^...v...[...9.
    9c1c:	10bd 116d 0fa4 0f53 0e06 0c15 0942 06f5     ..m...S.....B...
    9c2c:	04f9 0252 ff80 fe50 fc4e fa5a f971 f8e5     ..R...P.N.Z.q...
    9c3c:	f8db f86b f873 f9cf fa53 fb49 fce3 fe32     ..k.s...S.I...2.
    9c4c:	ffca 00bc 0252 03e6 0422 05a2 072c 04f0     ....R..."...,...
    9c5c:	071b 0687 053c 04be 03e5 0287 0148 ffab     ....<.......H...
    9c6c:	fe7f fd93 fb84 fb5b fa04 f9f9 f8bf f888     ......[.........
    9c7c:	f8dc f912 f8c1 f9b3 fac4 fb03 fc3b fce9     ............;...
    9c8c:	fe41 fea7 ff92 0076 0149 0121 020b 0275     A.....v.I.!...u.
    9c9c:	026d 026e 029b 02c5 0200 0215 021b 018a     m.n.............
    9cac:	0124 0139 012c 00d5 008b 00bf 00ce 006c     $.9.,.........l.
    9cbc:	00c7 00ef 0105 00f0 00fc 00f3 011f 00f8     ................
    9ccc:	00f4 00d0 00f4 0036 0040 008f ffa4 ff80     ......6.@.......
    9cdc:	ff60 ff14 feb4 fecf fea0 fe91 fe6c fe7c     `...........l.|.
    9cec:	fe8f fea4 fe96 fefd ff3b ff21 ff91 ffe6     ........;.!.....
    9cfc:	0054 006e 00e4 0151 0117 013c 016d 0168     T.n...Q...<.m.h.
    9d0c:	0158 00f9 010d 009a 0036 0047 fff3 ffd5     X.......6.G.....
    9d1c:	ffa8 ff94 ffd3 ffb0 ff70 ffe6 ff5a ffd5     ........p...Z...
    9d2c:	ffa0 ff7d ffe9 ff9b ff83 0000 ff9b fff3     ..}.............
    9d3c:	0028 ffaa 000e ffc3 fff4 ffed ffe7 ff79     (.............y.
    9d4c:	ffeb ffa6 ff97 ff65 ff6e ff99 ff8a ffd2     ......e.n.......
    9d5c:	ffd5 0007 0041 006e 007c 00db 00cc 0148     ....A.n.|.....H.
    9d6c:	018e 0184 01e8 01cd 01c9 01d0 015c 0168     ............\.h.
    9d7c:	013f 00ae 008d 001c ffa5 ffa3 fec1 fea7     ?...............
    9d8c:	fec5 fde2 fe0e fdf6 fdba fd96 fe08 fd84     ................
    9d9c:	fe3c fdf4 febb fea3 ff09 ffa1 ff7f ffcb     <...............
    9dac:	0087 009f 0094 0185 00f6 01a2 015d 0199     ............]...
    9dbc:	0145 01ed 016b 01a9 0169 0131 014f 00c0     E...k...i.1.O...
    9dcc:	00c8 009b 008a 002a 00a9 0035 0016 000a     ......*...5.....
    9ddc:	001a 001e 004a ffec fff6 0065 ff7a ffc6     ....J.....e.z...
    9dec:	ffa4 ff2c ff40 ff65 feca ff28 feb2 fe9b     ..,.@.e...(.....
    9dfc:	feca fe4e fe3e fe58 fe6f fe21 fe78 fe38     ..N.>.X.o.!.x.8.
    9e0c:	fecc fee4 ff49 ffa1 ffd2 0025 0052 009e     ....I.....%.R...
    9e1c:	00ec 0122 0173 01e9 01b3 022a 022a 022d     ..".s.....*.*.-.
    9e2c:	01ea 01f0 01fc 023b 01ce 013e 017f 013d     ......;...>...=.
    9e3c:	012a 00bd 0053 0065 0056 0008 000b fff4     *...S.e.V.......
    9e4c:	ffb7 ff72 fef1 ff31 ff02 feb7 fec5 fe57     ..r...1.......W.
    9e5c:	fe37 feb8 fe15 fe42 fe85 fe44 fe73 fe2f     7.....B...D.s./.
    9e6c:	fe50 fe99 fe82 fe4f fe7e fed9 fefb ff30     P.....O.~.....0.
    9e7c:	ff93 0004 fff9 0083 00a8 00be 0106 013d     ..............=.
    9e8c:	0154 018f 01aa 01b5 01cb 01d3 01cb 01d6     T...............
    9e9c:	01e0 01d1 0179 01a3 0162 012b 0125 0108     ....y...b.+.%...
    9eac:	00a4 0061 0058 0031 ffc4 ff60 ff84 ff70     ..a.X.1...`...p.
    9ebc:	ff46 ff0a ff3e ff7d ff0b ff5b ff79 ff3a     F...>.}...[.y.:.
    9ecc:	ff19 ffbe ff69 ff0d ff41 ff35 fefb feee     ....i...A.5.....
    9edc:	feac fe56 fe94 fe85 fe9b fedb fee5 ff56     ..V...........V.
    9eec:	ffda ffcb ffe8 004e 0073 004e 003e 0060     ......N.s.N.>.`.
    9efc:	00f2 009c 0099 0101 00e8 00e3 00eb 0098     ................
    9f0c:	00d7 00dc 006f 002b 005a 0074 0045 0024     ....o.+.Z.t.E.$.
    9f1c:	0066 0084 006a 003e 0026 0075 00a2 fff8     f...j.>.&.u.....
    9f2c:	0004 0076 004d 0022 001a ffea 0056 ffde     ..v.M.".....V...
    9f3c:	fff1 0013 ff9b 001b 002a ffcc 0031 0077     ........*...1.w.
    9f4c:	ffee 002f fff8 ffa2 ffb9 ff6b ff80 ff55     ../.......k...U.
    9f5c:	ff6a ff5d ff7e ff25 ff26 ff4b ff1a ff48     j.].~.%.&.K...H.
    9f6c:	ff16 ff63 ff2b ff53 fecd ff11 ff19 ff2d     ..c.+.S.......-.
    9f7c:	ff76 ff66 ffb5 0007 ffb7 fff1 009e 007b     v.f...........{.
    9f8c:	007c 00cf 00e8 00fb 0112 015d 01af 015b     |.........]...[.
    9f9c:	0189 0192 0181 0138 00f4 010a 0104 00a8     ......8.........
    9fac:	006e 004b 000f 0029 ffae ffbb ffbb ff5c     n.K...).......\.
    9fbc:	ff13 ff7c ff2a fefd ff05 ff3c ff6f ff64     ..|.*.....<.o.d.
    9fcc:	ff1c ff93 ffba ff3b ff28 ff7a ff48 ff32     ......;.(.z.H.2.
    9fdc:	ff4a ff0f ff48 ff49 ff48 ff2e ffbd ffa1     J...H.I.H.......
    9fec:	ffd4 0071 004d 001c 00db 0111 00ba 0176     ..q.M.........v.
    9ffc:	0137 0192 01a7 0159 0162 0191 0157 0113     7.....Y.b...W...
    a00c:	018f 0117 0118 00a6 00b7 0046 000c 0009     ..........F.....
    a01c:	ff9c ffb8 ff86 ff94 ff50 ff36 ff12 ff2b     ........P.6...+.
    a02c:	ff23 ff00 ff17 ff7a ff6b ff13 ff47 ff63     #.....z.k...G.c.
    a03c:	ff2c ff69 ff77 ff3b fee5 ff78 ffba ff18     ,.i.w.;...x.....
    a04c:	ff39 ff83 ff7c ff48 ff42 ff6e ff49 ff49     9...|.H.B.n.I.I.
    a05c:	ff68 ffaf ffac fffc 0012 0056 001e 00c6     h.........V.....
    a06c:	00ea 008b 00d8 0182 00dd 00f3 019f 0172     ..............r.
    a07c:	0173 018d 01ac 016c 015b 00e1 00fb 00c3     s.....l.[.......
    a08c:	0024 0037 0061 ffde ff46 fffa fffd ff70     $.7.a...F.....p.
    a09c:	ff5b ffdf ffa2 ff84 ffcf ff8a ff9a ffee     [...............
    a0ac:	ff88 ff8a 0001 ffe9 ffd4 ff93 0008 ffa7     ................
    a0bc:	ff9b ff76 ff9b ff58 ff54 ff6c fee3 ff2d     ..v...X.T.l...-.
    a0cc:	ff5e ff06 fed2 ff49 ff7d ff36 ff22 ffb3     ^.....I.}.6."...
    a0dc:	0034 fff2 ff84 0094 00ce 0017 0053 00e1     4...........S...
    a0ec:	00bf 002a 008b 00de 007a fff0 0087 00d1     ..*.....z.......
    a0fc:	0030 0029 0036 001c ffee ffb2 000d 0086     0.).6...........
    a10c:	0016 000d 0075 008d 0011 001e 00d3 0066     ....u.........f.
    a11c:	0013 005b 00ed 0049 ff5d 0029 006e ffae     ..[...I.].).n...
    a12c:	ffa1 0053 0055 ff83 ff61 004e ff6c fe83     ..S.U...a.N.l...
    a13c:	ffa0 0005 fedd ff5e 0040 ffe9 ffad ffdf     ......^.@.......
    a14c:	005a 0028 fffa ffe7 004d ffe7 ff9d 001d     Z.(.....M.......
    a15c:	0050 ff8f 0079 0091 ffe4 ffeb 002c 0088     P...y.......,...
    a16c:	ffcf fffc ffef 0034 ffe0 ff8a fff7 ffea     ......4.........
    a17c:	ffe1 ffdb 004a ff96 fff9 003f 0023 ff75     ....J.....?.#.u.
    a18c:	fffe 003c ff7e ffa3 ffdc 0033 ffba fff9     ..<.~.....3.....
    a19c:	007d 00ce ffa3 ffe2 0076 ffdc ff4c 004b     }.......v...L.K.
    a1ac:	00b3 ffd0 003e 006f 008e ff84 ffb8 0052     ....>.o.......R.
    a1bc:	fffd ff84 ffe4 0067 ff69 ff32 ffd8 0020     ......g.i.2... .
    a1cc:	ffb7 003d 00d1 0050 001f 002c 0032 ff76     ..=...P...,.2.v.
    a1dc:	ffba 0055 fffb ff4c 000a 002c ff6e ffb1     ..U...L...,.n...
    a1ec:	002b 0068 0037 00b8 00c9 009f 003c 0066     +.h.7.......<.f.
    a1fc:	ffd0 ffac fff5 fffd 0003 000d 004f ffde     ............O...
    a20c:	ffd5 ff6f ffa0 0057 fff4 ffff 006a 00ad     ..o...W.....j...
    a21c:	ffb8 fff0 0043 fff3 ff74 ffe7 002c 002e     ....C...t...,...
    a22c:	ffe5 ffb1 fff4 ffc0 ff58 ff3c ffee fffe     ........X.<.....
    a23c:	ffd3 fff4 0039 0012 fff7 001a ffd7 fff5     ....9...........
    a24c:	005f 0007 ffbe 000b ffdb ffbb ffa8 ffd2     _...............
    a25c:	ffd3 ffe8 ffa9 ff45 0063 006f ffd6 0093     ......E.c.o.....
    a26c:	00df 00b5 0048 00a5 008b 0027 0072 00c7     ....H.....'.r...
    a27c:	0084 0051 0060 0056 0081 ffdb 0061 007b     ..Q.`.V.....a.{.
    a28c:	ffc6 ffe0 ff97 ff60 ff12 ffb4 ff65 ff66     ......`.....e.f.
    a29c:	ffc6 ffd2 ff48 ff5c ff79 ff9d fff3 004a     ....H.\.y.....J.
    a2ac:	0018 ffdf fff6 000c ffde ffb6 ffa6 ff98     ................
    a2bc:	ffac ff61 ff7c ff8b ff8a ffb8 0010 fff2     ..a.|...........
    a2cc:	fff2 0002 005d 004e 000f 00a5 00c2 0012     ....].N.........
    a2dc:	ffcc 0037 fff1 ff66 ffe8 008f 0061 fff1     ..7...f.....a...
    a2ec:	008e 0122 008f 0077 00e7 013a 0097 00b2     .."...w...:.....
    a2fc:	013a 0091 ffcf 003b 0076 0016 0011 007a     :.....;.v.....z.
    a30c:	0077 0002 0010 005d fffe ff9a ffbe 003d     w.....].......=.
    a31c:	ff9c ff05 ff1a fee6 fea9 feea ff17 feea     ................
    a32c:	ff8d ffa7 ffc2 ff83 fffc fff0 ffc4 ffac     ................
    a33c:	ff81 ff6a ff4d ff82 ff40 ff09 ff1c ff77     ..j.M...@.....w.
    a34c:	ff09 ff82 0011 0059 fff7 00b5 010b 00b0     ......Y.........
    a35c:	00a8 00e3 0122 010a 0134 00c5 012a 0192     ...."...4...*...
    a36c:	0146 005a 00f7 013c 0099 007e 00e0 00f0     F.Z...<...~.....
    a37c:	007f 000a 0046 0015 ff94 ff20 fea2 ff2a     ....F..... ...*.
    a38c:	febc fea1 fee7 ff12 ffac ff73 ff59 ff99     ..........s.Y...
    a39c:	ffcb ff74 ffc9 fffd ffc7 ffbd fff2 ff91     ..t.............
    a3ac:	ff7f ffae ff4b ffd3 000d ffec ffed 0019     ....K...........
    a3bc:	0013 ffa5 003e 0099 0087 006c 00af 00a7     ....>.....l.....
    a3cc:	0063 002c 008f 007a 0064 0081 0086 00ec     c.,...z.d.......
    a3dc:	0044 0000 ffb9 006a 004a ff7a 0044 0048     D.....j.J.z.D.H.
    a3ec:	ffdf ff2c ff50 ff4c fee0 fec6 ff5b ffdb     ..,.P.L.....[...
    a3fc:	ffc0 0032 fff9 0046 0048 ff6a 0072 0062     ..2...F.H.j.r.b.
    a40c:	0049 002c 00a7 0076 ff34 ffc7 006d 005c     I.,...v.4...m.\.
    a41c:	004c 0007 0136 00fc 0086 ffb1 0030 0040     L...6.......0.@.
    a42c:	ffc2 ffe4 0087 0041 ffbd ffd2 0021 ff66     ......A.....!.f.
    a43c:	ff3d ffa9 ff16 ff0f ff55 ffd3 ff7b ffb2     =.......U...{...
    a44c:	0045 fff9 ffe3 000b ff7e 0018 ffb4 ffe9     E.......~.......
    a45c:	0052 0082 0054 00d6 01ed 0150 00f9 0208     R...T.....P.....
    a46c:	0177 0126 0134 0171 00ec 0004 0004 ff44     w.&.4.q.......D.
    a47c:	ff8c fe84 fea9 fef8 fe92 fe79 fe79 ff35     ..........y.y.5.
    a48c:	fe6e fe8c fed6 fe77 ff35 fed6 ff1e ff45     n.....w.5.....E.
    a49c:	ff48 fff8 ff10 fff0 ff93 0002 003b 0075     H...........;.u.
    a4ac:	00e6 00c5 014b 007e 00a9 003c 008c ffd4     ....K.~...<.....
    a4bc:	ff9e 001d 0016 0025 ff9e ff98 ffea ffd5     ......%.........
    a4cc:	0047 0093 0110 013a 0186 01f6 0198 01be     G.....:.........
    a4dc:	01e0 01d4 019d 018c 0199 00e8 0112 008d     ................
    a4ec:	003b 0003 ff89 ff9c ff2c ff63 ff2d fedc     ;.......,.c.-...
    a4fc:	febc fe92 fe6a fdfc fedb feea fe87 ff0e     ....j...........
    a50c:	ff03 feee feca ff0b ff2d ffba ff85 ffe9     ........-.......
    a51c:	ffe2 ffe0 0045 0023 0058 0049 ffeb 009d     ....E.#.X.I.....
    a52c:	0046 0081 00e4 0037 009d 0040 0020 ffe4     F.....7...@. ...
    a53c:	0078 0058 005e 0101 00ea 00b8 0076 ffa1     x.X.^.......v...
    a54c:	0035 0004 ff88 ffdd ffe5 fffe ffcc fff5     5...............
    a55c:	ffa7 ffc3 ffb5 ff44 ff68 ffe3 ff3e ff65     ......D.h...>.e.
    a56c:	ff62 ff62 feda fee2 ff61 ffa2 ff28 ff24     b.b.....a...(.$.
    a57c:	ffcc ff57 ffa9 ffef 008a 0083 00e3 00de     ..W.............
    a58c:	00e6 0095 007c 012c 00a9 00f1 010a 00c7     ....|.,.........
    a59c:	00e1 00a2 0069 00a1 0094 00b8 00d1 00cc     ....i...........
    a5ac:	00a6 00a3 010a 0064 0099 0067 0059 0017     ......d...g.Y...
    a5bc:	ffc0 000e ffc7 ff8c ffe8 ff95 ffad ff81     ................
    a5cc:	ff6b ffed ffbc ff9b ff43 ffa3 ffab ff70     k.......C.....p.
    a5dc:	ff76 ffb2 0008 ffc2 ffde ffab ffa2 ffb2     v...............
    a5ec:	ff6b ff56 fff5 ffd1 ffb7 ffa4 ffcf ff83     k.V.............
    a5fc:	ff26 ff76 ff95 ffe7 fffc 0024 ffac ffc7     &.v.......$.....
    a60c:	0008 ff91 ff8a fffc ffa8 ff82 0053 ffe4     ............S...
    a61c:	ffec 002d fff6 002c 0057 001e ffed 0091     ..-...,.W.......
    a62c:	00b8 00fd 00ce 0082 00ed 00fa 0104 0108     ................
    a63c:	0187 0169 010d 0129 0129 00dc 0034 0007     ..i...).)...4...
    a64c:	007c fff1 ff97 ffae ff18 feda ff0f fee4     |...............
    a65c:	feb1 fe92 feb4 fec0 fe77 fe98 fe49 fe5c     ........w...I.\.
    a66c:	ff01 fe7c feaa ff0c ff39 ff18 ff41 ffa4     ..|.....9...A...
    a67c:	ffca 0072 001c 0076 010b 0104 0111 0138     ..r...v.......8.
    a68c:	01c1 015c 0103 011a 0113 00d4 00f9 0086     ..\.............
    a69c:	0049 006c 00c0 0050 0044 007e 0056 001a     I.l...P.D.~.V...
    a6ac:	0033 0003 0021 0045 ffbc ffa4 0007 ffb0     3...!.E.........
    a6bc:	ff8d ff85 ff6b ffdc 0026 0032 fff4 ffe9     ....k...&.2.....
    a6cc:	ffe1 fffb 0016 ffac 0012 fff7 000b 002c     ..............,.
    a6dc:	002c 002e 0079 008b 008b 00a8 00a3 009d     ,...y...........
    a6ec:	0078 0062 0048 0058 00a7 0033 0034 0047     x.b.H.X...3.4.G.
    a6fc:	000f ffc8 ffdb ffc0 ff62 ffc4 ff47 fed4     ........b...G...
    a70c:	ff26 ff6b ff32 ff3d ff2f ff7a ff41 ff5b     &.k.2.=./.z.A.[.
    a71c:	ff95 ff97 ffb0 ffaa ffbc ffb9 0013 003c     ..............<.
    a72c:	0012 0021 0010 fffd ffd0 ff94 ff7a ff44     ..!.........z.D.
    a73c:	ffca ff3d ff54 ff3c ff5b ff05 fedc ff84     ..=.T.<.[.......
    a74c:	ff65 ff61 ffa7 ff9d ff9b ffef ffcf ffef     e.a.............
    a75c:	ffe5 ffe9 001f 001c 00af 00a5 008d 003f     ..............?.
    a76c:	00a6 0075 0085 0097 0124 0155 00c3 00f8     ..u.....$.U.....
    a77c:	012e 00f0 007f 00ae 00f4 00c1 00fd 010e     ................
    a78c:	0113 00d4 00ce 00d6 00bf 00c1 0090 003a     ..............:.
    a79c:	fff8 0020 ffc6 003b 0036 0021 0017 ffc3     .. ...;.6.!.....
    a7ac:	000c ffaa ff7f ff93 0005 ffa4 ffa1 ff85     ................
    a7bc:	ff94 ff77 fedc ff1d ff7b ffa7 ff36 ff6c     ..w.....{...6.l.
    a7cc:	ff83 ffd6 ff32 ff2c 0027 0007 ffca ffdd     ....2.,.'.......
    a7dc:	fff3 0056 ffdf ffe1 0025 0011 ffd2 ffed     ..V.....%.......
    a7ec:	0009 ffeb 000f 0028 ffaa 0009 0008 fffc     ......(.........
    a7fc:	0020 fff7 ffde ffec ffb2 ff7f 000d 0004      ...............
    a80c:	001d fff3 0038 0077 001d ffdd 0082 006f     ....8.w.......o.
    a81c:	ffab ff7a ffdc ffa8 ff54 ff2d ff81 ff71     ..z.....T.-...q.
    a82c:	ff1b ff36 ff41 ff4b ff01 fedd ff59 ff63     ..6.A.K.....Y.c.
    a83c:	fef1 ff69 ff70 ffae 002b ffda 002c 0084     ..i.p...+...,...
    a84c:	000c 00d0 014e 00e6 0107 017d 0162 00e3     ....N.....}.b...
    a85c:	00fd 0135 0183 00e5 00d0 016d 00a5 0051     ..5.......m...Q.
    a86c:	005d 00a9 000c 0017 004b ff92 0011 ff5a     ].......K.....Z.
    a87c:	ffb4 ffd6 ffcf ff81 0003 0026 001f 008c     ..........&.....
    a88c:	004d 0039 006a 0088 00a6 0069 0088 00ca     M.9.j.....i.....
    a89c:	008d 002a ffbc 000a ffe3 ffae ffd6 0003     ..*.............
    a8ac:	ff5b ffab fff8 0012 ffb8 ff6b ffc9 ffc4     [.........k.....
    a8bc:	ff70 ff44 ff9b ff4c ff75 ffaf ff8d ffc1     p.D...L.u.......
    a8cc:	ff7c ff34 ff56 ff70 ffac ff5f ff9e ffcd     |.4.V.p..._.....
    a8dc:	ffe3 ffba ff9c ffb3 ff65 ffed ff7d ff2d     ........e...}.-.
    a8ec:	ffa2 ffea ff8b ffad ffbc ffb7 ffca ffc9     ................
    a8fc:	0054 fff4 004d 0024 002a ffbc ffba ffc1     T...M.$.*.......
    a90c:	0018 004c 0028 0001 ffd0 001e ffd1 ff7e     ..L.(.........~.
    a91c:	ff8a 0022 ffeb 0036 000e 0052 004b 0039     .."...6...R.K.9.
    a92c:	00fa 00a6 00b0 00aa 010b 00d6 0110 0161     ..............a.
    a93c:	00f2 0139 012d 00ca 00aa 00c5 015c 0111     ..9.-.......\...
    a94c:	00b0 0063 006f 006b 004d ffac ffe4 ffda     ..c.o.k.M.......
    a95c:	ffa4 ff3e ff76 ffc3 ffdd ff6e ff68 fff5     ..>.v.....n.h...
    a96c:	ff9f ffa3 ffe8 0007 ffca ff86 ff9e ff9d     ................
    a97c:	0014 fff4 ffe1 0019 fffd ffe3 ffe3 ff8e     ................
    a98c:	ffca ff7c ffa3 ff9f ffaa ffb4 ffae ffd1     ..|.............
    a99c:	ffea ffb4 ffa1 002f ffe8 0005 ffeb ffd2     ....../.........
    a9ac:	0028 005b 0076 0073 0094 008a 0058 005a     (.[.v.s.....X.Z.
    a9bc:	0077 004e 0085 0089 00a6 0045 0050 0035     w.N.......E.P.5.
    a9cc:	0037 ffde ffcb ffb8 ff88 ff8c ff74 ff7a     7...........t.z.
    a9dc:	ff19 ff60 ff2c ff26 ff0b ff6d ff29 ff42     ..`.,.&...m.).B.
    a9ec:	ff48 fef6 ff30 ff08 ff18 fed0 feb1 fe97     H...0...........
    a9fc:	ff40 ff3a ff07 ff4b ff55 ff81 ff72 ff20     @.:...K.U...r. .
    aa0c:	ff73 ffda ffc2 ffc7 ffcc 0010 0033 0069     s...........3.i.
    aa1c:	007c 004e 00e0 014b 0195 0190 01b8 01a3     |.N...K.........
    aa2c:	01af 01d3 0220 01f9 01b1 023f 0238 01cb     .... .....?.8...
    aa3c:	017a 019a 0156 015e 013a 00d3 00c3 00b4     z...V.^.:.......
    aa4c:	0106 007e 0060 007f 0012 ffbb 002c 003f     ..~.`.......,.?.
    aa5c:	ffad ff81 ff7c ffd3 ff96 ff58 ff74 ffac     ....|.....X.t...
    aa6c:	ffb7 ffa6 ff49 ff3b ff79 ff27 ff52 ff6e     ....I.;.y.'.R.n.
    aa7c:	ff54 fee0 fef7 ff33 ff0b ff20 ff15 ff68     T.....3... ...h.
    aa8c:	ff57 ff3e fedb fef1 ff4b ff5a ff27 fecb     W.>.....K.Z.'...
    aa9c:	ff5e ff92 ff66 ff54 ff63 ff50 ff6e ff26     ^...f.T.c.P.n.&.
    aaac:	ff67 ffa8 ff61 ff8a ff7d ff67 ff98 ffc9     g...a...}.g.....
    aabc:	ffa9 ffe2 000e ffb9 ffe6 002d 001e 0052     ..........-...R.
    aacc:	0099 00ac 00c5 00a4 00a9 00a5 009d 005e     ..............^.
    aadc:	0097 00f2 009f 0089 008d 00a6 0079 00a6     ............y...
    aaec:	006a 00ef 011f 0079 00bf 00a2 0098 0041     j.....y.......A.
    aafc:	00bd 00df 014b 00d2 00f9 00ef 00d5 00b1     ....K...........
    ab0c:	003c 0086 0084 004b ffdd 0024 ff80 ffc4     <.....K...$.....
    ab1c:	ff5b ff61 ff19 ff3f ff68 fede ff65 ff62     [.a...?.h...e.b.
    ab2c:	ff13 ff9d ffb5 ffef ffea ffea 000b 0008     ................
    ab3c:	002c ffe8 fffe 0028 0034 ffeb ffe7 0020     ,.....(.4..... .
    ab4c:	ffdd ffce 0039 fff5 0012 ffe6 ff96 0011     ....9...........
    ab5c:	ffb6 ffbb ffad ffd6 ffdd ffa5 ff97 ff56     ..............V.
    ab6c:	ffac ffa0 ffc2 0002 0039 001d 0052 0022     ........9...R.".
    ab7c:	0002 000d 0027 ffb4 ffe6 003f ffe9 ffbb     ....'.....?.....
    ab8c:	ff80 ffd2 ffd3 ffb6 ffe4 000b 0032 002b     ............2.+.
    ab9c:	0028 0014 0054 0066 0082 00c8 00b1 00c4     (...T.f.........
    abac:	0111 00ce 008f 008b 0039 0021 002b fff8     ........9.!.+...
    abbc:	ff97 ff8f ff73 ff35 ff05 feb4 fec4 fe85     ....s.5.........
    abcc:	fe68 fe60 fead fe63 fe86 febd fefb ff7f     h.`...c.........
    abdc:	ff46 ffc2 0058 000f fffe 0058 0048 006d     F...X.....X.H.m.
    abec:	0040 004f 007f 007e 009e 00c4 00e3 00d2     @.O...~.........
    abfc:	00c8 00a4 00a1 007a 00bb 00c4 0106 0111     ......z.........
    ac0c:	0134 015d 0188 01b6 017f 012e 00e8 00cc     4.].............
    ac1c:	008a 0051 ffe5 0024 0042 0003 ff94 ff93     ..Q...$.B.......
    ac2c:	ffc9 ffb2 ff9b ff55 ff3d ff50 ff50 ff10     ......U.=.P.P...
    ac3c:	ff48 ff8f ffa7 ff63 ffcc fffe 001d ffeb     H.....c.........
    ac4c:	0037 009a 004c 005e 0050 0070 006e fff3     7...L.^.P.p.n...
    ac5c:	ffb0 003a ffbb ffbd ff5c ff7e ff86 ff1a     ..:.....\.~.....
    ac6c:	feee ff23 ff2f fee1 ff11 ff1a ff45 ff8a     ..#./.......E...
    ac7c:	ffb3 ffaf 001e 0044 00b1 007d 0055 0099     ......D...}.U...
    ac8c:	006f 0043 005e ffb2 0018 fffb ffa7 ff96     o.C.^...........
    ac9c:	0005 ffc3 ffd1 ffdd 0035 ffe5 ffd5 fffe     ........5.......
    acac:	ffc2 ffd5 ffe4 0045 0042 0048 0028 0093     ......E.B.H.(...
    acbc:	00a9 00d0 00cf 00a0 00b4 00b1 004d ffe1     ............M...
    accc:	001b ffea fff9 0002 ffb7 ffc5 ffcf ffa4     ................
    acdc:	ff5d ff41 ff28 ff94 ff6f ff51 ffc9 ff8a     ].A.(...o.Q.....
    acec:	ff66 ffba 0001 0015 0041 00d9 00f2 00a3     f.......A.......
    acfc:	009d 008b 0092 005f 0073 0074 00d4 0088     ......_.s.t.....
    ad0c:	0064 0065 0085 0007 fffc ffda ffe7 0009     d.e.............
    ad1c:	ffb5 ffce ffda 0038 ffe8 fff3 0019 0053     ......8.......S.
    ad2c:	001d 0005 0031 0031 ffde fff3 ffb4 ff6b     ....1.1.......k.
    ad3c:	ff9e ff6e ffb5 ffb7 ff5c ff67 ffcc ff6e     ..n.....\.g...n.
    ad4c:	ff6d ff25 ff75 ff52 ff18 ff87 ffc2 ffa7     m.%.u.R.........
    ad5c:	ffd6 0047 007e 0011 0058 007d 0092 0099     ..G.~...X.}.....
    ad6c:	000c 0066 0063 0007 ffd9 0016 ffec 007f     ..f.c...........
    ad7c:	0063 006e 0069 0056 0077 0064 0012 fffb     c.n.i.V.w.d.....
    ad8c:	0086 004e 0000 0007 000e 0053 0052 003b     ..N.......S.R.;.
    ad9c:	003b 0045 fff8 fff7 000d 002e ffb4 ffdb     ;.E.............
    adac:	ffe8 ffd4 0017 ff6f ffa7 ffc6 ffbc ff96     ......o.........
    adbc:	ffcb ff86 ffda ffbd ffc6 0001 ffd2 fff2     ................
    adcc:	ffd9 0012 0009 005f 0014 007c 0035 0018     ......_...|.5...
    addc:	0056 ffed 0050 00af 0008 ffda ffdf ffb0     V...P...........
    adec:	ff8f ff9e ff46 ff94 ffbc ffb7 ffd5 ffb7     ....F...........
    adfc:	ff93 ff7b ffb9 ffc1 ff68 ff71 ff65 ffd4     ..{.....h.q.e...
    ae0c:	ffe7 ffb4 ffae ffcf fff9 ffe6 ffb1 fff0     ................
    ae1c:	fff1 0012 0014 000e 0046 002f 0062 0041     ........F./.b.A.
    ae2c:	0029 0021 0019 001c fffc ffc6 fffe 0015     ).!.............
    ae3c:	0034 003e 001f 0044 000b 0028 007c 002f     4.>...D...(.|./.
    ae4c:	0049 006c 007d 0078 0052 0051 004f 0042     I.l.}.x.R.Q.O.B.
    ae5c:	008f 0098 0060 0039 005f 0083 0032 0046     ....`.9._...2.F.
    ae6c:	002c 003e 005f 006a 008a 00ba 0089 00e2     ,.>._.j.........
    ae7c:	00fa 00c8 00d4 0107 00f2 00b4 005a 00a2     ............Z...
    ae8c:	0089 0060 008f 0092 0061 0005 0039 0000     ..`.....a...9...
    ae9c:	fff0 ffa9 ff54 ff41 ff3d ff09 fef0 fe6a     ....T.A.=.....j.
    aeac:	feb5 fef3 fe6a fe87 fe6c fe47 fe6f fe93     ....j...l.G.o...
    aebc:	fe76 fea6 fe95 fe9c fead fed9 ff3a ff4b     v...........:.K.
    aecc:	ff5d ffa4 ff74 ffcd ffee ffc7 ffef 000b     ]...t...........
    aedc:	001b ffcc 0047 0084 0044 0071 00df 00e1     ....G...D.q.....
    aeec:	0093 00d7 003f 0037 0041 0091 0099 0069     ....?.7.A.....i.
    aefc:	0087 007a 0090 0020 ffef 000c 0065 0018     ..z... .....e...
    af0c:	0062 0019 0010 0056 0083 0092 005a 00df     b.....V.....Z...
    af1c:	00e0 00bf 0083 00a5 008e 006b 00c4 00a3     ..........k.....
    af2c:	00af 0099 0073 008e 00b0 009e 007d 00d6     ....s.......}...
    af3c:	00de 00d4 00a6 008a 0060 006c 009c 0060     ........`.l...`.
    af4c:	0098 0065 00b4 0034 ffe6 001b 0025 ffeb     ..e...4.....%...
    af5c:	ffa0 ffeb ffc1 ffa6 ff2c ff22 ff60 ff6a     ........,.".`.j.
    af6c:	fea9 ff0e ff15 fe77 fe48 fe3a fe30 fe08     ......w.H.:.0...
    af7c:	fe04 fe1f fe32 fe13 fe4a fe84 fea8 fec1     ....2...J.......
    af8c:	fea3 fecc fef6 fefc ff62 ffa2 ffb4 001e     ........b.......
    af9c:	002c 0041 0055 0098 00b5 00ad 0136 010b     ,.A.U.......6...
    afac:	0155 0177 014f 012b 01a5 0197 014f 018e     U.w.O.+.....O...
    afbc:	019c 01c0 01bb 01ce 0165 016d 014c 0128     ........e.m.L.(.
    afcc:	0108 00c5 00da 0064 005e 0070 0001 000e     ......d.^.p.....
    afdc:	004d 0000 ffae ffb9 ffd9 ffbf ffac ff9b     M...............
    afec:	ff8c ff9f ff3b ff55 ff98 ff5b ff4b ff31     ....;.U...[.K.1.
    affc:	ff7b ff55 ff28 ff3d ff3c ff35 fee0 ff44     {.U.(.=.<.5...D.
    b00c:	ff77 ff2e ff52 ffaa ff82 ff78 ff98 ff8e     w...R.....x.....
    b01c:	ffe1 fffc 000a 0025 ffda ffcd ffeb ffec     ......%.........
    b02c:	ffd4 0006 0040 0051 002d ffeb 0022 007f     ....@.Q.-..."...
    b03c:	0090 0050 0083 008c 0059 004f 0046 0034     ..P.....Y.O.F.4.
    b04c:	ffe9 003f 0064 0027 0042 0015 ffdf ffc2     ..?.d.'.B.......
    b05c:	ffdf ffc7 ffd2 004a ffff 000a ffe1 0006     ......J.........
    b06c:	ffda ffc1 fffe ffb9 fff2 000e fff8 0017     ................
    b07c:	000f 0029 0000 ffe2 0040 002d fff0 0011     ..).....@.-.....
    b08c:	005d 0047 0009 fff5 001b 0036 ffef 0034     ].G.......6...4.
    b09c:	0012 004c 0008 ffdf ffd5 ff9b ffa6 ffd5     ..L.............
    b0ac:	ffa7 ff5b ffd9 0006 ffdb ffa6 0019 003d     ..[...........=.
    b0bc:	001e 0042 0050 0065 0059 0044 0082 0094     ..B.P.e.Y.D.....
    b0cc:	0012 003a 0021 0013 ffe3 fff8 002a ffc4     ..:.!.......*...
    b0dc:	ffef ffb2 ffe1 fff3 ffcc ffe8 ffc6 ffd6     ................
    b0ec:	ffa9 ffbb ff9d ff9b ffdb 0022 fff9 ffbe     ..........".....
    b0fc:	ffa8 ffc3 ffc4 ffcd ffba ffcf 000f 001d     ................
    b10c:	fffa 0039 001c 0042 fffb 0014 0027 0000     ..9...B.....'...
    b11c:	003f 000c ffee 001d 0011 0017 006a 005c     ?...........j.\.
    b12c:	009d 005d 0075 0066 0037 0034 ffe7 000c     ..].u.f.7.4.....
    b13c:	0004 ffd0 0016 0029 ffe7 ffee ffe2 002b     ......).......+.
    b14c:	fff1 ffb5 fff9 ffe6 ffab ffba ffc7 ffc8     ................
    b15c:	0010 0013 0032 fffb 000b ffdb ffdf ffca     ....2...........
    b16c:	ff9f ff85 ffdf ff9b ff9c ffe8 ffa2 ff80     ................
    b17c:	ffc7 ffd6 ffd5 ffad fffd 0016 ffe7 0005     ................
    b18c:	001b 0036 006d 0080 0053 0062 007d 0064     ..6.m...S.b.}.d.
    b19c:	006b 005f 0088 003f 0083 0081 ffc8 0006     k._...?.........
    b1ac:	0019 ffdc ff94 fff5 ffa6 fff4 ffbc ff97     ................
    b1bc:	ffa0 ff8c 0007 ffa4 ffa1 ff8f ffc5 ff95     ................
    b1cc:	ff7d ff99 ffb5 fffa ffb7 ffd8 001a 0000     }...............
    b1dc:	0006 001b 005d 003f 0019 0073 005b 0097     ....].?...s.[...
    b1ec:	008a 007a 008d 00a3 0078 00d6 00c1 00d5     ..z.....x.......
    b1fc:	00d0 00f0 00c7 00b4 006b 0087 0070 0063     ........k...p.c.
    b20c:	0031 0033 0016 001d 0010 ff9e ff91 ff86     1.3.............
    b21c:	ff4b ff49 ff6c ff2f ff23 ff5b ff27 ff04     K.I.l./.#.[.'...
    b22c:	ff2e ff17 ff2d ff6a ff3f ff96 ffc3 ffb7     ....-.j.?.......
    b23c:	ff94 ff7f ffc1 ffa2 ffaf ffbc ffe8 0002     ................
    b24c:	fff6 0031 001f fffd 0039 0044 0037 00a6     ..1.....9.D.7...
    b25c:	0072 0051 009b 00b1 00b1 008d 0077 0075     r.Q.........w.u.
    b26c:	00be 0073 0070 006c 0060 0016 0026 0040     ..s.p.l.`...&.@.
    b27c:	fffc 0000 fffe fff9 ff9d ffdb ffce ff9f     ................
    b28c:	ffaa ff84 ffde ff95 ff97 ffb6 ff8f ffbe     ................
    b29c:	ffd6 ff90 fff6 0007 fff6 000a ffeb 005e     ..............^.
    b2ac:	0012 0022 004f 000d 006f 0064 0015 fff8     ..".O...o.d.....
    b2bc:	001c fff9 ffbd ffad fff3 ffe6 ffaf ffd0     ................
    b2cc:	fff7 0008 0017 001c 004f fffe fff7 0022     ........O.....".
    b2dc:	fff2 0046 0046 0008 0032 003e 004d 0035     ..F.F...2.>.M.5.
    b2ec:	0038 0030 002e 0039 0079 fff9 000e 006b     8.0...9.y.....k.
    b2fc:	002c 002d 0030 0011 fff0 ffb8 ffc8 ffb3     ,.-.0...........
    b30c:	ffb2 ffc8 ffcb ffb3 ffd7 ffc9 ff97 ff85     ................
    b31c:	ff80 ff7c ffe1 ffac ffce ffb0 ffbc ffce     ..|.............
    b32c:	ffd7 ffef 0030 000a 001a fffc 0000 ffda     ....0...........
    b33c:	002a 0041 0006 0041 0030 004f 0057 0043     *.A...A.0.O.W.C.
    b34c:	0029 0036 0070 001a ffca 0043 003a 0001     ).6.p.....C.:...
    b35c:	ffed fffd 001c fffc ffed 0016 ffeb fffd     ................
    b36c:	ffe9 ffe3 fffa ffeb ffdd 0003 0000 fff0     ................
    b37c:	003d fff4 003c 0028 0025 001b 0026 000a     =...<.(.%...&...
    b38c:	002c 0030 000b ffdb ffe0 0012 ffd2 fffb     ,.0.............
    b39c:	000f ffb8 ffea ffec ffb3 fff6 ffe2 fff1     ................
    b3ac:	ffd2 ff8c ffcd ffc8 ff9e ffa2 ffab ffca     ................
    b3bc:	ffec ffdf ffd1 000e 000e fff1 fff6 005f     .............._.
    b3cc:	005e 002a 0048 0034 0043 0013 0008 0047     ^.*.H.4.C.....G.
    b3dc:	0056 002a fff4 002e 0038 0039 0006 0037     V.*.....8.9...7.
    b3ec:	0043 fff5 0027 ffff ffd2 000b 0036 0008     C...'.......6...
    b3fc:	fff7 0036 003b 0034 0024 003d 0025 0018     ..6.;.4.$.=.%...
    b40c:	001e ffd6 ffd3 fff0 ffa4 ffc9 ffb1 ff5d     ..............].
    b41c:	ff75 ff7b ff9c ff91 ff69 ffca fffb ffd9     u.{.....i.......
    b42c:	ffe3 ffff 001c fff7 0006 003e 0025 0013     ..........>.%...
    b43c:	0004 0037 005f 0000 0021 000d 0054 0044     ..7._...!...T.D.
    b44c:	0004 0030 0065 0088 fff2 fffd 0003 ffb4     ..0.e...........
    b45c:	ff99 ffbf ff86 ffa9 ffc9 ff98 ffb8 ff9f     ................
    b46c:	002b fff8 ffdc 0003 ffe6 fffc fff3 fff7     +...............
    b47c:	fff0 001c 000c fff9 002a 006c 0060 0030     ........*.l.`.0.
    b48c:	0066 0042 004b 0071 002b fff5 0030 0065     f.B.K.q.+...0.e.
    b49c:	0013 0009 0052 005c 001c 0062 ffe7 ffdd     ....R.\...b.....
    b4ac:	fff4 ffda ff96 ffbc ffa8 ffbe ff7c ff74     ............|.t.
    b4bc:	ffa3 ff90 ffb2 ffce 0010 0010 0006 004b     ..............K.
    b4cc:	0044 0029 004b 00ab 0067 0036 0092 005b     D.).K...g.6...[.
    b4dc:	008f 006d 003d 0054 0042 fff5 ffcb ffb2     ..m.=.T.B.......
    b4ec:	ffc9 ff7d ff8c ffd3 ffb2 ff98 ff84 ffd3     ..}.............
    b4fc:	ff98 ff66 ffb5 ffd4 ffb4 ffd4 ffec ffd3     ..f.............
    b50c:	ffea fff5 000a 0036 0057 0055 0006 0005     ......6.W.U.....
    b51c:	0016 fffd 000b ffc9 ffd1 ffe3 0009 fffa     ................
    b52c:	fff0 ffe5 fff6 0006 0039 0042 003f 0039     ........9.B.?.9.
    b53c:	000e 002c 002b 0028 0077 0052 0053 0035     ..,.+.(.w.R.S.5.
    b54c:	0056 000a 0012 0002 006b fff2 ffe9 0010     V.......k.......
    b55c:	0008 fff8 ffee ffee ffe0 0005 ffdb ffde     ................
    b56c:	ffa7 ffd4 ffb4 ffcd 0002 0008 001c ffcc     ................
    b57c:	fffa 002d ffe6 ffc2 ffef fffe fff9 ffde     ..-.............
    b58c:	ffc3 ffcd fff1 ffb9 ffab ff98 ffb6 ffaf     ................
    b59c:	ff78 ff97 ff65 ff4b ff69 ff7a ffbe ffda     x...e.K.i.z.....
    b5ac:	fffb 001a 0054 0079 007b 00a3 00dc 00f1     ....T.y.{.......
    b5bc:	00e1 00e5 00bd 00b0 007b 009c 00a8 0071     ........{.....q.
    b5cc:	005e 007f 0088 0084 0022 0011 004f 000d     ^......."...O...
    b5dc:	fff0 0008 0012 0002 0017 ffec ffbb ff8d     ................
    b5ec:	ffff ffc0 ffb0 ffe0 ffd0 ff70 ff5b ff92     ..........p.[...
    b5fc:	ff6d ffb3 ffb4 ffb6 ff96 ffaf ff88 ff6c     m.............l.
    b60c:	ff9c ffa4 ffa4 ff92 ffa8 ffc0 ffd3 ffcf     ................
    b61c:	fff8 0004 002b 0050 0035 0021 0021 000b     ....+.P.5.!.!...
    b62c:	0011 001e fffb 001a 0020 0027 000a 002c     ........ .'...,.
    b63c:	002f 002a 0018 0026 0009 ffdf ffa2 0005     /.*...&.........
    b64c:	ffbd 0004 0013 0046 003e 0044 007e 0017     ......F.>.D.~...
    b65c:	0024 0007 0057 ffe8 fffd ffe4 ffb4 ffa7     $...W...........
    b66c:	ffae ffc9 ffb1 0010 ffef 000a ffed ffe2     ................
    b67c:	ffef fff4 fff2 ffcd ffe6 004d 0046 0033     ..........M.F.3.
    b68c:	0035 006b 0084 fff7 004a 004d 0067 0000     5.k.....J.M.g...
    b69c:	001f 000a ffc4 0013 0001 001b ffdd 001c     ................
    b6ac:	0020 ffec 0049 003f 003c fff3 ffe6 0029      ...I.?.<.....).
    b6bc:	000e ffee 0015 001f 0037 0009 0015 001a     ........7.......
    b6cc:	002d 0048 0052 ffde ffe6 0003 ffcb ff82     -.H.R...........
    b6dc:	ffbf ff8f ffac ff89 ff81 ff6c ffbf ffa5     ..........l.....
    b6ec:	ff67 ff9d ff98 ff84 ff92 ffdb ffbc ffde     g...............
    b6fc:	001a 0048 0016 0044 0068 0029 0003 001a     ..H...D.h.).....
    b70c:	005c fffa 0037 0028 0051 0025 0033 003d     \...7.(.Q.%.3.=.
    b71c:	004d 000a 0030 0036 0022 002b 0016 0072     M...0.6.".+...r.
    b72c:	004d 002f 0024 0025 0053 001d 002e 0059     M./.$.%.S.....Y.
    b73c:	0016 fff6 0004 fff4 ffd8 ffa4 ff96 ffdc     ................
    b74c:	ff54 ff7a ffae ffc8 ff63 ff63 ffbf ffed     T.z.....c.c.....
    b75c:	ffb2 ffab ffdd fff9 0028 fff1 ffff 005e     ........(.....^.
    b76c:	0032 003d 0009 006b 005f 003b 001f 002d     2.=...k._.;...-.
    b77c:	003e 0069 004c 0008 0022 0014 fffc ffcf     >.i.L...".......
    b78c:	ffe7 ffdf ffe3 ffd6 ffde ffd9 ffcd ff9b     ................
    b79c:	ffe7 ffd0 ffe5 ffcb ffe1 0048 0068 006a     ..........H.h.j.
    b7ac:	001b 0050 000b 0089 0037 000b 0032 0000     ..P.....7...2...
    b7bc:	ffe7 0016 0009 0006 000c fff4 ffd4 ffc7     ................
    b7cc:	ffa3 fff0 ffc9 ffb5 ffb8 ffa5 ffbf ffab     ................
    b7dc:	000a 0038 002d 0032 0042 004c 002f 0044     ..8.-.2.B.L./.D.
    b7ec:	0049 0038 002e 0076 0033 ffdd 0020 0037     I.8...v.3... .7.
    b7fc:	000e ffd8 ffbf ffc4 ffb5 ffc6 ff8e ffa8     ................
    b80c:	ff96 ff77 ff7e ff99 ffdb ffd3 fff6 fffb     ..w.~...........
    b81c:	0008 0034 fffa 0000 ffdb 0009 000f fffa     ..4.............
    b82c:	0019 0001 0061 0047 001e 007b 004a 003c     ....a.G...{.J.<.
    b83c:	001b 001c 0007 0028 004d 0013 002e 0022     ......(.M.....".
    b84c:	005d 0001 ffcc ffe3 0009 ffd5 ffe9 000a     ]...............
    b85c:	fffe ffad ff99 ffff fff9 ffa3 ffb4 ffea     ................
    b86c:	ff98 ff7e ff6c ffcd ffa8 fff6 0017 0034     ..~.l.........4.
    b87c:	004b 001d 0027 fffb 0059 0065 0071 006f     K...'...Y.e.q.o.
    b88c:	0089 0088 0044 0043 003f 0075 0002 fff2     ....D.C.?.u.....
    b89c:	ffea 0010 ffc3 ff65 ff8c ff8b ff96 ff5f     ......e......._.
    b8ac:	ff83 ff87 ffb5 ffc1 ffc1 ff86 ffac ffd0     ................
    b8bc:	ffec fff8 001d 0022 0026 0069 0051 006d     ......".&.i.Q.m.
    b8cc:	007f 00b0 009b 009b 00ca 00d0 00a4 00b6     ................
    b8dc:	00c4 00a9 0076 006c 0078 0052 0018 ffe9     ....v.l.x.R.....
    b8ec:	ffe5 ffd7 ffbf fff2 ffaa ff99 ff75 ff6f     ............u.o.
    b8fc:	ff80 ff4f ff48 ffa6 ffc5 ff9a ffaa ff98     ..O.H...........
    b90c:	ffb8 fff5 ffbc ffc7 ffe7 ffe9 fff5 ffab     ................
    b91c:	ffa6 fffd fff2 ffcb ffde fffb ffef ffb3     ................
    b92c:	ffce ffcc 0007 ff85 ffd6 ffc8 ffad ffc5     ................
    b93c:	ffad ffcf ffe7 ffec fff4 000d 0001 0011     ................
    b94c:	0027 001c ffca ffff 002a 001f ffcd ffdd     '.......*.......
    b95c:	ffee ffef ffa3 ffd4 fff9 ffe1 0001 002a     ..............*.
    b96c:	ffee 003d 0059 006f 0091 00f3 0103 013f     ..=.Y.o.......?.
    b97c:	016e 00f4 013b 016c 0173 0132 0124 0163     n...;.l.s.2.$.c.
    b98c:	011e 00e9 00c8 008d 0094 004d 0032 0000     ..........M.2...
    b99c:	ffdc ffa6 ff5a ff2b ff19 feff fed4 feca     ....Z.+.........
    b9ac:	fea3 fec5 fede fecd feac ff08 ff2a ff14     ............*...
    b9bc:	ff36 ff75 ff3d ff6e ffa8 ffb9 ffa7 ffaa     6.u.=.n.........
    b9cc:	ffe1 ffec fffc ffe7 fffb ffdd ffd5 0008     ................
    b9dc:	001b 000f 0054 003d 0063 0073 0077 007b     ....T.=.c.s.w.{.
    b9ec:	004e 0065 0086 0046 0030 006f 0064 0039     N.e...F.0.o.d.9.
    b9fc:	0021 0010 0026 0036 0013 fff6 0009 000f     !...&.6.........
    ba0c:	ffda 0011 ffc4 ff9d ffb9 ffba ffb8 ffc9     ................
    ba1c:	ffe8 fff9 0031 001b 001b 0034 004f 001a     ....1.....4.O...
    ba2c:	0066 0062 003c 003a fffd 002d 001a 0006     f.b.<.:...-.....
    ba3c:	0025 004b 0037 000a fffe ffe5 0002 0018     %.K.7...........
    ba4c:	ffc7 ffbd 0008 0013 002a 0026 0017 0062     ........*.&...b.
    ba5c:	0066 003e 0028 008a 0057 0009 fffa 0042     f.>.(...W.....B.
    ba6c:	002e ffc9 ffd9 ffe9 ffde ffda ffba ffcd     ................
    ba7c:	ffd0 ff9e ff88 ff5c ff58 ffa8 ffa4 ff7f     ......\.X.......
    ba8c:	ff8e ffc2 ffcc ffce ffb6 fffa 000d 001b     ................
    ba9c:	0027 0004 002a fff6 0024 000e 0019 001f     '...*...$.......
    baac:	000c 0026 000c fff0 ffe0 0016 0013 fffa     ..&.............
    babc:	ffeb 0019 ffd6 ffd9 ffd6 fff5 0025 0049     ............%.I.
    bacc:	0067 003c 0054 0050 000c 0053 0055 003c     g.<.T.P...S.U.<.
    badc:	0036 0046 0036 000d fff1 ffd4 ffcd ffd9     6.F.6...........
    baec:	ffb4 ffd7 fffd ffa2 ffc6 ffbb ff88 ffc2     ................
    bafc:	ffcd 0000 fffe ffea 0041 003a 0027 006b     ........A.:.'.k.
    bb0c:	005e 006c 007a 0090 008f 007c 005d 001c     ^.l.z.....|.]...
    bb1c:	003f 0027 001e ffea fff3 ffd9 ffca ff9c     ?.'.............
    bb2c:	ffb9 ffaf ffc5 ff9f ff90 ff7c ff84 ffc7     ..........|.....
    bb3c:	ff8c ffa0 ffd0 ffc3 ffde fff0 0003 ffef     ................
    bb4c:	0016 0007 0039 001b ff9e 0026 0057 001d     ....9.....&.W...
    bb5c:	000c 0054 0056 006e ffe2 fff8 fff1 ffe6     ..T.V.n.........
    bb6c:	0002 ffc8 0028 0018 fff7 ffee 001c 002b     ....(.........+.
    bb7c:	002c 0004 0054 0050 ffdd ffc5 fff2 fffc     ,...T.P.........
    bb8c:	ffd3 ffa1 ffe4 ffc8 ffb0 ffd8 ffc5 0001     ................
    bb9c:	fff1 ffd0 ffff 0025 004a 0016 0028 0047     ......%.J...(.G.
    bbac:	0046 0039 002e 003e 002c 003f 001b 001a     F.9...>.,.?.....
    bbbc:	0036 003d 0057 0007 ffb9 ffdd ffd0 ffd3     6.=.W...........
    bbcc:	ffa8 ffa4 ff61 ff93 ff8b ff8a ff9f ff89     ....a...........
    bbdc:	fff8 fff0 0005 ffe2 ffeb 001a 000c ffe6     ................
    bbec:	002e 004f 003a 0082 0045 005c 005a 0035     ..O.:...E.\.Z.5.
    bbfc:	005f 004d 000f 003f 0002 0019 fffa 001e     _.M...?.........
    bc0c:	0015 fff8 002b 003f 0029 0018 0039 0020     ....+.?.)...9. .
    bc1c:	000c ffe4 0014 0066 0012 0020 0038 001d     ......f... .8...
    bc2c:	0027 ffec fff5 002e ffd8 ffef ffe3 ffc2     '...............
    bc3c:	ff83 ff83 ff60 ff76 ff78 ff46 ff7f ff6d     ....`.v.x.F...m.
    bc4c:	ff85 ff43 ff88 ff8c ff8f ffde 0011 003b     ..C...........;.
    bc5c:	0056 002d 0025 0080 006c 0072 00a0 0096     V.-.%...l.r.....
    bc6c:	0086 00bc 00a6 005d 006f 0061 004a 0052     ......].o.a.J.R.
    bc7c:	0052 0042 0026 0029 0005 0004 ffda ffde     R.B.&.).........
    bc8c:	ffb0 ffc3 ffb5 ffc3 ffab ffa0 ffd8 ff95     ................
    bc9c:	ffbb ff94 ffa8 ffac ffd9 ff9f ffd2 ffb5     ................
    bcac:	ffcb ffcf ffcc ffe8 ffee fffa 0044 0077     ............D.w.
    bcbc:	0033 0027 000b 0036 0005 fffa ffee 0011     3.'...6.........
    bccc:	0014 ffd6 ffe7 fff0 ffcd ffdb 0001 0017     ................
    bcdc:	002b 0027 002e 0003 fffc ffe8 ffb4 ffaf     +.'.............
    bcec:	ffdb ffee 0007 0025 ffda ffe9 ffd9 0013     ......%.........
    bcfc:	0008 fff9 0002 0030 0008 0028 fffd 001e     ......0...(.....
    bd0c:	0033 0038 0024 fffe 004d 006b 003f 0032     3.8.$...M.k.?.2.
    bd1c:	009f 0061 0086 0086 00a5 00a0 007d 0061     ..a.........}.a.
    bd2c:	0059 0045 0021 002a 0032 000c fff0 ffdf     Y.E.!.*.2.......
    bd3c:	ff93 ffa9 ff58 ff69 ff5b ff39 ff0c ff35     ....X.i.[.9...5.
    bd4c:	ff62 ff46 ff6e ff69 ffba ffa4 ffbc ffc7     b.F.n.i.........
    bd5c:	ffd6 fff5 0020 0015 0038 0074 0061 007a     .... ...8.t.a.z.
    bd6c:	0089 00a5 0092 0088 005f 006b 0025 004d     ........_.k.%.M.
    bd7c:	0046 fff4 0005 ffdb ffa6 ff99 ffd0 ffa7     F...............
    bd8c:	ff8e ffd8 ffb4 ff61 ff9e ffc4 ffc5 ffbb     ......a.........
    bd9c:	ff84 ffee 0007 0009 ffe6 000e 004d 0070     ............M.p.
    bdac:	0051 0047 003c 006f 0070 0036 005c 0062     Q.G.<.o.p.6.\.b.
    bdbc:	004e 000d 0004 0010 ffef fff7 0000 003c     N.............<.
    bdcc:	0019 0021 004a 0050 0056 0009 fff3 001c     ..!.J.P.V.......
    bddc:	0050 0019 0021 0028 002a 002c ffeb ffe3     P...!.(.*.,.....
    bdec:	0007 ffe4 ff55 ff6f ffc1 ff8e ff39 ff99     ....U.o.....9...
    bdfc:	ff6e ff6e ff82 ffae ff94 ffbc ffd1 ffad     n.n.............
    be0c:	ff96 ffe0 001e 0080 002b 0039 007f 005f     ........+.9..._.
    be1c:	0074 002a 003f 0055 006c 001c 0006 000d     t.*.?.U.l.......
    be2c:	0010 001b 0027 ffe0 000b 0033 fff6 ffe0     ....'.....3.....
    be3c:	fff6 0008 ffc5 ffbd ffc2 ffc2 ffce fffa     ................
    be4c:	ffd2 fff1 fffa 0018 0021 001b 002b 0008     ........!...+...
    be5c:	0032 0025 0003 fffe 0023 000b 000b fffd     2.%.....#.......
    be6c:	ffcf 000d 0037 004b ffe7 002d 002e 0002     ....7.K...-.....
    be7c:	0005 ffff 0023 001b 0010 003b 0021 0025     ....#.....;.!.%.
    be8c:	0015 001e 0036 0002 0035 000b 000b ffec     ....6...5.......
    be9c:	0001 ffa3 ffc0 ffa2 ffc3 ff87 ffae ffb8     ................
    beac:	ff7e ff90 ffbf ff8e ff9d ffd6 ffc9 ffb7     ~...............
    bebc:	ffca ffd5 ffd4 ffc4 ffbc 000e 0015 0058     ..............X.
    becc:	0020 0041 0088 0063 007e 004c 002b 0077      .A...c.~.L.+.w.
    bedc:	005b 002b 0035 0060 0070 001d fff2 000b     [.+.5.`.p.......
    beec:	002b ffe8 000f 000a 003f 0026 ffe6 0000     +.......?.&.....
    befc:	004d 003e 000a 0010 002f 0048 0031 000c     M.>...../.H.1...
    bf0c:	002a fff4 ffe5 fff3 ffd5 ffde 0001 ffbd     *...............
    bf1c:	ffaa ffd7 ff7d ff65 ff9a ff39 ff53 ff7b     ....}.e...9.S.{.
    bf2c:	ff55 ff6c ffe8 ffc1 ffe4 0017 004b 002e     U.l.........K...
    bf3c:	006d 004d 0054 0060 0041 003c 0032 008c     m.M.T.`.A.<.2...
    bf4c:	005f 000f 0033 005c 002c ffe9 ffea 0022     _...3.\.,.....".
    bf5c:	0014 fff6 ffec ffb2 0015 0004 fff5 fff2     ................
    bf6c:	fff9 0006 ffe9 ffe7 001f ffca ffb7 ffca     ................
    bf7c:	ffe1 ffd3 ff79 ffce ff90 ff5e ffb6 ffd0     ....y.....^.....
    bf8c:	ff6b ffe4 ffee ffa1 ffcf ffd9 ffec fffa     k...............
    bf9c:	0034 0006 fffc 006e 004f 0033 0071 009f     4.....n.O.3.q...
    bfac:	00b1 008f 0092 007a 00ce 007e 0040 0066     ......z...~.@.f.
    bfbc:	003f 006a 0024 0015 002d 0009 ffe4 fff1     ?.j.$...-.......
    bfcc:	0042 001f fffd 0033 0017 002a 0000 0032     B.....3...*...2.
    bfdc:	000c 003b 0074 0025 0027 ffdc 0002 0013     ..;.t.%.'.......
    bfec:	ffb2 ff98 ffa6 ffb7 ff3c fef1 ff3e ff35     ........<...>.5.
    bffc:	fefd ff1e ff20 ff49 ff3e ff94 ffb2 ffaa     .... .I.>.......
    c00c:	ffb1 fff4 0041 0046 004b 0074 008f 0080     ....A.F.K.t.....
    c01c:	0069 0078 00bb 00a5 006e 0068 005b 0002     i.x.....n.h.[...
    c02c:	ffee ffbc ffd5 ff8b ff7a ffc8 ff98 ffb9     ........z.......
    c03c:	ffbd ffb6 ffdc fff6 fffa 000b 0015 ffdc     ................
    c04c:	ffe2 003a 0026 0063 0057 004d 00b0 00a0     ..:.&.c.W.M.....
    c05c:	004d 006c 00a2 007e 0044 002f 0067 0047     M.l...~.D./.g.G.
    c06c:	0033 fffe fff3 ff9f ffdb ffc4 ff8d ff8e     3...............
    c07c:	ff9e ffbc ffef fff5 ffda 0029 0022 0029     ..........).".).
    c08c:	fff8 0024 0053 0032 ffe6 ff95 ffea ffe2     ..$.S.2.........
    c09c:	ff9c ff92 000b ffb0 ffdc ffd9 ffb0 ffcd     ................
    c0ac:	ffaa ffa4 ffbd ffdb ffbd ffd3 0004 0054     ..............T.
    c0bc:	0042 000a ffe0 0043 0011 0009 ffe1 0008     B.....C.........
    c0cc:	0055 ffed 000b fffb ffc3 fff8 0025 fff5     U...........%...
    c0dc:	ffde fffa 004f 0028 fffa 000d 0026 0065     ....O.(.....&.e.
    c0ec:	006d 001f 0039 0061 0036 ffd9 000c 0027     m...9.a.6.....'.
    c0fc:	001d 0034 0041 000c 0036 002d fff5 0046     ..4.A...6.-...F.
    c10c:	0037 0014 ffdd 0003 ffae ffc1 ff9f ff76     7.............v.
    c11c:	ffde ffe7 ffd2 ff82 fffe ffcd ffee 000e     ................
    c12c:	0039 003a 000a 0032 0019 007c 0048 0016     9.:...2...|.H...
    c13c:	0045 0091 009e 0005 0019 0030 0029 0030     E.........0.).0.
    c14c:	fff5 0045 fff9 ff87 ff75 ff76 ff74 ff23     ..E.....u.v.t.#.
    c15c:	ff65 ff3d ff46 ff6a ff7d ff52 ff99 ffb2     e.=.F.j.}.R.....
    c16c:	ff90 ffb0 ffff 0005 0002 0030 0037 002d     ..........0.7.-.
    c17c:	0050 0049 002c 0064 0055 0089 0037 0010     P.I.,.d.U...7...
    c18c:	0014 0024 0029 0044 004d 0005 fffb 0030     ..$.).D.M.....0.
    c19c:	0040 006b 0028 0052 0096 0054 0054 00a0     @.k.(.R...T.T...
    c1ac:	0054 0028 00bc 0082 007e 0072 003e 0064     T.(.....~.r.>.d.
    c1bc:	0052 fffe fff6 ffec ffda ffa0 ff94 ff4e     R.............N.
    c1cc:	ff0e ff66 ff40 fef7 ff6a ffca ffac ffae     ..f.@...j.......
    c1dc:	ff99 ffa6 ffd5 fff2 ffd8 fff3 0038 ffc9     ............8...
    c1ec:	fffb 0029 0025 ffc1 ffe1 fff5 ffd5 001e     ..).%...........
    c1fc:	ffe1 0002 001d 0034 ff93 0041 0046 003f     ......4...A.F.?.
    c20c:	003f 0014 0060 003a 0027 fff4 0035 ffbb     ?...`.:.'...5...
    c21c:	0029 003f ffa1 ffec 0014 ffb4 ff97 ffb1     ).?.............
    c22c:	ffc9 ffbe fff9 002a fff9 0021 002c 003e     ......*...!.,.>.
    c23c:	0062 0090 00b7 007c 00a8 0081 00d5 0086     b.....|.........
    c24c:	007e 0086 004e 0067 ffdd 004f 0019 fff0     ~...N.g...O.....
    c25c:	ffa1 ffa3 ffbf ffe4 ffba ff37 ff65 ff5f     ..........7.e._.
    c26c:	ff5c ff23 ff40 ff4c ff8b ff6d ffc2 ffe6     \.#.@.L...m.....
    c27c:	ffe7 0025 0008 0057 001b 0053 0066 0045     ..%...W...S.f.E.
    c28c:	0019 0049 0022 ffe3 000c 0006 ffdb 0005     ..I."...........
    c29c:	001e 0008 000f 000a fff7 ffd1 ffec ffaa     ................
    c2ac:	ffb3 0025 0023 0005 004f 003e 0043 002c     ..%.#...O.>.C.,.
    c2bc:	0098 0047 0049 007f 0076 0070 0037 0021     ..G.I...v.p.7.!.
    c2cc:	ffeb ffc4 ffbd ffa3 ff55 ff94 ffda ff7b     ........U.....{.
    c2dc:	ffa1 ffaf ff5f ffaa ffcc ffc5 ffce fff7     ...._...........
    c2ec:	0009 0002 0013 0004 002a 0037 0030 005b     ........*.7.0.[.
    c2fc:	005e 00bd 00b3 009e 00a9 00ad 0054 002c     ^...........T.,.
    c30c:	003e 004b fffa ffbd ff5d ffaa ffc5 ff48     >.K.....].....H.
    c31c:	ff2d ff4b ff85 ff93 ff89 ff9d ffc2 ffaa     -.K.............
    c32c:	ffcc ffc5 ffb3 ff90 ff89 ffff 0004 000a     ................
    c33c:	ffec 006c 004e 0085 0043 0060 0079 0066     ..l.N...C.`.y.f.
    c34c:	0049 004b 001b 006c 0055 0049 0011 0038     I.K...l.U.I...8.
    c35c:	0093 0045 0028 0056 0068 0068 0045 0051     ..E.(.V.h.h.E.Q.
    c36c:	0046 0048 fffb 001e 0047 ffdc ffb3 ffe2     F.H.....G.......
    c37c:	0033 ff98 ff8c ffbc ffc7 ffc5 ffcf ffec     3...............
    c38c:	ffd0 ff86 ffab ff9e ff97 ff81 ff9d 0021     ..............!.
    c39c:	fffa fff1 ffe3 ffff 0046 fffc 0030 005c     ........F...0.\.
    c3ac:	0099 003b 0032 0048 ffff fff3 fffe ffcb     ..;.2.H.........
    c3bc:	ffd1 ffd2 ffdd ffcb ffa7 ffd6 fff1 ffbf     ................
    c3cc:	002c 0041 0019 0055 001d ff87 ffcb ffa7     ,.A...U.........
    c3dc:	ffaa ff9d ff8d ff99 ff93 ffaf ffa7 ffdc     ................
    c3ec:	0020 000e 0005 fff8 0020 ffbe ffcc 003d      ....... .....=.
    c3fc:	ffec fff8 0062 0040 0030 005d 0075 0092     ....b.@.0.].u...
    c40c:	00b3 007f 007a 00a3 0085 0078 0067 fffe     ....z.....x.g...
    c41c:	fff3 ffff ffd6 ffcb ffe8 fffd ffda ffb0     ................
    c42c:	ffb1 ffa3 ffc5 ffbe fff5 ff71 ff8f ffc0     ..........q.....
    c43c:	ff86 ffa0 ffa3 0048 005e ffed 0039 002a     ......H.^...9.*.
    c44c:	002a 0050 001b 007a 004f fffa ffe5 0028     *.P...z.O.....(.
    c45c:	0016 0029 0042 ffd2 000d fffd ffc4 ff99     ..).B...........
    c46c:	ffb4 000d 0011 0060 0069 0072 0078 0074     ......`.i.r.x.t.
    c47c:	004e ffeb 003e 0075 004d 004e 001a ffbd     N...>.u.M.N.....
    c48c:	004f 0029 ffff ffcf ffbd ffc2 ff76 ff52     O.).........v.R.
    c49c:	ff1f ff31 ff54 ffaa ff78 ff86 ff96 ffbc     ..1.T...x.......
    c4ac:	ffe2 ffea 0007 0026 0085 0078 0066 0048     ......&...x.f.H.
    c4bc:	003f 0015 003c 0028 0018 0046 0008 0003     ?...<.(...F.....
    c4cc:	0004 ffd8 ffcc 0015 0040 ffdb 0005 ffd3     ........@.......
    c4dc:	ffcf ffc8 ffd4 ffbd ff90 ffac fff4 ffe3     ................
    c4ec:	fff6 0011 0013 003d 0018 001f fffb fff6     ......=.........
    c4fc:	000f 0020 fff5 ffcf ffd2 003f 002d 0017     .. .......?.-...
    c50c:	0049 0061 0033 ffe7 ffdf 001b 002f 0014     I.a.3......./...
    c51c:	002d 004f 001e ffdc ffee fff4 0014 ffd1     -.O.............
    c52c:	ffbf ffe0 ffce ffe2 0019 002e 003d 0054     ............=.T.
    c53c:	0029 000e ffed 0018 ffe1 fff2 ffc9 ffcc     )...............
    c54c:	ffd3 ff96 ff9a ffea ffea 0008 0008 0051     ..............Q.
    c55c:	0034 0071 0044 0027 0057 0014 0030 001a     4.q.D.'.W...0...
    c56c:	004f 0038 003e 0065 008f 002a 0015 0055     O.8.>.e...*...U.
    c57c:	008b 0020 ffe9 fff5 ffe9 fffa fffd ff4e     .. ...........N.
    c58c:	ff74 ffb8 ffad ff80 ff8b ffb3 ff8c ffbe     t...............
    c59c:	ff99 ff8d ffc2 ffa5 ff8f ffb4 ffec ffd4     ................
    c5ac:	0018 fff5 0022 0022 0016 0046 0059 004a     ...."."...F.Y.J.
    c5bc:	001f 003e 001c 0018 000e 0012 000a fff7     ..>.............
    c5cc:	0001 001a 000d 002a ffe7 ffd3 ffe0 ffeb     ......*.........
    c5dc:	000a ffd4 ffe6 ffe7 fff0 ffc3 ffa0 ffba     ................
    c5ec:	ffb0 ffcf ffbb ffcf 0030 0034 fff3 ffe0     ........0.4.....
    c5fc:	0055 005b 001b ffed 0028 000d ffe4 0007     U.[.....(.......
    c60c:	001c 0012 0017 0047 0041 0042 0072 006e     ......G.A.B.r.n.
    c61c:	003b 0028 003b 002f 0035 001f 0025 0030     ;.(.;./.5...%.0.
    c62c:	0031 0038 0060 0031 003d 000c 001f ffc8     1.8.`.1.=.......
    c63c:	000d 0013 0010 fff7 0016 ffcc 0012 ffe0     ................
    c64c:	ffb7 ffe7 fff6 ffcb ffba ffd3 ff90 ffad     ................
    c65c:	ffb6 ff96 ff75 ffd8 ffe0 ffda ffae ffc7     ....u...........
    c66c:	0014 ffed 0005 0002 fff4 fffd ffc4 0028     ..............(.
    c67c:	000f 003b 0023 001f fffc 003e 002d ffdd     ..;.#.....>.-...
    c68c:	001c ffe5 0002 ffca ffbc ffad ffc8 ffe4     ................
    c69c:	0002 ffe0 000e 0029 0047 0028 fff6 0091     ......).G.(.....
    c6ac:	005d 0041 0061 0057 0053 002f 0059 ffec     ].A.a.W.S./.Y...
    c6bc:	0019 ffe6 0039 0013 ffff ffaf ffdc ff9d     ....9...........
    c6cc:	ff4f ff83 ffb4 ffb8 ffb6 ffc6 ffa1 ffdb     O...............
    c6dc:	ffc5 fff8 ffeb 002b 0028 0031 007a 0057     ......+.(.1.z.W.
    c6ec:	0060 004f 0094 0092 005d 0051 0047 002e     `.O.....].Q.G...
    c6fc:	fffd 000c ffad ffa7 ffb4 ff75 ff95 ff9d     ..........u.....
    c70c:	ff90 ffb7 ffaf ffb8 ffa6 ffd3 ffef ffbc     ................
    c71c:	0021 ffef 000c 0022 0029 0027 ffcd 0040     !.....".).'...@.
    c72c:	0038 000f 0029 0047 0066 0071 0037 0065     8...).G.f.q.7.e.
    c73c:	004a 0040 006b 007f 007b 000f 000c 0033     J.@.k...{.....3.
    c74c:	fffe ffd9 ffdb ffda 0000 ffbc ffe9 ffd5     ................
    c75c:	0002 0031 ffd1 ffee ffe7 ff9b ffa0 ffea     ..1.............
    c76c:	ffbf ff94 ffad ff91 ffd4 ff9d ffc4 ff97     ................
    c77c:	ffef 001d fff0 ffed 000a 0031 0004 000d     ..........1.....
    c78c:	fffd 0059 005c 0038 0009 003d 0038 0024     ..Y.\.8...=.8.$.
    c79c:	0053 0050 0037 0021 001e 001c 0009 ffe6     S.P.7.!.........
    c7ac:	ffe2 ffe9 ffbf ff98 ffd7 ffe5 ffd1 0020     .............. .
    c7bc:	ffe4 ffb1 ffbe fff6 ffcf ffbf ffe2 ffd6     ................
    c7cc:	ffb2 ffb6 ffec ffe1 001c ffef 0010 0069     ..............i.
    c7dc:	005a 0056 001d 005c 003d 0055 005b 0030     Z.V...\.=.U.[.0.
    c7ec:	001b 0034 0010 0005 fff1 003a 003f fff8     ..4.......:.?...
    c7fc:	0012 002b 0002 0009 ffe8 ffea 001e ffef     ..+.............
    c80c:	ffad ffff ffd4 ffb9 0014 0013 0010 fff9     ................
    c81c:	002b 0044 ffe3 005a 0028 0009 ffd9 fff7     +.D...Z.(.......
    c82c:	002e ffe8 ffb3 ffaf ff86 fff7 ffeb ffc1     ................
    c83c:	ffcb 001b 0014 0022 ffce ffe0 ffe3 ffd6     ......".........
    c84c:	ffcd ff73 ff8d ff9d ffa8 ffc0 ffb2 ffb9     ..s.............
    c85c:	fff8 002b 0014 002e 002c 0039 0056 0045     ..+.....,.9.V.E.
    c86c:	0069 0072 0022 0059 0034 003b 0041 0066     i.r.".Y.4.;.A.f.
    c87c:	0082 006a 005a 0045 004c 0050 fffd 003b     ..j.Z.E.L.P...;.
    c88c:	0056 ffc7 ff95 0016 fff4 ffd1 ffd5 ff8a     V...............
    c89c:	ffa3 ffca ff85 ffa6 ffb2 ffc3 fff1 ffc2     ................
    c8ac:	fff1 ffcd 0027 0022 ffe2 ffd1 0007 0002     ....'.".........
    c8bc:	fff6 0017 ffe5 fff9 ffd8 ffd1 fff2 fffe     ................
    c8cc:	ffd5 ffdc fff3 0046 0018 0014 fff2 001f     ......F.........
    c8dc:	0004 ffb0 ffdf 002c 0042 0073 0085 0049     ......,.B.s...I.
    c8ec:	0044 0051 0058 0036 0000 001a 0027 0068     D.Q.X.6.....'.h.
    c8fc:	0012 ffff 0044 0054 0018 ffd7 fff9 ffee     ....D.T.........
    c90c:	000f ffc3 ffda ffc7 ffa1 fff9 ffd0 ff8e     ................
    c91c:	ffdc ffeb ffdb ffd6 0002 0027 0027 001f     ..........'.'...
    c92c:	0056 001a fff1 002a ffc2 ffda fff1 ffdb     V.....*.........
    c93c:	ffba ffbd 004e fff5 ffb8 ffcc ffc1 ff9e     ....N...........
    c94c:	ffaf ffc4 ffc5 ff96 ffe0 ff8b ff7d ffbb     ............}...
    c95c:	ffc9 ffb4 ffca fff6 0026 000c 0055 0044     ........&...U.D.
    c96c:	005d 004e 0066 0039 004d 0074 0035 003b     ].N.f.9.M.t.5.;.
    c97c:	0044 0039 fff3 0054 0019 ffe7 ffff fff4     D.9...T.........
    c98c:	0006 002d 003b 006e 0077 00a3 005a 002b     ..-.;.n.w...Z.+.
    c99c:	0040 003d fff3 fffe fffb ffee ffd3 ffe5     @.=.............
    c9ac:	fff2 ffdb ffe9 ffbb ffa5 ffb0 ffb8 ff72     ..............r.
    c9bc:	ff92 ffa0 ffce ffc7 ffae 0006 0005 fff2     ................
    c9cc:	ffbb 0025 0031 002f ffdb 002d 0042 003b     ..%.1./...-.B.;.
    c9dc:	0017 0034 0039 004e 003a 003d 0078 0053     ..4.9.N.:.=.x.S.
    c9ec:	0054 fffc 003f 001b 0016 ffde fff2 0009     T...?...........
    c9fc:	0009 0033 ffb6 ffc3 fffa 0004 ffab ffb6     ..3.............
    ca0c:	ffe4 ffdd ffd9 0003 ffad ffbe ffde 0003     ................
    ca1c:	ff8a ffbe ffdc ffb4 ffb1 ffaa ff78 ffb6     ............x...
    ca2c:	ff9f ffcc ffa5 ffbe fffa ffcb ffe2 ffba     ................
    ca3c:	0002 002d 0054 0013 0038 0058 0094 007b     ..-.T...8.X...{.
    ca4c:	0067 002a 0036 001d 0033 0019 000e fffa     g.*.6...3.......
    ca5c:	002a 0025 ffd8 000e ffe6 ffe2 ffd9 000a     *.%.............
    ca6c:	ffec ffd8 000c fffd 0001 0014 005e 0053     ............^.S.
    ca7c:	006a 0025 0063 0035 006f 007e 001b 0066     j.%.c.5.o.~...f.
    ca8c:	0039 003c 001b ffff 000c ffe9 ffe6 ffe0     9.<.............
    ca9c:	fff1 ffd2 fff5 ffa7 ffda fff5 fff6 fff6     ................
    caac:	fffb 0003 0001 000a 001c fff2 000f 0007     ................
    cabc:	001e 0011 0038 ffdf ffec ffe7 ff83 ff78     ....8.........x.
    cacc:	ff83 ffb2 ffb6 ff7c ffb0 ff71 ff59 ff91     ......|...q.Y...
    cadc:	ff77 ff4d ffbb ffe5 ffb2 ff86 ffb7 0012     w.M.............
    caec:	0001 0016 0027 0045 0056 0081 0077 007d     ....'.E.V...w.}.
    cafc:	0052 0071 002c 0044 0049 0072 0020 0033     R.q.,.D.I.r. .3.
    cb0c:	0048 0030 002f 002f 000c ffb3 ffe2 ffdb     H.0././.........
    cb1c:	0004 ffa8 fffe 0005 0011 002d 0028 0032     ..........-.(.2.
    cb2c:	00af 0061 0081 005c 0075 0085 0045 001b     ..a...\.u...E...
    cb3c:	003f ffc8 0001 fff6 fff0 ff8b ffdf fff3     ?...............
    cb4c:	ffd7 ff87 ff93 ffb4 ff95 ffc7 ffbe ffb1     ................
    cb5c:	fffb ff9e fffd ffde ffd4 ffed 0015 ffe9     ................
    cb6c:	0006 fffb 000c 0007 ffe6 fff8 ffcc ffd1     ................
    cb7c:	0011 fff7 ffa6 ff8c ffc9 ffdb ffa7 ffd3     ................
    cb8c:	ffa8 ffe1 0001 0010 ffe8 0017 0033 0069     ............3.i.
    cb9c:	006d 00a9 005e 0051 005d 0077 002a 0093     m...^.Q.].w.*...
    cbac:	0090 0083 0067 003d 004c 007d 003f 0015     ....g.=.L.}.?...
    cbbc:	fffb 003d 0015 ffd1 002e fff2 ffe1 ffee     ..=.............
    cbcc:	0016 ffb3 ffe3 ffd5 ff9e ffc2 ffbd ffab     ................
    cbdc:	ff8d ff9d ffca ff95 ff7c ff7d ff83 ff76     ........|.}...v.
    cbec:	ff6e ff98 ffd5 ffc1 0006 ffb5 ff84 ffc6     n...............
    cbfc:	0007 ffbc ffe7 0022 000c fff6 002b 0039     ......".....+.9.
    cc0c:	002b 0033 005d 0052 004e 005c 007a 0079     +.3.].R.N.\.z.y.
    cc1c:	0047 006b 0089 005b 0059 0076 0022 fffd     G.k...[.Y.v."...
    cc2c:	0031 ffe7 ffaa 000a 0032 ffbf ffec 0042     1.......2.....B.
    cc3c:	ffdf ffb4 0023 fff8 0003 ffe3 000a ffb7     ....#...........
    cc4c:	ffd5 fffa 001b ffc4 0026 ffe3 000f 0066     ........&.....f.
    cc5c:	003d 003a 0017 005b fff8 ffdb 0029 0046     =.:...[.....).F.
    cc6c:	001f ffff 000e 002b 0030 fffb 0013 fffd     ......+.0.......
    cc7c:	fff1 0005 0001 fff0 0016 ffef fffa ffef     ................
    cc8c:	ffc9 ffdd ffb5 ffb1 ff9e ffce ff87 ff88     ................
    cc9c:	ffbb ffc1 ffec ff9e ff44 ffae ffe0 ff61     ........D.....a.
    ccac:	ff8a ffc7 0016 ffd2 ffd9 0008 0007 0023     ..............#.
    ccbc:	ffd7 001a 001e 002b fff7 004b 0070 000a     ......+...K.p...
    cccc:	0002 0034 0035 0026 0025 0060 0035 0069     ..4.5.&.%.`.5.i.
    ccdc:	0015 0013 0040 0054 002d 0003 0045 003b     ....@.T.-...E.;.
    ccec:	0023 002c 0030 000b 002b 0028 0009 fffd     #.,.0...+.(.....
    ccfc:	000a ffe2 fff4 ffdd ffc3 0020 0006 ffd6     .......... .....
    cd0c:	fff0 000c 0011 ffe6 0028 ffeb fff8 0017     ........(.......
    cd1c:	003e 001f 000c 002d 0042 005c 0009 fffd     >.....-.B.\.....
    cd2c:	0047 0069 0030 ffeb 0006 ffe1 ffe2 0018     G.i.0...........
    cd3c:	ffc4 ffdd ffd7 ffdd ff90 ff8f ffac ffa8     ................
    cd4c:	ff84 ff7a ffad ff94 ff77 ff9f ffac ffad     ..z.....w.......
    cd5c:	0003 ffe4 0003 0000 0004 ffe3 ffff 003f     ..............?.
    cd6c:	0025 0040 0070 006e 005c 003e 0016 0032     %.@.p.n.\.>...2.
    cd7c:	0041 ffea ffee 002e 002b 0036 0047 0058     A.......+.6.G.X.
    cd8c:	0076 0031 000a 0011 fff1 0012 ffe5 ffe2     v.1.............
    cd9c:	ffdf 0017 000b ffcf fff4 ffdd ffdb ffcf     ................
    cdac:	ffd7 ffc8 ffcf ffeb ffb8 ffd1 ffc5 ffe4     ................
    cdbc:	ffc6 ffd7 001a ffdb 0017 0032 0014 0010     ..........2.....
    cdcc:	004f 0022 0054 0045 0072 004a 0048 0054     O.".T.E.r.J.H.T.
    cddc:	0035 0043 0036 ffbe ffde 0007 ffbf ffc4     5.C.6...........
    cdec:	ffeb ff8d fffe ffc6 fff6 ffcd ffde ffe1     ................
    cdfc:	ffe5 0001 ffec ffeb ffd8 ffcd 0000 0012     ................
    ce0c:	0002 002c ffff 0036 0021 003b 0024 001a     ..,...6.!.;.$...
    ce1c:	0022 000f 0040 ffef 003b fffb 0011 ffef     "...@...;.......
    ce2c:	ffd5 ffe0 ffca 0011 ffb7 0010 ffd2 000b     ................
    ce3c:	003b ffec 0003 ffbc ffed 0002 0039 000b     ;...........9...
    ce4c:	0011 ffe9 ffed ffdf ffd0 ffe8 ffd8 ffb4     ................
    ce5c:	ffc5 ff9d ffbf ffc0 ffaf ffd1 ff56 ffad     ............V...
    ce6c:	ffe6 ffa7 fffd 0000 0006 0016 004b 006e     ............K.n.
    ce7c:	0063 0095 00b9 005d 00af 00b1 004c 0027     c.....].....L.'.
    ce8c:	005f 008b 0019 0017 003c 0010 fff3 ffc9     _.......<.......
    ce9c:	000a ffd6 ffe0 ff99 ffbd ffcf ffcd ff8e     ................
    ceac:	ffa7 ffef 0040 0002 0003 001e 0021 ffe6     ....@.......!...
    cebc:	ffc1 0021 004b 0033 0024 0012 ffe1 0008     ..!.K.3.$.......
    cecc:	000e fff5 002b 0014 fffd fff4 0019 0051     ....+.........Q.
    cedc:	fff5 0024 0029 fff1 0025 ffda fff8 002a     ..$.)...%.....*.
    ceec:	ffe4 ffe3 0004 003b 003c 0031 ffda ffd9     ......;.<.1.....
    cefc:	ffb8 ffa0 ffbf ffa3 ffc0 ff65 ffd8 ff95     ..........e.....
    cf0c:	ff76 ff94 ffb3 ffc6 ffc0 ffc5 ffbe fff2     v...............
    cf1c:	002b ffc9 ffe4 000b 0002 000d 0045 0020     +...........E. .
    cf2c:	0036 0022 0020 0030 0045 000e 002d 0023     6.". .0.E...-.#.
    cf3c:	fff1 0011 0009 0044 fff6 000a 000c 0046     ......D.......F.
    cf4c:	003e ffee ffea 0047 0077 0060 003f 007a     >.....G.w.`.?.z.
    cf5c:	003c 0037 004e 006a 0052 003a fff2 0024     <.7.N.j.R.:...$.
    cf6c:	0011 0038 ffde ffe6 ffb9 fff1 ffcf ffd0     ..8.............
    cf7c:	ffa3 ffad ffd8 fff1 ffee ffc5 fff5 fff8     ................
    cf8c:	fff6 0002 ffe3 ffd6 ffe5 ffe7 fffa 0000     ................
    cf9c:	0017 0020 ffed ffe3 ffe4 ffb4 ffbb ffa6     .. .............
    cfac:	ff7b ff96 ff8a ff98 ffc0 ffc8 ffdf fff1     {...............
    cfbc:	0011 fffb ffec fffd 002a 0012 003d 0031     ........*...=.1.
    cfcc:	0063 006e 0027 001e 003a 0011 004d 0032     c.n.'...:...M.2.
    cfdc:	0015 ffee 000d ffee ffbe 0007 003f fff6     ............?...
    cfec:	0025 000c 0003 0032 0087 0082 0031 0049     %.....2.....1.I.
    cffc:	005b 003f fff7 fff5 001b ffec 0019 002c     [.?...........,.
    d00c:	ffdd 0006 fffe ffe6 0002 ffcf ffa6 000f     ................
    d01c:	fff8 ffc4 fffd ffc5 ffe4 fff4 000a 0015     ................
    d02c:	ffb1 ffe8 0000 ffdb ffc5 ffe0 002b 0008     ............+...
    d03c:	001c 0039 002d 0034 001a 0020 ffff 0045     ..9.-.4... ...E.
    d04c:	fffa 000e 000f ffd2 ffe6 ff8b ff97 ff9a     ................
    d05c:	ffd2 0019 ffba ffcc fff1 ffc6 ffce ffc1     ................
    d06c:	0007 ffe8 ffcf fff3 0005 ffe9 ffcb ffbf     ................
    d07c:	ffc3 0010 ffcc ffc0 ffe5 fffc ffed ffb8     ................
    d08c:	ffdb 0069 000f 0019 0006 0014 003c 0037     ..i.........<.7.
    d09c:	0045 003a 0042 0051 005a 005b 0080 0009     E.:.B.Q.Z.[.....
    d0ac:	0011 0054 006a 003a 0058 fff1 0021 0029     ..T.j.:.X...!.).
    d0bc:	000b 0046 0026 004f 0038 0000 0070 0012     ..F.&.O.8...p...
    d0cc:	ffff ffe5 001b 0045 ffff 0023 0037 ffc5     ......E...#.7...
    d0dc:	fff3 0000 fff1 fffc ffdc ffda ff7a ffc0     ............z...
    d0ec:	ff88 ff71 ffa2 ff9c ffbc ffa1 ff94 ff78     ..q...........x.
    d0fc:	ff78 ff8b ffa0 ff70 ffaf ffce ffc0 ffca     x.....p.........
    d10c:	fff6 0025 002f 0052 0042 0035 004d 006d     ..%./.R.B.5.M.m.
    d11c:	001e 0015 0056 0088 004f 0016 0028 0029     ....V...O...(.).
    d12c:	0010 000b ffd9 0025 003e 0033 0019 0047     ......%.>.3...G.
    d13c:	001d 0043 0052 0044 0074 004e 0054 0051     ..C.R.D.t.N.T.Q.
    d14c:	0037 0043 000d ffe2 fff5 ffd2 ffc5 ffc9     7.C.............
    d15c:	ff5e ff4c ff6a ff8d ff96 ffba ffb1 ffac     ^.L.j...........
    d16c:	ff90 ffa7 ffe6 ffc8 ff99 ffc4 0020 0016     ............ ...
    d17c:	000b 0032 002c 005c 0084 0022 0029 0049     ..2.,.\...".).I.
    d18c:	0069 0039 0025 0016 002c ffce 001a 0002     i.9.%...,.......
    d19c:	ffe7 ffe7 ffe8 ffd2 fff1 0004 ffe0 ffd3     ................
    d1ac:	ffd0 ffe9 ffc1 ffd9 ffe6 fff9 0012 0039     ..............9.
    d1bc:	0019 000d 002d 0069 0030 0032 0013 000b     ....-.i.0.2.....
    d1cc:	0039 fff2 0029 ffdb 0039 fff3 ffef 0029     9...)...9.....).
    d1dc:	fff3 0014 000c fff9 0001 ffdb 000e 0044     ..............D.
    d1ec:	0011 0037 ffe4 ffd3 0000 ffde ffcf ffd2     ..7.............
    d1fc:	0020 0023 ffee ffe2 ffe8 ffac ffe6 ffb5      .#.............
    d20c:	ffee ffd6 ffd3 0017 ffff 003a 0037 005e     ..........:.7.^.
    d21c:	009e 0090 002a 0073 0076 0047 005c 0063     ....*.s.v.G.\.c.
    d22c:	0029 0028 ffe8 fff5 ffbf ff95 ffb4 ff72     ).(...........r.
    d23c:	ff99 ff64 ff82 ffb5 ff41 ff59 ffa0 ff78     ..d.....A.Y...x.
    d24c:	ff90 ffbb ffd1 ffd8 ffa3 ffea 0008 002f     ............../.
    d25c:	001a 0052 0042 004e 003e 003a 0061 0040     ..R.B.N.>.:.a.@.
    d26c:	004b 0083 0022 000c 001e 0043 0028 0011     K...".....C.(...
    d27c:	001a 0038 0016 000f ffe4 0022 fff0 0013     ..8.......".....
    d28c:	0061 000d 002a 0013 004a 0065 0026 ffe6     a...*...J.e.&...
    d29c:	003f 0016 0000 ffde ffb8 ffbe ffa6 ff71     ?.............q.
    d2ac:	ff9e ff94 ff9f ffa0 ff89 ffad ff7c ff88     ............|...
    d2bc:	ffa6 ffdc ffcc ffdb fff8 0028 0051 004f     ..........(.Q.O.
    d2cc:	002c 0036 003b 0063 0032 0037 0041 003a     ,.6.;.c.2.7.A.:.
    d2dc:	007a 002f 0077 007d 0058 007d 0053 005d     z./.w.}.X.}.S.].
    d2ec:	0015 0038 0026 ffe6 fff3 000a ffb7 ffde     ..8.&...........
    d2fc:	ffad ff66 ffaa ff57 ff6d ff8b ffba ffd6     ..f...W.m.......
    d30c:	ff83 fffc 0032 0009 002b 004f 0077 006b     ....2...+.O.w.k.
    d31c:	0072 0063 0061 0058 0060 0048 000b 0035     r.c.a.X.`.H...5.
    d32c:	ffff ffb3 ffba ffcb ffa9 ffe5 ffb8 ffc3     ................
    d33c:	ffc7 ffb9 ffc3 ffd6 0019 003f fff1 0025     ..........?...%.
    d34c:	001e 003d 0026 0029 000b 000c ffc0 ffe6     ..=.&.).........
    d35c:	ffa9 ffa5 ff65 ffb4 ff94 ff73 ff99 ffa9     ....e.....s.....
    d36c:	ffc3 ff85 ffe2 0011 000e fffc 001b 0020     .............. .
    d37c:	001d 0052 0037 0001 0054 0069 0046 000c     ..R.7...T.i.F...
    d38c:	003a 0075 002c 004a 0026 0030 0012 004f     :.u.,.J.&.0...O.
    d39c:	0034 fffb 003d 001f 0022 0014 000b ffe1     4...=...".......
    d3ac:	fff6 0016 000c 0011 0034 002c fff1 001a     ........4.,.....
    d3bc:	0009 001d ffdc fff5 003f 0006 000e ffb4     ........?.......
    d3cc:	ffd1 ffda 000e fffa ffc8 ffc6 ffe7 ffe9     ................
    d3dc:	ff9d ffbf ffcd ffc4 ffed 0009 0011 0027     ..............'.
    d3ec:	0057 0065 0053 004c 0024 fffb 0028 0023     W.e.S.L.$...(.#.
    d3fc:	ffe9 ffa7 ffbe ffd6 ffa0 ff9c ff8c ffc5     ................
    d40c:	ffd7 ffa1 ff9d ffb7 ffce 0010 ffeb 0000     ................
    d41c:	fffb 000b 0040 0059 003f 0048 005c 003e     ....@.Y.?.H.\.>.
    d42c:	000e ffff ffe6 ffb3 fff0 ffd3 ff9b ffac     ................
    d43c:	ff85 ffad ffbd ff80 ffe0 000b fff8 0027     ..............'.
    d44c:	001e 004c 0046 005c 0087 0064 0080 0079     ..L.F.\...d...y.
    d45c:	0098 0086 008e 0087 0071 0059 0071 0029     ........q.Y.q.).
    d46c:	003c 000a ffd4 0007 ffc8 ffe1 fff7 0017     <...............
    d47c:	ffdc 0019 ffff fffa 0013 004c 0011 0014     ..........L.....
    d48c:	ffdd fff3 ffd4 0002 ffdd ffb8 ffe8 ffa1     ................
    d49c:	ffd5 ff9a ffba ffb5 ffce ffba ffa8 ff79     ..............y.
    d4ac:	ffa2 ff73 ff6c ffa6 ff7b ffa8 ff85 ff9f     ..s.l...{.......
    d4bc:	ffa5 ffc3 ffff 0000 ffec 001f 000c 003b     ..............;.
    d4cc:	0040 0021 0038 005a 0037 004b 0033 0021     @.!.8.Z.7.K.3.!.
    d4dc:	ffcb 001d ffe5 ffe6 001a 0009 ffd4 ffbe     ................
    d4ec:	ffce 000c ffd8 ffe3 0015 0040 000a 0043     ..........@...C.
    d4fc:	006d 00c5 00b5 0092 0099 00d0 008b 007a     m.............z.
    d50c:	007a 0074 0091 0057 0024 0007 ffe0 ffcf     z.t...W.$.......
    d51c:	ffb0 ff92 ffac ffdb ffd0 ff8d ff9d 0013     ................
    d52c:	fff0 ff9a ffbf ffd8 ffe6 ffc7 fff0 0025     ..............%.
    d53c:	0036 0039 002d 000d 0020 0014 fff9 ffba     6.9.-... .......
    d54c:	0001 ffde ffac ff89 ff71 ff50 ff6d ffab     ........q.P.m...
    d55c:	ffa6 ff95 ff9e ffd4 ffb8 000c ffd6 fffc     ................
    d56c:	0033 003c 0075 002e 0066 0053 0032 0019     3.<.u...f.S.2...
    d57c:	000a 0011 0013 ffd7 ffbe ffbb ffce 0014     ................
    d58c:	ffd5 ffca ffda ffea 0008 ffd1 ffcb 0019     ................
    d59c:	0042 0047 0066 0049 0045 0055 009c 004c     B.G.f.I.E.U...L.
    d5ac:	0072 0095 0088 00b5 0089 007f 0083 002c     r.............,.
    d5bc:	0040 0017 ffee ffc1 ff7e ffb0 ff77 ff4c     @.......~...w.L.
    d5cc:	ff8c ff75 ff44 ff93 fff2 ffca ffbe ffba     ..u.D...........
    d5dc:	0010 0011 0019 0036 0044 0054 0050 0043     ......6.D.T.P.C.
    d5ec:	0041 005d 002d 0034 000d 000d ffe4 0005     A.].-.4.........
    d5fc:	ffe6 ff99 ff91 ff9b ffc7 ffc2 ffd2 ffbf     ................
    d60c:	ffb2 ffca ffde ffe9 ffb5 ffb1 ffe8 ffca     ................
    d61c:	ffef 001d 0008 003c 004f 003e 002d 004e     ......<.O.>.-.N.
    d62c:	0017 ffdb ffd1 0007 fffe ffd0 ffe8 ffe1     ................
    d63c:	0018 ffe8 ffe5 0021 0019 001e 0025 0005     ......!.....%...
    d64c:	0043 0047 002c 004d 0034 0024 006a 0072     C.G.,.M.4.$.j.r.
    d65c:	006f 0014 0037 0023 000f fff9 0007 0007     o...7.#.........
    d66c:	fffa 0016 fffb 0028 ffbf ffe3 0017 ffec     ......(.........
    d67c:	fff8 0002 0016 fff3 ffd8 ffe1 ffd3 ffac     ................
    d68c:	ffef ffd8 ffb3 ffc3 ffc4 ffb8 ff9d fff3     ................
    d69c:	ffd7 ffc3 ff81 ffca ffbc 0003 ffed 0005     ................
    d6ac:	0022 fff6 001e 0023 0023 0018 fffa 000b     ".....#.#.......
    d6bc:	fffa 000c ffe0 ffef ffbd ffb2 ffa3 ffe3     ................
    d6cc:	ffe7 ffec 006a 0099 0078 003a ffd1 ffe6     ....j...x.:.....
    d6dc:	0015 0022 0015 ffff 003d 0051 003a 0088     ..".....=.Q.:...
    d6ec:	009c 006c 003a 0001 0041 005c 004f 004e     ..l.:...A.\.O.N.
    d6fc:	0009 ffe5 ffc7 ffb9 ffe6 fffe ff9b ff92     ................
    d70c:	ffbb fff6 0002 ffee 0029 0017 fffe ffe1     ........).......
    d71c:	0028 0031 ffef 0002 001f 0059 0034 0028     (.1.......Y.4.(.
    d72c:	ffee 0014 0048 0000 ffe5 ffe2 fff4 ffe6     ....H...........
    d73c:	ffe5 ffc3 0004 ff87 ff7d ff78 ff9d ff46     ........}.x...F.
    d74c:	ff14 ff63 ff61 ff4f ff94 ffd4 000e 0013     ..c.a.O.........
    d75c:	001a 0036 004b 008d 0072 00a1 0032 001e     ..6.K...r...2...
    d76c:	001c 0058 002c 0035 ffa6 ffe2 000a 002c     ..X.,.5.......,.
    d77c:	0035 0025 001b ffb1 ffc5 ff92 ffab ff8a     5.%.............
    d78c:	ff7a ff6d ff97 ffca fffb 0023 002e 0022     z.m.......#...".
    d79c:	000e 006b 0089 0099 0081 00db 00f1 00eb     ..k.............
    d7ac:	00b0 00b2 00ac 00ad 0044 000f ffea 0017     ........D.......
    d7bc:	fff0 ffec ffcf fff0 ffad ff90 ff8f ff93     ................
    d7cc:	ff6b ffa3 ffa2 fff2 ffee 003c 002c ffeb     k.........<.,...
    d7dc:	ffe3 ffc8 000a ffe2 0031 004c 0004 ffd7     ........1.L.....
    d7ec:	0026 004c 0038 001c ffed 0018 0009 004e     &.L.8.........N.
    d7fc:	0001 0011 ffe0 0003 ffe7 ffa8 0036 0160     ............6.`.
    d80c:	0003 ff4d ffc9 fff2 0039 0025 004a 0018     ..M.....9.%.J...
    d81c:	ffb3 0009 004d 0000 ffd4 ffcd fffe ffd0     ....M...........
    d82c:	ffd7 ffcb ffd1 ffcd ffc2 ffa7 ff82 ff8f     ................
    d83c:	ffc6 ffaf ff71 ff5b ff8b ffda ffca fffe     ....q.[.........
    d84c:	001a ffc7 ff55 ff86 ffd9 fffb ffa1 ffaf     ....U...........
    d85c:	ffc5 fff6 ffac ffa4 ff69 ff3a ff7e ffc0     ........i.:.~...
    d86c:	ffa0 ff9e ff91 ffdc ffea ffc8 0043 0063     ............C.c.
    d87c:	00ab 00b7 0065 0049 00f1 010e 0103 00d7     ....e.I.........
    d88c:	012f 00e9 00cd 00bf 0089 00a2 0098 00b1     /...............
    d89c:	0086 002a 0046 0073 0011 ffe9 fffc 0035     ..*.F.s.......5.
    d8ac:	0059 0017 000e 0031 002d 0011 0050 006c     Y.....1.-...P.l.
    d8bc:	0065 0056 0022 0054 004a 0036 fff4 0027     e.V.".T.J.6...'.
    d8cc:	0002 fff7 ffef 0005 ffad ff97 ffab ffcb     ................
    d8dc:	000e ff84 ffa4 ffe4 ff8a ff4c ff51 ff4a     ..........L.Q.J.
    d8ec:	ff63 ff51 ff8b ffac ff6b ffba ff8b ff60     c.Q.....k.....`.
    d8fc:	ff86 ffc1 ff74 ff55 ff6b ff9d ff6a ff43     ....t.U.k...j.C.
    d90c:	ff16 ff9b ffb2 ff9c ffa2 ff9b ffb2 ffc3     ................
    d91c:	ffad ffcc ffea 001f 0034 0066 005e 0086     ........4.f.^...
    d92c:	004e 0041 00bf 00ce 0087 0079 00c8 00bf     N.A.......y.....
    d93c:	0084 005a 0095 00a1 009f 0068 001f 0029     ..Z.......h...).
    d94c:	0021 0084 0017 ffec 0030 005e 0053 0013     !.......0.^.S...
    d95c:	ffda ffca ffde ffe7 ffc7 ffce ffdd 0001     ................
    d96c:	0025 0098 005a 0065 0076 0064 004e 0042     %...Z.e.v.d.N.B.
    d97c:	001c fff9 fffb 004a 006f 0020 ffee 0040     ......J.o. ...@.
    d98c:	0033 ff9f ff85 ffd8 ffb7 ff8d ffa0 ffdb     3...............
    d99c:	000e ffd5 ffda ffd8 ffdb ffd8 fff0 ffe1     ................
    d9ac:	000a fff1 001b 003d 0045 0030 ff82 0009     ......=.E.0.....
    d9bc:	0032 ffcb ff75 ff2f ff9f ff7c ff64 ff86     2...u./...|.d...
    d9cc:	ff6c ff8c ff3b ff73 ffc0 ff9d ff94 ffb2     l...;.s.........
    d9dc:	ffd1 ffaf ffda ffdf ffe2 000b 0040 007d     ............@.}.
    d9ec:	0080 0087 00b8 008c 0031 000b 005f 000d     ........1..._...
    d9fc:	ffd6 fffc 0022 0032 003a 0013 0011 fffb     ....".2.:.......
    da0c:	005d 0043 0018 ffef 0035 003e 001d 0018     ].C.....5.>.....
    da1c:	0053 0071 0086 0048 004b 004e 0033 002c     S.q...H.K.N.3.,.
    da2c:	003d 0034 0054 0038 0040 006e 0054 0017     =.4.T.8.@.n.T...
    da3c:	0013 0004 0033 fff5 ffdf ffc7 ffce ffd6     ....3...........
    da4c:	ffdc ffae ffe7 fff1 fff1 ffeb ffa4 ffcc     ................
    da5c:	ffd7 ffba ffb5 ff81 ff91 ff65 ff6f ff62     ..........e.o.b.
    da6c:	ff91 ff8c ffb4 ffd5 ffe6 0022 002f 0040     .........."./.@.
    da7c:	0037 0052 007e 0062 006c 0056 0059 007d     7.R.~.b.l.V.Y.}.
    da8c:	0070 002a 0031 005b 007a 001a 0004 0038     p.*.1.[.z.....8.
    da9c:	fffc ffc1 ffc6 ff61 ff80 ff95 ff75 ff6f     ......a.....u.o.
    daac:	ff68 ff7d ffb4 ff87 ff71 ffa5 ffd9 ffe3     h.}.....q.......
    dabc:	ffab ffca ffff fff5 0044 0026 003a 0067     ........D.&.:.g.
    dacc:	0050 003a 0029 0053 002f ffe7 002d 002c     P.:.).S./...-.,.
    dadc:	0038 0044 004f 005b 0054 0017 004f 001d     8.D.O.[.T...O...
    daec:	fff8 0017 0035 0017 ffec ffe2 ffe1 ffd1     ....5...........
    dafc:	000f ffef ffca ffee ffe3 ffd9 ffc8 fff8     ................
    db0c:	ffd4 ffbb ff9f ffe8 002f 0003 ffe7 fff5     ......../.......
    db1c:	0052 0032 001f 004d 0051 0080 0045 001b     R.2...M.Q...E...
    db2c:	000e 0025 fffb ffe3 fff2 0000 ffa7 ff94     ..%.............
    db3c:	ffb1 fff6 ffd2 ffc2 ffe3 ffd8 fff1 ffb5     ................
    db4c:	ffc8 fff9 ff9b 0013 003a 0018 0034 003f     ........:...4.?.
    db5c:	0065 0093 0081 004b 0042 0061 005e 0036     e.....K.B.a.^.6.
    db6c:	0027 0054 0044 0025 0023 002b 0036 0004     '.T.D.%.#.+.6...
    db7c:	ffec 0045 ffed ffb8 ffe6 0001 ffd6 ffa3     ..E.............
    db8c:	ffc8 ffa9 ffbf ff7c ffa4 ffc4 ffee ffc8     ......|.........
    db9c:	ffd6 0002 fffe ffe0 ffb1 ffa2 0023 ffa4     ............#...
    dbac:	ffa4 ffb3 ffd6 ffb2 ff75 ffd5 ffe1 ffcc     ........u.......
    dbbc:	ffa2 ffd6 ffbf ffa7 ffcc 001e 002c 0032     ............,.2.
    dbcc:	ffeb 000e 0033 0064 0041 0045 009a 0073     ....3.d.A.E...s.
    dbdc:	005d 002c 0040 004d 006f 0067 0069 006a     ].,.@.M.o.g.i.j.
    dbec:	009b 0068 005d 0043 0049 0024 fff3 ffd3     ..h.].C.I.$.....
    dbfc:	ffbf ffb5 ffdd ffda ff91 ffbf ff99 ffb4     ................
    dc0c:	ffa8 ffce ffeb ffe5 ffc9 fff9 0034 000d     ............4...
    dc1c:	fff9 002d 001b 000d 0028 0002 ffed ffef     ..-.....(.......
    dc2c:	002b 001c 001a 0033 0053 ffeb ffed 0000     +.....3.S.......
    dc3c:	0007 0003 000c 0016 ffea fff2 0013 ffb6     ................
    dc4c:	ff89 ff94 ffab ffd1 ffdb ffc8 ffea 0020     .............. .
    dc5c:	0030 002d 0027 003e 004a 0063 0014 000f     0.-.'.>.J.c.....
    dc6c:	0076 0034 fff3 0002 001f 0040 0025 0005     v.4.......@.%...
    dc7c:	001b 0029 0007 ffa5 ff91 ffe2 ffc4 ffd1     ..).............
    dc8c:	ffac ffa6 ffbf fff7 ffde ffc6 ffda ffac     ................
    dc9c:	ffd7 ffb2 ffab ffd7 ff7e ffa7 0013 0011     ........~.......
    dcac:	ffda ffc3 fffb 003c 0019 0057 0023 000a     ......<...W.#...
    dcbc:	fff5 0031 0016 002d 0052 0030 001e 0050     ..1...-.R.0...P.
    dccc:	0071 000d 001e fff3 001f 0016 001b 0003     q...............
    dcdc:	0026 0033 0022 0020 004e 002a 0034 0034     &.3.". .N.*.4.4.
    dcec:	001e 0011 003b fff9 001c 0030 0019 ffda     ....;.....0.....
    dcfc:	fffd ffc9 0003 0011 ffea ffcc ffdc 0007     ................
    dd0c:	000c 0027 fff9 0003 0001 0005 ffdf ffcc     ..'.............
    dd1c:	ffad ffd2 ffe8 ffce ffcd ffc9 ffc5 ffea     ................
    dd2c:	ffd1 0007 001e ffd1 ffba ffbe ffce ffe2     ................
    dd3c:	ffb3 0029 000f fff8 000f 002c 0043 0063     ..).......,.C.c.
    dd4c:	0050 0013 003d 000c 0089 003c 002e ffff     P...=.....<.....
    dd5c:	001e 0045 0056 fffa ffa9 ffd3 0010 0001     ..E.V...........
    dd6c:	ffe3 ffdf 0004 ffff 0000 0000 0000 0000     ................
	...

0000de00 <open_test_pcm>:
	...
    e030:	ffff ffff 0000 0000 0000 0000 0000 0000     ................
	...
    e054:	0000 0001 0001 ffff 0000 0000 ffff 0000     ................
	...
    e06c:	0000 0001 0002 0002 0000 ffff 0000 ffff     ................
    e07c:	0000 ffff 0000 0001 0000 0001 0000 0000     ................
	...
    e098:	0001 0001 0001 0000 0000 0000 0000 ffff     ................
    e0a8:	ffff 0000 0000 ffff ffff 0000 ffff ffff     ................
    e0b8:	fffe 0000 ffff 0000 0000 0000 0001 ffff     ................
    e0c8:	0002 0000 0000 0001 0000 ffff ffff 0002     ................
    e0d8:	0000 ffff 0000 0002 0001 0001 0000 0004     ................
    e0e8:	0001 ffff fffe 0002 fffd fffe ffff fffe     ................
    e0f8:	fffb ffff fffc fffb fffd fffd 0000 0003     ................
    e108:	fffe 0001 fffa fffb 0000 fff7 fffb fffb     ................
    e118:	0002 0003 0000 000a 000b 000a ffff 000f     ................
    e128:	000d 0015 000a 0010 fffc fff3 000d ffec     ................
    e138:	0007 fff5 0017 fff1 fff8 ffe6 fffb fffe     ................
    e148:	ffdf fffc ffe1 fff5 ffed ffe5 ffe7 ffd4     ................
    e158:	0005 ffe8 fff4 fff6 ffdc 0007 0004 001a     ................
    e168:	0006 0014 000f 0000 ffde ffd2 fffb 0015     ................
    e178:	fffb fff4 003f fff1 001d 0013 0014 ffe7     ....?...........
    e188:	ffe5 0026 0013 0005 fff6 0032 fff0 0027     ..&.......2...'.
    e198:	ffb8 fffc fff2 ffc1 ffe8 ff9f ffd6 ffdc     ................
    e1a8:	fff1 fff5 0003 0006 0019 0043 ffef 0015     ..........C.....
    e1b8:	ffd6 0011 000f 0006 0030 fff3 0058 006b     ........0...X.k.
    e1c8:	0028 003a 0015 0048 002b 0031 001e fff1     (.:...H.+.1.....
    e1d8:	0037 ffab 0004 ffba 002d ffd6 ffd0 ffe9     7.......-.......
    e1e8:	ff8f ffbd ffbd 0005 fff1 ffe3 000e 0023     ..............#.
    e1f8:	0038 ffc3 0028 0020 003e 000a 0058 007c     8...(. .>...X.|.
    e208:	0067 00af 0018 00c5 003d 0080 003f fffb     g.......=...?...
    e218:	0084 001c 0004 0054 fff1 fff3 001f ff99     ......T.........
    e228:	ffbe ff86 ff53 ff49 ff91 ff2e ffc1 ff2c     ....S.I.......,.
    e238:	ff4b ff36 ffc8 ff7f ff87 ffb3 ff69 0027     K.6.........i.'.
    e248:	ffef 002b fff3 006a 0037 003f ffd2 005b     ..+...j.7.?...[.
    e258:	0039 001b 0056 003a 0016 0018 0053 0050     9...V.:.....S.P.
    e268:	002c ffd1 0007 ffa3 ffb8 ffc5 ffdf ffa6     ,...............
    e278:	ff97 fff1 ff8c ffc3 0050 004d 002a 005b     ........P.M.*.[.
    e288:	002b ffff 0012 000e ff98 ffbf 003f 0001     +...........?...
    e298:	0037 ffd0 005d 0046 ff9d 0042 ffc1 ffb9     7...].F...B.....
    e2a8:	ffaf ffea ff5d ffa3 ff7f ffa1 0050 002e     ....].......P...
    e2b8:	fff9 00de 0098 009c 00d1 fff0 0044 00b8     ............D...
    e2c8:	0085 002a 00ae 0046 00fa 0053 0072 00b8     ..*...F...S.r...
    e2d8:	002d 003e 0042 ffe8 ff9c ffd5 ffa3 ff36     -.>.B.........6.
    e2e8:	ff66 ff5a ff44 ffaf ffb1 ffd8 ffa3 ffc7     f.Z.D...........
    e2f8:	ff8b ffa7 ffd8 ffdf 0008 fff1 ffeb 0065     ..............e.
    e308:	0022 ffc6 0052 005d 000c ffd4 ffe5 001b     "...R.].........
    e318:	002e ffcf ffa2 ffac ff72 ffea ff67 ff5e     ........r...g.^.
    e328:	0009 000a ff42 003c ffe2 ffd5 0060 fff9     ....B.<.....`...
    e338:	003b 0023 0062 004b 009d 0092 0069 0068     ;.#.b.K.....i.h.
    e348:	00ab 0090 0055 003a 0062 0038 ffb5 ffed     ....U.:.b.8.....
    e358:	005d ffc9 ffda 0044 0037 ff43 ffa6 ffb6     ].....D.7.C.....
    e368:	001d ff74 ff56 ff97 ffd0 ffe0 ff67 ffe0     ..t.V.......g...
    e378:	0007 0020 0040 004b 0070 004c fff0 fff0     .. .@.K.p.L.....
    e388:	0004 ffa2 008c ffa7 ff90 fffb 000a ffac     ................
    e398:	ff7d 0002 ff89 ffdf ff3d ff8d ffe5 000b     }.......=.......
    e3a8:	ff48 ffbc 005b ffdd 004d fffa 0020 0074     H...[...M... .t.
    e3b8:	00ae 005d 0039 00b9 00fb 00cf 0019 00fb     ..].9...........
    e3c8:	0079 000c 003e 0049 0049 ffcc 0025 000d     y...>.I.I...%...
    e3d8:	0012 0002 ffea 0082 ffd6 ffcf ffb7 ff9e     ................
    e3e8:	ff90 ffd2 0023 ffea fff9 0014 0083 003c     ....#.........<.
    e3f8:	0034 ffdd 002c 004f ffe1 ffa9 ffd8 0006     4...,.O.........
    e408:	fff6 ff89 ff10 0019 ff74 ff30 ffd8 0014     ........t.0.....
    e418:	ffb0 ff8f ff8c ff0a fff3 ffbb ff70 001d     ............p...
    e428:	ffbb 0031 ffdf 0036 00bc 002b 0005 ffd0     ..1...6...+.....
    e438:	0049 000b 0056 fff5 ffe1 00ba 0043 ffee     I...V.......C...
    e448:	ff8e ffd7 0035 ffa0 ffa5 ffa9 005c 0032     ....5.......\.2.
    e458:	0018 0007 ffed 0022 0001 0076 ff5b 0026     ......"...v.[.&.
    e468:	ffd9 ffe8 0001 ffaa 0027 ff69 0085 002f     ........'.i.../.
    e478:	fffd ffaa 0080 0058 ffc3 004a 006d 0060     ......X...J.m.`.
    e488:	fff6 ffb2 0038 0077 0025 ffb4 0048 00cc     ....8.w.%...H...
    e498:	002f 0031 0040 0072 0017 ffbc ffe3 0075     /.1.@.r.......u.
    e4a8:	fff7 ffaa fff1 0022 ffe2 0069 fff5 002c     ......"...i...,.
    e4b8:	ffec ff91 fff6 001f 0001 fff8 0006 ffff     ................
    e4c8:	00bb 003a ffc6 0018 0045 004c ffe2 0034     ..:.....E.L...4.
    e4d8:	0012 000d ffcb ff9e ff65 ffa3 ffbe ffb6     ........e.......
    e4e8:	ffe8 ff7c ffe7 ff5b ff42 ff9e ff36 ff7d     ..|...[.B...6.}.
    e4f8:	ff95 ffdf ff89 fff4 ffc1 0032 0050 ffed     ..........2.P...
    e508:	004b 0010 009a 005b 0020 ffbc 0071 003a     K.....[. ...q.:.
    e518:	000a fff5 ff82 0092 ffd1 ffe2 ff4e 0010     ............N...
    e528:	0023 0040 ffcb 0054 0099 ffc1 0056 ffdd     #.@...T.....V...
    e538:	0050 ffcb 004d ffde ffda 0081 ffde 0033     P...M.........3.
    e548:	0025 00a2 0016 005e 004d fff2 0079 ffee     %.....^.M...y...
    e558:	ffee ffb4 ff70 002d 003c ff58 ff4d 0024     ....p.-.<.X.M.$.
    e568:	0044 0019 ffb5 ffd6 009e 009e ffdd ffec     D...............
    e578:	00c6 0043 0029 0044 002b 0092 003c ffef     ..C.).D.+...<...
    e588:	ffec 0045 ffd7 001f ffc7 ffcd ffc2 ff72     ..E...........r.
    e598:	ffb4 ffa9 ff0b ffef ffbb fed3 ffef 0032     ..............2.
    e5a8:	0054 ff6c 0013 0010 001d ff8b ff8a 00b0     T.l.............
    e5b8:	fff7 0013 0039 fff1 00a1 0069 ffea 006b     ....9.....i...k.
    e5c8:	0072 0046 004d 0066 0011 0003 ffaf ff7e     r.F.M.f.......~.
    e5d8:	ffed ffae ff9d ffb3 0036 001a 0029 ffe6     ........6...)...
    e5e8:	0038 002a 001c 0017 fff7 ffd7 ffb1 0039     8.*...........9.
    e5f8:	001f ffcf ff24 ffff 0030 fffb ff7d ff22     ....$...0...}.".
    e608:	001f ffc5 ff4c ff92 ff68 ffae ffd2 0027     ....L...h.....'.
    e618:	ffea fff6 000b 0064 009f 0051 00b0 0036     ......d...Q...6.
    e628:	005d 005d 000a 005e 006b 0015 ffd5 0008     ].]...^.k.......
    e638:	006f 007e ffe9 0001 000c ff99 ffdc ff9c     o.~.............
    e648:	0008 ff9a ffbc 0031 0068 0021 ffe1 0074     ......1.h.!...t.
    e658:	0045 0057 ffab ff96 0005 0085 fff5 ffbc     E.W.............
    e668:	004f ffed 00fa 0054 005d 005c 002a ffee     O.....T.].\.*...
    e678:	ffec ffbe ff2f ffe9 ffbb ffe6 001a ffec     ..../...........
    e688:	0065 002d 0041 ffc6 000a 0016 0008 ffdb     e.-.A...........
    e698:	ff9c ffc7 ffcf ffca fff7 0063 000a 0058     ..........c...X.
    e6a8:	0008 ffbb fff4 000b 0006 ff8a ffcb ffc2     ................
    e6b8:	000d fff7 ff5c ffc5 000d 0083 ffa4 0018     ....\...........
    e6c8:	ffe7 fff9 fff4 ffa2 ffe7 ff9b fff9 ffd7     ................
    e6d8:	0050 ffed ffd5 009a 006a 0038 ffed 0000     P.......j.8.....
    e6e8:	ffe2 ffea ff5f ffd2 ffee ff7c ffde ffde     ...._.....|.....
    e6f8:	ffc4 0000 ffd5 002d 0055 0007 0011 002c     ......-.U.....,.
    e708:	00cc ffc0 002f 0020 0052 ffb3 ff78 003c     ..../. .R...x.<.
    e718:	0037 00ee 002d 0035 0038 00a2 ffeb ff91     7...-.5.8.......
    e728:	0007 ffba 0010 ff12 fff5 ff64 ff5d 0021     ..........d.].!.
    e738:	004d ffc0 ff7a 0042 0051 0065 ffba ffaa     M...z.B.Q.e.....
    e748:	001f 004d 001b 0033 ffc5 0013 008e 007c     ..M...3.......|.
    e758:	fffa 007f 0099 fff1 0033 004e 0037 ff73     ........3.N.7.s.
    e768:	0024 0088 0002 ffb1 0028 00a1 ffdc 0024     $.......(.....$.
    e778:	0031 0094 ffc4 0012 001c 0045 ffe3 ffbb     1.........E.....
    e788:	0014 ff4d ff81 ff93 ffe3 ffc7 ff92 ff77     ..M...........w.
    e798:	ffde fff2 ff58 ffb5 ffac 000b ffc9 ffde     ....X...........
    e7a8:	ffcf 0007 ffe5 0043 0088 001f 00c8 ffff     ......C.........
    e7b8:	0096 0047 00bb 0020 0019 00b7 000e 001a     ..G... .........
    e7c8:	000e 0097 ffe7 fff0 ffdc ffde 000f ffc3     ................
    e7d8:	ffac ff7e ffbe ffe0 ff25 ff9d fff8 ffd3     ..~.....%.......
    e7e8:	ff10 ffa3 0059 ffbc 0019 ff6d 004f 0013     ....Y.....m.O...
    e7f8:	0033 ffb9 ffbf 0059 ffcd fffc ffa1 0034     3.....Y.......4.
    e808:	003e fff2 ff90 ff89 000e ffb1 ffdd ffdf     >...............
    e818:	fff7 ffe4 ffe9 ffca 000d 0014 002b 0083     ............+...
    e828:	ffeb 007f 0034 004a 0032 0077 00af 00b1     ....4.J.2.w.....
    e838:	003a 00c4 00a0 00af 001d 006b 008d 004b     :.........k...K.
    e848:	ffa4 0011 0017 ffab ffc6 ff25 ff87 ffe9     ..........%.....
    e858:	001d ff0b ff55 ffed ffe7 ffeb ff39 ffd4     ....U.......9...
    e868:	fffe ffe4 001a 0057 008b 005b 0096 001d     ......W...[.....
    e878:	009b 0002 006a 005e 0029 ffe9 006a 0038     ....j.^.)...j.8.
    e888:	ffed 004b 0018 ffd7 ff99 0039 ffe9 0005     ..K.......9.....
    e898:	ff61 fff1 ffe1 0041 0001 ff75 ffcb ffb6     a.....A...u.....
    e8a8:	ffe7 ff31 ffbd ff92 ffd2 ffa8 ffbd 0018     ..1.............
    e8b8:	ffba ffc5 ff56 ffd7 ffa4 0002 ffd0 0010     ....V...........
    e8c8:	ffa6 ffd8 0026 0014 0004 004e 0086 0010     ....&.....N.....
    e8d8:	0041 0004 ffef 0057 00d5 000f ffb8 0059     A.....W.......Y.
    e8e8:	0099 0063 ffd4 ffed 0065 001a ffca ff6d     ..c.....e.....m.
    e8f8:	ff66 0053 ffdc ffb1 ff66 0014 fffb 002d     f.S.....f.....-.
    e908:	0035 003d 0063 0016 000a 0085 00cb ffc8     5.=.c...........
    e918:	0057 000b 009a ffdd ffc9 0039 006c 0086     W.........9.l...
    e928:	ffb7 001d 0085 000c 000c ff7e ff7c ffd0     ..........~.|...
    e938:	ff7a ff99 001b ff92 ffd0 ffe7 001c ffd4     z...............
    e948:	0019 002b fff0 0005 ffb8 ff8d ffdf 0049     ..+...........I.
    e958:	ff8c ffde ffc7 001f 000c fff3 ff9e ffee     ................
    e968:	0015 0018 ffd0 ffa1 002d ff9f 0035 ffd0     ........-...5...
    e978:	ffd4 ffff 006d 002f 0002 0073 002a 0066     ....m./...s.*.f.
    e988:	0074 0099 fffa 006d 003f 004e 0063 003a     t.....m.?.N.c.:.
    e998:	00a8 ffee 007c ffdb fff5 ffb5 0006 fffe     ....|...........
    e9a8:	ff90 ffb4 ff50 000f ffee 002a ffdd ffea     ....P.....*.....
    e9b8:	000f fff4 002a ffca 0023 ffd5 002a ffde     ....*...#...*...
    e9c8:	ffd5 ff69 000c 004a ffd3 ffc0 ffd4 ffe2     ..i...J.........
    e9d8:	ffa5 ffcd fffe ffa6 ff8b fffb ff9e ff91     ................
    e9e8:	ffb6 ffb5 ffff 0051 000f ff8c ffc9 004e     ......Q.......N.
    e9f8:	0050 ffbc ff9c 0065 0004 0016 0029 fff2     P.....e.....)...
    ea08:	0025 000e 000f ffd3 fff7 003b fff4 ffcc     %.........;.....
    ea18:	ff99 ffc3 ffe9 0016 ffad 003c 007b 0041     ..........<.{.A.
    ea28:	ffd4 0097 0077 0080 0092 007a 005d 005c     ....w.....z.].\.
    ea38:	0027 0049 fff9 004c 0034 006b 006f ffeb     '.I...L.4.k.o...
    ea48:	001c ffc0 0091 0038 002b 00bd 0057 001e     ......8.+...W...
    ea58:	002a ffd4 ffe0 ffd4 fffe ffeb ffcb 0018     *...............
    ea68:	0010 fff9 ffe6 fffc fffd 0079 ffeb ffa6     ..........y.....
    ea78:	ff92 fff2 ffc3 ff51 ff5b ff82 ff8a ff4c     ......Q.[.....L.
    ea88:	ffe4 ffb2 ff97 ffce 000b 002f ffac ffcf     ........../.....
    ea98:	ff83 fff0 001b ffe1 ff8b 001a 0014 fff0     ................
    eaa8:	0067 ffbd 0090 0050 ff8f ff42 ffc2 0006     g.....P...B.....
    eab8:	fffe ff81 ffac 006a 0001 ffa3 ffa2 001e     ......j.........
    eac8:	ffca ff88 0020 0002 000a ff96 ffae 0025     .... .........%.
    ead8:	0034 ffd5 005d 00de 00db 0054 002f 0028     4...].....T./.(.
    eae8:	007a 00b9 0028 0023 0081 006b 0016 002d     z...(.#...k...-.
    eaf8:	fff8 0013 ffc8 0015 0012 ff9c ffef ff7d     ..............}.
    eb08:	000a ffa1 002c 0002 ffd4 001e 0031 0055     ....,.......1.U.
    eb18:	ff97 0007 0030 003f ffde fff7 0030 0073     ....0.?.....0.s.
    eb28:	007c 0096 0060 0079 00a3 ffd3 ffec 0073     |...`.y.......s.
    eb38:	009c 0050 ff7a ffd2 0034 00bb ff9b ff96     ..P.z...4.......
    eb48:	001f ffdb ff9a ff86 0003 0048 ffc0 ff29     ..........H...).
    eb58:	ff72 0020 ffe7 ffaa ffb2 0018 fff8 ff94     r. .............
    eb68:	ffa0 ffcb fffa ff28 ff6b ffbf ffe3 ffeb     ......(.k.......
    eb78:	ffdf 000e ffec 0059 ffee 0016 fff3 ffd7     ......Y.........
    eb88:	ffde ffa8 fff0 0016 001a 000b 0021 0057     ............!.W.
    eb98:	0063 0023 008e ffd8 0015 00cd ffba ffaa     c.#.............
    eba8:	002c 0028 ffd9 fff1 ff9a fff3 ffe7 ffcb     ,.(.............
    ebb8:	0002 ff61 ffdb 001e ffee 0046 ff46 fff8     ..a.......F.F...
    ebc8:	003c 0005 0004 ffb8 ffd5 fff7 002d 0002     <...........-...
    ebd8:	0057 0017 004c 0098 0086 0087 0059 003d     W...L.......Y.=.
    ebe8:	000f 0076 ffe4 0070 0063 ff60 ff6c 005a     ..v...p.c.`.l.Z.
    ebf8:	00b9 ffc4 0022 0001 0007 ffb3 ff71 ff74     ....".......q.t.
    ec08:	ff17 ffdf ffe9 fff2 ffd5 002c 002d 001e     ..........,.-...
    ec18:	00d4 008c 0077 0005 005b 0097 0066 ffa8     ....w...[...f...
    ec28:	ff9c 0014 0040 0026 0013 0011 002d 0059     ....@.&.....-.Y.
    ec38:	ff71 001d 000c ff85 ff6e ff76 ff8f ffc4     q.......n.v.....
    ec48:	ff9d ff25 0043 0010 0067 ffee ff91 001d     ..%.C...g.......
    ec58:	0036 0031 ffcf 0061 003c ffdb 0010 0049     6.1...a.<.....I.
    ec68:	005e ffcf 0019 ffc0 004b 003b fff7 ffb7     ^.......K.;.....
    ec78:	ff9e 005d 005d ffbf ff98 ffcd ff8c 000e     ..].]...........
    ec88:	ffc9 ffe7 0001 ffe6 0020 001c ffcb 0006     ........ .......
    ec98:	0000 ffd3 ffdc ffc3 001c ffc2 ffa1 ffaa     ................
    eca8:	ffd7 ffe7 ffda ffb0 fff9 0079 ffe3 00b7     ..........y.....
    ecb8:	fff7 fff5 002a 0018 007d fff8 0058 0024     ....*...}...X.$.
    ecc8:	0041 0006 0048 0055 004c 0033 ffbc 00cc     A...H.U.L.3.....
    ecd8:	0064 fff2 ff6c ffba ffce 0038 ffac ff7d     d...l.....8...}.
    ece8:	ffa3 fff5 002b ffe7 ffc8 ffd0 0033 0084     ....+.......3...
    ecf8:	001f fff1 ffca 002e 003e ffcc 001a ffd8     ........>.......
    ed08:	0007 fff6 ffe9 feec ff71 0009 00ce ffd3     ........q.......
    ed18:	ff7d 006c 0051 0055 ffbe 0032 003b 0065     }.l.Q.U...2.;.e.
    ed28:	0068 ffc2 ffe1 0033 0067 0070 0020 0053     h.....3.g.p. .S.
    ed38:	ffe5 00b6 00b8 0083 ffc9 ffe8 009c 0053     ..............S.
    ed48:	ffae ff10 ff9d 000c ffdf ff03 ffb3 ff07     ................
    ed58:	ffbf 001a ff9c ff34 ffc4 0076 0061 ffec     ......4...v.a...
    ed68:	feef ffb6 0074 006a ff61 ff9e 0015 0115     ....t.j.a.......
    ed78:	00a0 ffbc 0005 001f 00d5 0055 ff94 ff85     ..........U.....
    ed88:	ffed 0013 0007 ff67 ff35 0019 00d8 0050     ......g.5.....P.
    ed98:	fff7 0014 0019 0055 ffe0 fff7 ff8a 0024     ......U.......$.
    eda8:	0031 006e ffe7 ff8f 0039 009a 004a ff8c     1.n.....9...J...
    edb8:	ff7b ff8d 00c3 0059 ff5c ff7f ffd2 00b8     {.....Y.\.......
    edc8:	ffbd ff43 ff90 00c0 0040 ff77 ffca 000d     ..C.....@.w.....
    edd8:	0074 004a 005f ffd9 006a 0074 00bb fff3     t.J._...j.t.....
    ede8:	ff7a 001a 0075 fff9 ff6b ff64 ff7d 000a     z...u...k.d.}...
    edf8:	ffa2 ff56 ff35 ffb0 fffd 0037 ffd5 0042     ..V.5.....7...B.
    ee08:	ff98 0029 005e 0060 002e ffed fff0 003a     ..).^.`.......:.
    ee18:	00ef ffea 001b fff9 0150 00dc 0064 000b     ........P...d...
    ee28:	002b 005a fffb 004a 0020 0001 ff85 00c6     +.Z...J. .......
    ee38:	0011 001d ff7c ff8e 007a 0066 ffdf feb1     ....|...z.f.....
    ee48:	ff8c 000f ffe1 fee0 fef4 000f 0059 ffad     ............Y...
    ee58:	fe8f ffa3 0024 007d ff76 ff61 001b ffcb     ....$.}.v.a.....
    ee68:	ffcf ff70 ff92 ffc5 007c 0029 0007 ffe5     ..p.....|.).....
    ee78:	000a 00a2 0056 00c7 000c ffee 005e 00f2     ....V.......^...
    ee88:	002a ffe7 007d 0053 0057 ffb0 0008 0008     *...}.S.W.......
    ee98:	006f 0021 0036 0006 0029 00b6 008a ffe6     o.!.6...).......
    eea8:	0018 004d 0086 007f 002f 008a 00a5 00b1     ..M...../.......
    eeb8:	ffd7 0044 0055 fffa 000b ffb3 ffd4 ff5e     ..D.U.........^.
    eec8:	ffba ff15 ff68 ff74 ff54 ff61 feb9 ff32     ....h.t.T.a...2.
    eed8:	ff99 ff79 fec6 ff4e ff6c ff54 ff20 fefc     ..y...N.l.T. ...
    eee8:	ff54 ff4d ffcf ff04 ff72 ff1f ff96 0055     T.M.....r.....U.
    eef8:	ffa6 0004 ff96 004e 0008 00cb ffcf 006e     ......N.......n.
    ef08:	00b9 00a3 ffff ffa4 0023 0020 0098 ffc4     ........#. .....
    ef18:	0133 0119 00e4 00a9 00ab 0169 0121 00f2     3.........i.!...
    ef28:	012d 01b0 0176 00fa 00a2 00df 00fc 012c     -...v.........,.
    ef38:	00b2 014b 0084 fff4 0047 0098 005e ff69     ..K.....G...^.i.
    ef48:	ffeb ffed 003f ffa4 ff22 ff3c ff6a ffbe     ....?...".<.j...
    ef58:	0049 ffdc ff7a 0063 007b ffe4 ff79 ff37     I...z.c.{...y.7.
    ef68:	ff99 ffa5 ff62 ff5a ff6a ffd5 ffc2 ff23     ....b.Z.j.....#.
    ef78:	ff11 ff4c ffa8 ff79 fefe fec8 fe80 ff72     ..L...y.......r.
    ef88:	ff1e feb0 fe90 ff74 0003 ff70 feb9 ffae     ......t...p.....
    ef98:	001f fefc ff69 ff1c ffae 002b ffab ffb5     ....i.....+.....
    efa8:	ff88 ff67 0024 0004 ffef ffb6 001c 003b     ..g.$.........;.
    efb8:	ffc7 ffae fff1 0008 00e8 0136 00a3 013d     ..........6...=.
    efc8:	0136 0105 0078 00cf 012f 016a 0128 0147     6...x.../.j.(.G.
    efd8:	015c 0119 020e 00bd 0102 00e5 0110 002d     \.............-.
    efe8:	002d 011b 0068 0033 ff7c 00cb fff0 0010     -...h.3.|.......
    eff8:	ff7d ffc6 008a ff9f ff92 fef1 ff61 ff99     }...........a...
    f008:	ff6d feec ff46 ff72 ffaa ff7d fefe ff5a     m...F.r...}...Z.
    f018:	0001 ffbf ff78 ff45 ff8f ff67 ff81 ff5f     ....x.E...g..._.
    f028:	ff91 ff55 0012 ffc9 ffeb ffbe 0049 0002     ..U.........I...
    f038:	ffa8 fff7 0034 0065 ffb7 000b ffb5 00a0     ....4.e.........
    f048:	0064 001b fffe ffc6 0009 0051 ff91 ffb2     d.........Q.....
    f058:	001c ff99 0016 0027 0007 0008 0028 0028     ......'.....(.(.
    f068:	00b0 0007 ffb4 0037 0080 0076 0084 00d9     ......7...v.....
    f078:	00a8 00d8 00dc 00aa 0074 00b7 00e7 0092     ........t.......
    f088:	0011 0032 001b ffc9 ffee ffb6 ff2b 0022     ..2.........+.".
    f098:	002e ffcc fef0 ff0a ff79 ff95 fe8a fe17     ........y.......
    f0a8:	fe9e fe2b feee fe8a fe4e feac ff32 ff4e     ..+.....N...2.N.
    f0b8:	ffb6 0002 0040 0027 004f 00ae 00c9 00de     ....@.'.O.......
    f0c8:	0094 009c 0117 00f9 006a 0095 00dd 013c     ........j.....<.
    f0d8:	00e6 00c1 0145 007b 00e4 00a1 fff8 0074     ....E.{.......t.
    f0e8:	0087 00d0 0057 006c 0069 004f 0066 0072     ....W.l.i.O.f.r.
    f0f8:	0066 ffac 013e ff8f ff82 ffb1 ff32 ff77     f...>.......2.w.
    f108:	ff2d ff81 fec8 ffd0 ff96 ffd7 ff11 ff34     -.............4.
    f118:	0011 ffef ffab ff36 ffee 0034 0034 ff86     ......6...4.4...
    f128:	ff64 0076 ffc0 003e ffda 0014 ffce ffd0     d.v...>.........
    f138:	0048 ffe2 ff92 ffaa 001f fff1 ffff ff97     H...............
    f148:	0032 fffe 0050 ffe6 0022 fffc 004e 00aa     2...P..."...N...
    f158:	ffd4 0025 003f 00c4 002c 002f ffd6 0003     ..%.?...,./.....
    f168:	ffde ff7f fff2 ff76 002d ffb6 ff36 ff5c     ......v.-...6.\.
    f178:	ffad ff2c ff59 ff75 ff81 ffbd ffd5 001f     ..,.Y.u.........
    f188:	0037 000c fff0 0078 0079 0093 0040 0039     7.....x.y...@.9.
    f198:	007e 0090 004f ffc1 003b 0061 0055 fff4     ~...O...;.a.U...
    f1a8:	ffe7 ffa1 ffb3 fff0 ff72 ff15 ff11 ffc0     ........r.......
    f1b8:	fff7 ff70 ffca 001e 009e 0103 0140 0108     ..p.........@...
    f1c8:	0104 0196 018a 010f 00e7 0105 0116 00d3     ................
    f1d8:	00b5 009c 006b 003f 008d 006b 0057 001b     ....k.?...k.W...
    f1e8:	ffc7 ff91 ff7b fe80 ff25 ff7b ff1a fe55     ....{...%.{...U.
    f1f8:	ff21 ffdb 0024 fefd fedd ffc3 0005 ff53     !...$.........S.
    f208:	fee9 0007 0017 ffeb ff85 fff7 0009 0018     ................
    f218:	003b 002c 0018 002f ffab ff28 fffb ff88     ;.,.../...(.....
    f228:	ff9d ff69 ff8e 005f ffcc 0025 ffd1 0001     ..i..._...%.....
    f238:	fffc 005b ff8f ffc4 0034 ff8e ffaa ffb7     ..[.....4.......
    f248:	ffe6 004b fffe 0005 0030 007d 0081 0027     ..K.....0.}...'.
    f258:	0058 001c 002a ffb7 ffa6 ffbc fffb ffdd     X...*...........
    f268:	fffa ffb1 002d 0048 ff8e fffb ffd4 ff6f     ....-.H.......o.
    f278:	ffec ffe3 000d ffb5 005c 00d9 00f2 001a     ........\.......
    f288:	00ca 007c 0050 0107 0039 0001 0004 009b     ..|.P...9.......
    f298:	004e 003c ffca 0091 00ff 00a7 0062 0089     N.<.........b...
    f2a8:	00ee 009a 0108 0014 0089 00d3 008e 00df     ................
    f2b8:	0014 0036 002f fffe ffb4 ffc0 ff77 0026     ..6./.......w.&.
    f2c8:	ffb3 ff30 ff43 ffbc ff55 ff65 ff2b fee4     ..0.C...U.e.+...
    f2d8:	fee9 ff3d ff75 fec2 fe8a fe87 ff0b ff2f     ..=.u........./.
    f2e8:	ff38 ff30 ff64 ffe3 007a 0043 0016 ffea     8.0.d...z.C.....
    f2f8:	00b4 005f 0091 003c ffa7 ffe6 0074 00a0     .._...<.....t...
    f308:	ffc0 0021 008d 0097 0017 ff8a ffb1 008d     ..!.............
    f318:	0091 ff96 ff96 ffe2 0062 ff48 ff3a ffe2     ........b.H.:...
    f328:	0052 0075 ffd8 002f 00a6 00c1 007c 003a     R.u.../.....|.:.
    f338:	00a0 00e4 005c 000c 00ce 0077 00d4 0067     ....\.....w...g.
    f348:	00af 00f0 0098 0096 003e 00aa 008a 007b     ........>.....{.
    f358:	ffb2 fff9 0039 008f ff95 feb3 ff76 fff4     ....9.......v...
    f368:	0006 ff3a ff91 ff77 ffae fef7 fe6f fea7     ..:...w.....o...
    f378:	fe59 fec0 fe89 fe7b fe87 fe8e ff0b ff01     Y.....{.........
    f388:	fea2 ff4a ffdb ffa5 ffbc ff8d 0047 00c6     ..J.........G...
    f398:	0081 00dd 0146 01ec 0194 016d 0196 020d     ....F.....m.....
    f3a8:	01f0 0145 0170 0114 0167 00a2 0045 0090     ..E.p...g...E...
    f3b8:	00c3 00a2 0008 ff9c fff8 0066 ff89 ff58     ..........f...X.
    f3c8:	ff18 ff87 ff72 ff5a fef6 ff6a 0059 fff1     ....r.Z...j.Y...
    f3d8:	ff89 ff6c 0032 00d6 0049 ff1c ff18 002b     ..l.2...I.....+.
    f3e8:	fff7 ff43 fe8f feba ffce ff29 ffa8 ff29     ..C.......)...).
    f3f8:	ff3b fefb ff34 ff21 ff85 ff07 ff2b 002a     ;...4.!.....+.*.
    f408:	fff8 0085 00b2 00b7 0111 0150 018f 0126     ..........P...&.
    f418:	010b 017c 0161 00c7 00c6 0110 0094 0049     ..|.a.........I.
    f428:	003d 00ac 004a ffbc ff6f ffff 0017 ff8a     =...J...o.......
    f438:	ff55 ffe8 002e ffbe ff98 0012 0062 ffde     U...........b...
    f448:	ffd2 000c 000a 0075 ffe9 0065 ffcd fff8     ......u...e.....
    f458:	ffd8 0017 ffa1 ff73 ffbd ff1b fede ff23     ......s.......#.
    f468:	ff76 fea6 febc fee9 ff3a fecf fea9 fee4     v.......:.......
    f478:	ff30 ff81 ff48 ff3f ffec 0022 ffd2 000f     0...H.?...".....
    f488:	ffc3 0034 0030 0062 0073 002d 0078 0043     ..4.0.b.s.-.x.C.
    f498:	0072 0029 00da 006d 00e5 0085 00a5 00aa     r.)...m.........
    f4a8:	0077 00db 004a 00da 00db 0107 00bb 00e6     w...J...........
    f4b8:	0115 010b 0134 00b9 0113 0085 00c9 00b0     ....4...........
    f4c8:	0050 0066 ffd7 0100 ffbe 005d 0016 0035     P.f.......]...5.
    f4d8:	fffc ff87 0022 ff0d ffa9 feb3 ff2e ff00     ...."...........
    f4e8:	ff12 ff61 feb2 ff75 ff2f 005b ff4b ff35     ..a...u./.[.K.5.
    f4f8:	ff60 fff2 ffb3 fef4 fed6 ff59 ffa3 fed9     `.........Y.....
    f508:	ff2c fee6 ff7c ff34 ffb0 ffde fffd 0048     ,...|.4.......H.
    f518:	0063 0024 003c 0013 ffd1 0072 0027 00a3     c.$.<.....r.'...
    f528:	0088 00cc 010d 0133 010f 00c0 010f 014a     ......3.......J.
    f538:	00fa 00a4 0108 00c0 00bb 0042 0071 008a     ..........B.q...
    f548:	00d5 00b8 ff72 ffcf 0015 0032 ff46 fe8d     ....r.....2.F...
    f558:	ff2f fffc ff63 ff33 ff34 ff67 ff92 fee5     /...c.3.4.g.....
    f568:	fec0 ff9f ff68 ff4a ffa9 ff09 ff37 ff7b     ....h.J.....7.{.
    f578:	ff5f ff85 ffce ffac ffcd fffd ffb0 ff83     _...............
    f588:	ff9e ff8e 0025 0007 ffc9 ffa5 003e 0079     ....%.......>.y.
    f598:	0055 0011 001d 00f0 00d1 006e 008b 00c2     U.........n.....
    f5a8:	0077 0136 00c8 0107 00ab 004e 00ae 00fa     w.6.......N.....
    f5b8:	0077 00ae 009d 0092 00f6 0043 0087 fffa     w.........C.....
    f5c8:	003b fff6 0011 ffb1 ffc4 000c ff5d 0047     ;...........].G.
    f5d8:	ffa3 ff4e ff3a 001b ffea ff3f ffca ff93     ..N.:.....?.....
    f5e8:	0040 ffc9 fff3 0016 0044 ffe9 004c 0017     @.......D...L...
    f5f8:	ffb5 0041 ff6a fff6 ff8e ff30 ff54 ffb6     ..A.j.....0.T...
    f608:	ff8c ff62 ffff ff7f 0077 0065 fff2 ffa0     ..b.....w.e.....
    f618:	ffe8 005b ffbf ff0d ff27 002a ff7a ffd2     ..[.....'.*.z...
    f628:	ffc3 ffb7 009f 0041 009b 0070 008c 00df     ......A...p.....
    f638:	009a 0020 008a 0088 005c ff9c ffd1 00a2     .. .....\.......
    f648:	003d 0054 003a 000a 005b 0006 0060 ff74     =.T.:...[...`.t.
    f658:	ff85 ffb0 ffae fedf ff2b ff58 ff3b ff15     ........+.X.;...
    f668:	ff88 ffd0 ffe7 ffab ff8a 0008 0051 0095     ............Q...
    f678:	0043 00a7 0020 00fb 00e8 00f4 ffe8 003e     C... .........>.
    f688:	0088 0031 0021 fff0 0086 ff90 001e 0025     ..1.!.........%.
    f698:	003b ff8b 0051 fff3 ff9a ffa7 ff82 ff47     ;...Q.........G.
    f6a8:	ffd3 ff68 ff6c 006e 0005 003f 0046 000c     ..h.l.n...?.F...
    f6b8:	0079 0089 ff79 0077 009c fff2 ffb0 007d     y...y.w.......}.
    f6c8:	ff2a 0044 0073 002d 007a 003f 00d9 00c9     *.D.s.-.z.?.....
    f6d8:	008c ffa1 ffbc ffde 002d ffa8 feb4 ff32     ........-.....2.
    f6e8:	ff51 ffb9 ff92 ffa7 ffa9 ffa3 0007 ffe2     Q...............
    f6f8:	ffb2 ff62 ffa4 0052 000f ff9e ffef 0094     ..b...R.........
    f708:	008b 0036 0028 011f 009b 010d 0100 00ba     ..6.(...........
    f718:	006d 00d3 0075 0008 ffe4 0016 00c4 ffdc     m...u...........
    f728:	ff90 ffdd ffc8 ffb8 fffe ff9b ff5f ff60     ............_.`.
    f738:	0077 0016 ffae ff6b ffc1 ffe8 ffee ffbd     w.....k.........
    f748:	ffd4 ffd2 ffd8 000b ffe6 ff7e ffcb ffdd     ..........~.....
    f758:	ffb4 ff8c ff19 ff5e ffb5 ffb2 ffb2 ff3e     ......^.......>.
    f768:	ff4f 0019 0017 ff7e ff5d 0045 0086 0033     O.....~.].E...3.
    f778:	ffdf ffd4 005b 00ad 00c0 ffe9 009e 0028     ....[.........(.
    f788:	00c8 002c ff88 fff3 fff3 0035 ff9f ff1b     ..,.......5.....
    f798:	ffbd 0074 ffb4 ffb4 ff35 fff9 004f fff2     ..t.....5...O...
    f7a8:	ffc5 ffd1 0089 00da 0004 000d 00f3 0118     ................
    f7b8:	00d4 00a9 008b 0073 00c6 0063 008e 0037     ......s...c...7.
    f7c8:	00b2 0111 002e 0063 0047 0074 ffd4 0058     ......c.G.t...X.
    f7d8:	fff5 ffe7 ff9e 0000 ffba ffbe ffd9 ffab     ................
    f7e8:	ffc3 ff08 fffb 0033 ffbf ff50 ffc0 002b     ......3...P...+.
    f7f8:	003f ffe6 fed9 ff8f ffcd ffdc ff7f ff11     ?...............
    f808:	ff4e 0017 0002 ff26 ffbd 003f 0079 ffd6     N.....&...?.y...
    f818:	ff8c 0074 0032 ffbb ff81 ffe2 001b 0045     ..t.2.........E.
    f828:	ffeb ffcd 0049 0061 004a fffa 0015 fffa     ....I.a.J.......
    f838:	fffc ffc7 ffe6 000e 0050 003a 0025 002c     ........P.:.%.,.
    f848:	009d 00d8 ffbe 0051 0053 007a 00ce 0008     ......Q.S.z.....
    f858:	ffb5 ff79 0056 001d ff7d feb6 ffd2 ffc2     ..y.V...}.......
    f868:	ffa3 ff52 ff34 fff3 ff10 ff92 feeb ffae     ..R.4...........
    f878:	ff8b ffd8 ffe7 ff53 fff0 ffc5 fffe ff37     ......S.......7.
    f888:	ffa3 ff9d 000b fffb 008a 00a1 0072 00a1     ............r...
    f898:	0134 00f2 009f 00e6 00a1 00dd 00cb 0052     4.............R.
    f8a8:	ffbe 0084 00b3 00d8 ffd9 001e 0160 00aa     ............`...
    f8b8:	003a ffcd ffe4 0080 0010 fef1 ff38 fffc     :...........8...
    f8c8:	ffa3 ff40 ff04 ff40 001f fff3 ffad 0021     ..@...@.......!.
    f8d8:	0016 0029 008b ffe6 ff95 0009 ffd8 ff7e     ..)...........~.
    f8e8:	0009 0067 0083 000b 0005 00cc 0096 ffb0     ..g.............
    f8f8:	ff68 001d 0068 007c ff57 ff55 007e 0043     h...h.|.W.U.~.C.
    f908:	000a ff9d 0078 0017 fffa ffec 0063 0068     ....x.......c.h.
    f918:	fff7 ffac fffb 0096 ff64 ff1f ffb5 004f     ........d.....O.
    f928:	ffc7 ff9d ffcc ffdd ff6c ffea fffd fff2     ........l.......
    f938:	005d ff70 ffdf ff86 ffee ffd4 004c fffc     ].p.........L...
    f948:	ff5d 0047 002b 0080 ffc4 ff62 ffa4 fffb     ].G.+.....b.....
    f958:	0017 ff8e fee0 ff04 ffe2 ff82 ff6e ff86     ............n...
    f968:	0018 ffdc ffe4 002b ffd2 fff8 ffae ffdd     ......+.........
    f978:	0054 002c 00ab 00cf 00d2 00fd 00f1 0101     T.,.............
    f988:	0116 00ab 0147 00b3 00e1 00dd 0024 ffea     ....G.......$...
    f998:	ff8b fff8 001a ff6d ff45 ffdf ffb0 ff8b     ......m.E.......
    f9a8:	ffb8 ff91 ffd8 ffdb 000a ffae ff7a 000e     ............z...
    f9b8:	ffe5 ff77 ff82 0011 007b 0033 007c 0025     ..w.....{.3.|.%.
    f9c8:	0064 fff1 0040 ffea ffcf ff90 ff1d ff87     d...@...........
    f9d8:	ff7b fefd fe9d ffc9 0007 000f ffcd 0016     {...............
    f9e8:	00cd 006a 0063 0049 0061 007d 0088 0024     ..j.c.I.a.}...$.
    f9f8:	0058 0091 0054 0087 007d 0110 0024 0019     X...T...}...$...
    fa08:	000f 0052 0027 ff3a ff9b ffdf ffcf ff33     ..R.'.:.......3.
    fa18:	ffa3 ffbb 0052 ffd1 ffee 005f ffd0 0051     ....R....._...Q.
    fa28:	ffc2 ffdc ffd9 001b ff79 0012 ffcd fff4     ........y.......
    fa38:	ffc0 ffe2 0032 0039 ffe6 ffae ffea fff0     ....2.9.........
    fa48:	ff17 ff04 ff8e 0034 007a ffb0 ffd4 0057     ......4.z.....W.
    fa58:	00a1 0014 003f ffce 001d 0013 0027 fff0     ....?.......'...
    fa68:	001a 0055 000f 0032 0036 00bf 005c 0039     ..U...2.6...\.9.
    fa78:	ffde 003c 004f ffcf ff2d ff94 002a ffe7     ..<.O...-...*...
    fa88:	fff9 ff54 006a 00a5 004b 0013 0033 0070     ..T.j...K...3.p.
    fa98:	0031 ff65 ff85 000a ff65 ffd5 ffa4 ffcb     1.e.....e.......
    faa8:	ffdc 0024 0018 0007 ffef ffa0 ff7c ff7e     ..$.........|.~.
    fab8:	ffe6 ff23 ff83 ff8a 0010 000d ffc2 0053     ..#...........S.
    fac8:	ffd6 00a0 007d 00b5 fffd 00c5 002b 0050     ....}.......+.P.
    fad8:	00a4 ffe8 007b 003b 014a 005c 005b 0046     ....{.;.J.\.[.F.
    fae8:	0162 0085 001d 0037 ffd5 008b 0023 ffc9     b.....7.....#...
    faf8:	ff3d ffe1 ffb5 ffce ff92 ffa7 ffa1 ffbb     =...............
    fb08:	0071 ffc0 ff33 ff68 0001 ffc3 ff77 ff92     q...3.h.....w...
    fb18:	ff96 004a ffe2 ffb8 ffc3 0052 ffc8 ffc3     ..J.......R.....
    fb28:	ffbc fff8 003b ff93 ff76 ffb0 0033 ffc8     ....;...v...3...
    fb38:	ffc8 ffe3 005c 0060 fffb ffc9 0064 0090     ....\.`.....d...
    fb48:	0064 ffff 000e 007c 007b ff67 ff42 ffe4     d.....|.{.g.B...
    fb58:	0068 0074 ffbd ffe1 0084 007f ff7e ffb2     h.t.........~...
    fb68:	001d 0074 0077 003b 0018 00cb 0067 001e     ..t.w.;.....g...
    fb78:	ffcd fff2 00eb fff3 ff5e ff8e 004d 0013     ........^...M...
    fb88:	ffe2 ff54 ff78 ffb2 fff8 ff6d fed0 ffa1     ..T.x.....m.....
    fb98:	ff4d ffbf ff19 ff98 ff66 fff8 fffb fffd     M.......f.......
    fba8:	fff0 00f1 00eb 0098 006a 0056 00f2 003f     ........j.V...?.
    fbb8:	0030 000e 00da 003e 0097 0018 0048 0077     0.....>.....H.w.
    fbc8:	0011 004c 0011 0024 0050 0043 ff61 ff53     ..L...$.P.C.a.S.
    fbd8:	ffcf 000c 0003 ff8f ffe6 002d 001f ff5c     ..........-...\.
    fbe8:	ff20 ffee 003e 0048 ffa7 ffc3 0040 000c      ...>.H.....@...
    fbf8:	ffba ff40 ff7e 0013 0014 ffaf ff43 ffc9     ..@.~.......C...
    fc08:	ffc8 0014 001c fffc ffee fff4 007b 009b     ............{...
    fc18:	005d 0009 0042 0096 00d8 006b ff8c fff7     ]...B.....k.....
    fc28:	0004 ffcf ff5e ffb5 ffc3 ffb5 fff1 000c     ....^...........
    fc38:	0009 0071 001c ffa7 ffd1 ffae fffe ffac     ..q.............
    fc48:	ffdc ffd8 0048 0019 008c 00a7 0083 0090     ....H...........
    fc58:	0023 00a8 009f 005d 001a 0017 0071 0096     #.....].....q...
    fc68:	ffd8 0009 0009 002a ffcc ff81 ff94 ffba     ......*.........
    fc78:	ffed ff86 ff9b ff5d ffc1 ffac ffb0 ffa9     ......].........
    fc88:	ffa8 0037 ff8a ffc2 ffbf ffff fff2 fff0     ..7.............
    fc98:	ffb8 ff8a ffc5 ffd7 0025 fff4 ffce ffae     ........%.......
    fca8:	0038 005e fff2 fff8 0003 0049 003c 008a     8.^.......I.<...
    fcb8:	fff8 006d 002e 0036 0094 fffe 003e ffdb     ..m...6.....>...
    fcc8:	0083 0041 0035 006c 002a ffc9 fffb ffeb     ..A.5.l.*.......
    fcd8:	0007 ffbf ffe0 0000 001f 0014 ffee fff8     ................
    fce8:	ff8f fff4 ff9f ffda ffb2 002f fff6 ffe8     ........../.....
    fcf8:	ffc9 001c 000a ffa9 0006 fff2 005d ff2f     ............]./.
    fd08:	ffff 000f 00e0 000f ffe5 0067 00b3 00b9     ..........g.....
    fd18:	ff49 0030 002f 003b ffe4 ffa9 fff3 0013     I.0./.;.........
    fd28:	0038 ff7f ffca 0019 0095 fff0 ffad ff73     8.............s.
    fd38:	ffed 0049 ffcd 003f ff7d 0026 004a ffab     ..I...?.}.&.J...
    fd48:	ffc8 ffe8 0034 ffd5 fff4 ff8d 0001 fff7     ....4...........
    fd58:	0019 003d 000c 00ae fff2 ffe2 ff76 ffd3     ..=.........v...
    fd68:	ff62 ffa2 ff85 fffb 0048 ffba ffdb ff6c     b.......H.....l.
    fd78:	005d ffff fffe ff67 0004 00aa 0091 0011     ].....g.........
    fd88:	0042 00f0 00a2 00b1 0074 0115 0075 009e     B.......t...u...
    fd98:	00b0 fffb 002c ffa9 0000 ff9e ff60 ff30     ....,.......`.0.
    fda8:	ffb5 ffa2 ff3a ff94 ffb9 ff89 fef8 ff7a     ....:.........z.
    fdb8:	ffdf 003f ffa5 ff5b ffba 004d 0058 ffc8     ..?...[...M.X...
    fdc8:	0029 00b9 00bf ffeb fff5 ffe8 002f 001f     ).........../...
    fdd8:	ff9d ffca ff9a ffa7 ffed 0021 ff85 ffd3     ..........!.....
    fde8:	005c 0073 fff2 fff4 000c 0061 ffe5 ffdf     \.s.......a.....
    fdf8:	ffdd 0012 004b 004d 000b 00a3 007e 00dc     ....K.M.....~...
    fe08:	006f 0079 0103 00f5 0062 ffa9 0047 0059     o.y.....b...G.Y.
    fe18:	0023 ff75 ff0d 002d 0045 ffad ff2b ff49     #.u...-.E...+.I.
    fe28:	ffb4 0056 ffb0 ff60 001b 00df 0089 0083     ..V...`.........
    fe38:	ffbd 000b 0044 fff1 ff82 ff7f ffea ffd2     ....D...........
    fe48:	ffad ff70 0021 00b7 0085 ffe4 ffb2 000d     ..p.!...........
    fe58:	004e ff90 ff54 fefc ff8e ff77 ff6c ff34     N...T.....w.l.4.
    fe68:	ff82 0058 0061 006b 0014 0028 0030 002a     ..X.a.k...(.0.*.
    fe78:	ffdf ff5f ff98 0001 ffc1 0045 0055 0034     .._.......E.U.4.
    fe88:	003b 0055 0038 ffd2 ff9f ff74 0061 ffc1     ;.U.8.....t.a...
    fe98:	ffbc ffc6 007b 002f 007f 0089 0057 00bf     ....{./.....W...
    fea8:	00cc 009a fff4 fff3 0016 0014 ffb5 fedc     ................
    feb8:	ff7c ff96 0010 ffa3 fff7 fff9 007b 007b     |...........{.{.
    fec8:	0015 ffcc fffe 003c ffe4 ffe8 ff66 0066     ......<.....f.f.
    fed8:	0061 0084 00ca 0058 00c9 002f 0056 ffdb     a.....X.../.V...
    fee8:	ffbc 0040 0073 fffd ff5a ff9a ffa4 0028     ..@.s...Z.....(.
    fef8:	ffa1 ff8b ff6d 002c ffa2 ff8b ff88 ffcb     ....m.,.........
    ff08:	0013 ffd1 ffe0 001d 005a ffd3 ffe4 ffb8     ........Z.......
    ff18:	0037 004e 000a 000f ff6e ffea 0028 0018     7.N.....n...(...
    ff28:	ffde 007b 0096 00f2 0041 0005 ffe2 0023     ..{.....A.....#.
    ff38:	ff98 ff8a ffdb 0014 006b ffab 0042 ffbf     ........k...B...
    ff48:	0036 fffa 0027 ffee 0009 00c6 ffd7 ffbe     6...'...........
    ff58:	ffc5 0060 0004 0048 fff4 0086 fffb 001a     ..`...H.........
    ff68:	ffe4 ffa9 008a ffd2 fff3 ffbd 0004 ff6d     ..............m.
    ff78:	ffc8 fed3 ff94 ff87 ff92 ff97 ffc7 fff2     ................
    ff88:	fffe 0038 ffee 0089 007a 0107 0061 00e4     ..8.....z...a...
    ff98:	ffef 00a0 002d fff5 ff28 0021 004e ff99     ....-...(.!.N...
    ffa8:	ffc4 ff77 00ad 0000 ffdf ffd6 ff94 ffc9     ..w.............
    ffb8:	ff67 ff2c ff48 fed8 ff36 0011 ff84 ffcb     g.,.H...6.......
    ffc8:	0036 fffa 006a 0008 0020 ffff ffc7 ffef     6...j... .......
    ffd8:	004a ff79 ff88 fffa 00c3 0040 0006 0046     J.y.......@...F.
    ffe8:	00a3 005e 0023 ffd7 0017 006b 0003 001f     ..^.#.....k.....
    fff8:	ffb1 00a5 00e7 0124 00f7 016d 01ab 00b7     ......$...m.....
   10008:	009a ff92 0064 ff91 ffe7 001c 0078 0057     ....d.......x.W.
   10018:	006b 00c9 0018 00a7 ff91 0040 ff19 ff94     k.........@.....
   10028:	ff16 ff8d fed7 ff5c ffb5 ff78 ffe1 ff78     ......\...x...x.
   10038:	0018 ffbe fffb ff1f ffd5 fffc ff6b ff16     ............k...
   10048:	ff70 ffe9 0017 fffc ffe0 0029 002e 0081     p.........).....
   10058:	ffa7 ffcd ffee 003c 007c 0077 ffef 0050     ......<.|.w...P.
   10068:	0027 00ee 0000 ff6b ffe4 ff81 ffcd ff18     '.....k.........
   10078:	ff13 fec5 ffc5 ff16 0011 ff35 ffd0 0007     ..........5.....
   10088:	001d 0036 0037 ff93 0024 00bf 0046 ffca     ..6.7...$...F...
   10098:	005f 0049 001b 0003 0009 005f 002c 004f     _.I......._.,.O.
   100a8:	0021 00ae ffec 007b 0093 00b2 0009 ffd6     !.....{.........
   100b8:	ffc6 0025 007c ff73 fffb 007d 0195 00dd     ..%.|.s...}.....
   100c8:	00cd 0034 00ae 00ea 007f ff6e ffa1 0031     ..4.......n...1.
   100d8:	ffa3 ff73 fedf ff89 ff79 ff36 ff0b 001f     ..s.....y.6.....
   100e8:	ff77 ff7f ff0e ff34 ffbb ff5c ff17 febe     w.....4...\.....
   100f8:	005f 0036 ffbb ff7b 009c 0150 0136 0062     _.6...{...P.6.b.
   10108:	00db 0122 0115 00b7 001f fff7 005c 0087     ..".........\...
   10118:	0020 ffb1 ff6e ff94 fff2 000d ffc4 ffba      ...n...........
   10128:	0059 0085 003d 0007 ffad ffbe 0034 003e     Y...=.......4.>.
   10138:	005f 0019 0062 00f7 0073 0096 0004 0046     _...b...s.....F.
   10148:	002d 006c ffb8 ffe1 ffc7 fff7 ffb1 ffeb     -.l.............
   10158:	001a ffcc ffca 0005 000b ff54 ff3c ff29     ..........T.<.).
   10168:	ffcd ff20 ff74 ff6a ffcb ffaa ff24 ff09     .. .t.j.....$...
   10178:	ff22 ff7d fff1 ff6a fee3 ffa5 ff7e ffdd     ".}...j.....~...
   10188:	ff58 0047 ff9a 002d ff8d 0008 0009 ffca     X.G...-.........
   10198:	ff84 0030 011b 0007 0088 00ed 01c7 00d8     ..0.............
   101a8:	008c 0065 016d 00ce 001b ff73 ffec 00dc     ..e.m.....s.....
   101b8:	ffd2 ff93 ffad 00b8 0079 ff67 ffcd 0059     ........y.g...Y.
   101c8:	fff2 ff6a ff5a ffd9 0045 ffe3 ff90 0040     ..j.Z...E.....@.
   101d8:	003d 00ca 0018 ffb9 0050 00ad fff0 ffed     =.......P.......
   101e8:	fff4 0053 0064 ffaf ffb9 0078 0078 0012     ..S.d.....x.x...
   101f8:	ff97 ffe3 005a ffd2 ffa0 ffb9 004a 0068     ....Z.......J.h.
   10208:	000f 0045 ffec 00b8 0072 0016 0040 008f     ..E.....r...@...
   10218:	0046 003c ff79 0030 0060 ffa9 ffcf 001b     F.<.y.0.`.......
   10228:	fffd ff95 ffc3 ff36 ff9f ff49 ffa9 ff9a     ......6...I.....
   10238:	ffa8 ff90 ffcd ffbd ff4c ffa6 fff0 ffe4     ........L.......
   10248:	ffbb ffe3 ffbc ff96 ff49 ffcc ff4d ffa2     ........I...M...
   10258:	ff46 ffc1 ffbb fff2 ffef 001f 006a 005a     F...........j.Z.
   10268:	0048 fff2 ffc8 0025 00a7 ff5e ffb0 ffe4     H.....%...^.....
   10278:	00ae 0016 0073 0097 018d 0144 00d7 014d     ....s.....D...M.
   10288:	00d6 0101 0061 0073 006a 00de 0040 007f     ....a.s.j...@...
   10298:	0058 0068 0058 0003 ff8f ff7b ffde ff47     X.h.X.....{...G.
   102a8:	febb feea ff28 ff56 ff1d ffab ffab ff8a     ....(.V.........
   102b8:	0018 0007 ffc7 ffb5 0008 ff9e ff57 ffe8     ............W...
   102c8:	0053 00a4 003c 00ad 0071 0010 0047 000f     S...<...q...G...
   102d8:	ff51 ff73 ff8b ff26 ffa3 ffd7 ff46 ffb7     Q.s...&.....F...
   102e8:	0011 0003 ffdd ffba ffd6 fff6 0045 fff1     ............E...
   102f8:	0002 fff6 00c1 011a 00d6 0088 0100 014c     ..............L.
   10308:	013c 0060 fffd 00ee 0096 0024 ffc8 001f     <.`.......$.....
   10318:	002f 00f8 000f 0071 ffea 0085 0034 ffe9     /.....q.....4...
   10328:	ff76 ff9f 0063 ffdd ff43 ff11 fffc ffc0     v...c...C.......
   10338:	ff38 ff47 000a 002b ff60 ff29 ff58 ff96     8.G...+.`.).X...
   10348:	ff26 ff57 ff34 ffb1 ff6c fec0 ff1b ffe3     &.W.4...l.......
   10358:	ff1c fee6 ffa9 ff9a 002e ff75 ff97 ff8c     ..........u.....
   10368:	00b5 00ef 0066 0069 00dc 00e3 012a 00b3     ....f.i.....*...
   10378:	ffea 0099 00f6 00dc 003b 0030 00dc 00ca     ........;.0.....
   10388:	006c 0095 0004 0055 008f 005b 0024 ff7a     l.....U...[.$.z.
   10398:	0062 0084 ff97 ff72 ffdf ff99 fff8 005b     b.....r.......[.
   103a8:	ff8c ffc9 ffb4 ffdb 003e ff9b ff5c ffbc     ........>...\...
   103b8:	ff46 ff76 ffbd ff66 ff1b ff9b 002a ffe6     F.v...f.....*...
   103c8:	ffac ffc0 ffb3 0034 ffbb ffdd ff68 ff98     ......4.....h...
   103d8:	fff1 0036 fffb ffbe 004b 0039 00d8 001c     ..6.....K.9.....
   103e8:	0060 00aa 011e 006e ffc1 008b 007e 0061     `.....n.....~.a.
   103f8:	0038 005a ffb4 00a0 002d 006a ffd0 ffeb     8.Z.....-.j.....
   10408:	005c 006f 006a 0021 0013 ffd5 0063 0063     \.o.j.!.....c.c.
   10418:	0019 ff4e ffe9 0048 0038 ffdb ffa4 ffce     ..N...H.8.......
   10428:	ff8d 0006 fff7 ffaf ffcf ffd9 ffbe 0029     ..............).
   10438:	ffba fefd ffdf ffc3 fff3 ffbf ffce 0098     ................
   10448:	ffa9 ffd9 0004 ffc6 005e ffe8 ffcd ffff     ........^.......
   10458:	009e 0009 fff5 001f 00b7 ffe1 ffaf 0066     ..............f.
   10468:	001c 001f ffe7 ffbd ff60 ffef ff79 ffad     ........`...y...
   10478:	ff51 ffc1 0009 0051 ff41 ffaa ffce 0033     Q.....Q.A.....3.
   10488:	ffbc ff3c 0020 0062 fffc ffb4 0021 001f     ..<. .b.....!...
   10498:	0049 ffdc ffb3 ffa9 003c 0048 0032 0014     I.......<.H.2...
   104a8:	ffcf 00d0 fff7 ffa2 0032 006e 0036 0070     ........2.n.6.p.
   104b8:	0066 007b 0018 00c4 0090 0073 0039 0030     f.{.......s.9.0.
   104c8:	0037 0091 0035 ffe9 0064 003b 005e 0035     7...5...d.;.^.5.
   104d8:	0088 ff75 0013 0014 002a 0015 ffde 000a     ..u.....*.......
   104e8:	003a 0030 ffa5 ffc5 ff7d ffda ff6b ff84     :.0.....}...k...
   104f8:	ffac 0027 ffa2 ff83 ffbb ffb2 0006 ffa6     ..'.............
   10508:	ff6a ff2f ff5c fedb ffde fed5 ff2f ff10     j./.\......./...
   10518:	ffc0 0063 003d ffab 000f 005f 0021 0086     ..c.=....._.!...
   10528:	ffac ffdc 0036 0053 0000 002a 00aa 00cf     ....6.S...*.....
   10538:	00f2 0133 0164 009c 016a 011b 0102 00c3     ..3.d...j.......
   10548:	004e 003f 0051 0057 0030 fff5 0012 0011     N.?.Q.W.0.......
   10558:	0030 ff9f ff6d ff53 ff98 ff40 ffaf fee9     0...m.S...@.....
   10568:	fefe ffd1 ff71 ffd0 ff3f ff79 003a 0028     ....q...?.y.:.(.
   10578:	ff87 ff8d ff3b 000d ffd0 ff29 ff25 ffcb     ....;.....).%...
   10588:	ff95 ffd8 ff70 ffa5 ffec ffd4 ffeb ff66     ....p.........f.
   10598:	ffe9 ffdd 0006 ffa2 ffdc fff5 0013 005d     ..............].
   105a8:	0036 00ce 010d 00dc 0150 0132 00ea 00e6     6.......P.2.....
   105b8:	00d8 00e1 00bf 0030 0008 0053 0058 0031     ......0...S.X.1.
   105c8:	ffd7 ffb0 0066 0044 ff89 ff97 fffc 0021     ....f.D.......!.
   105d8:	ff8c ffaf ff04 ffca fff2 ffc4 ff85 ffda     ................
   105e8:	002f 005c ffbd ff7f ffa2 ffb9 ff41 ff93     /.\.........A...
   105f8:	ffaf ff96 ff2f ff9e 001a ffd7 ff53 ffee     ..../.......S...
   10608:	004a 0049 007c ff63 ffc6 001e 00ab 001b     J.I.|.c.........
   10618:	0014 ffb1 00b8 00dd 003b ffe9 fffd 00aa     ........;.......
   10628:	00cf 000c ff3f 0040 0007 0013 ffaa ffd1     ....?.@.........
   10638:	000f 0084 007a 0086 0030 ff98 00a8 0040     ....z...0.....@.
   10648:	ffd8 ffc5 ffe1 ff9d 0039 0019 ff59 ff92     ........9...Y...
   10658:	0023 00d7 0016 fffd 0015 004d 0077 0046     #.........M.w.F.
   10668:	0006 ffbd fffb 00a6 006b ffa3 ffcb 0086     ........k.......
   10678:	0076 0031 ffc7 ffd1 0041 0023 ffd8 ff9f     v.1.....A.#.....
   10688:	ff6b ffd4 ff72 ff41 ff55 ff58 ff54 ff83     k...r.A.U.X.T...
   10698:	ffde ffe1 ff83 ff4a ffa0 ffec ff8b ff7d     ......J.......}.
   106a8:	ff83 0021 0095 fff8 ff9b 0034 009b 0081     ..!.......4.....
   106b8:	0026 002b 0096 006a 004e 0018 0013 ffde     &.+...j.N.......
   106c8:	0017 0029 0023 0025 004d 0079 003b 0056     ..).#.%.M.y.;.V.
   106d8:	0020 0008 ff9a ffac ffc3 ffa7 ff38 ff69      ...........8.i.
   106e8:	ffd8 ffba 0028 ffc9 009a 008f 0047 fff5     ....(.......G...
   106f8:	0013 003e 0070 008b ffd3 003d 0028 005a     ..>.p.....=.(.Z.
   10708:	005e 0012 0023 0081 fffd ffc4 ffcd ffa0     ^...#...........
   10718:	ffdd ff41 ffb0 ff6d ffb8 ffdb ff5a ff80     ..A...m.....Z...
   10728:	fff3 ffe8 0003 ffd7 fff9 00c3 00a9 0023     ..............#.
   10738:	0036 0056 00f5 0061 ffee 0030 00bc 007e     6.V...a...0...~.
   10748:	0058 0010 ffd4 001b 0090 0032 ffdf fff0     X.........2.....
   10758:	0016 0063 ffcf ffe1 ff6b ffce 0028 ffa5     ..c.....k...(...
   10768:	ff8f 0030 0071 ffd8 fff3 fff8 005b fffe     ..0.q.......[...
   10778:	ffe7 fff7 ff8a ff34 ffcf ff6c ff4d ff53     ......4...l.M.S.
   10788:	ff64 ff47 ff9f ffd4 ffb7 0039 0019 0023     d.G.......9...#.
   10798:	007e 0047 0005 000c 003f 0033 ffd8 ffaf     ~.G.....?.3.....
   107a8:	fffe 004c 0019 001d 0017 ff8f 0014 ffa1     ..L.............
   107b8:	ff6b ff93 ff3f ff91 ff60 ff88 ffb7 ff9a     k...?...`.......
   107c8:	ffd0 0081 0015 0079 00b5 00cd 00d5 00ea     ......y.........
   107d8:	010c 012b 00e3 00a4 00f3 00be 0068 ffcd     ..+.........h...
   107e8:	006f 000b ffaa ffb9 ffbf ffbc ffd7 ff50     o.............P.
   107f8:	ffcc fff9 ff61 ff7b ff8f ffc7 ffce ffbe     ....a.{.........
   10808:	ff79 ffc3 001c 0018 0033 004f 001e 0043     y.......3.O...C.
   10818:	0066 0014 ffca 0023 003a fff0 ffca 000e     f.....#.:.......
   10828:	fff9 0040 0003 ffbd ffe4 0006 0010 ffbf     ..@.............
   10838:	ffe4 0009 0051 0043 006d 0049 003e 0025     ....Q.C.m.I.>.%.
   10848:	0040 0071 fff3 fff4 fff3 001c 0005 fff2     @.q.............
   10858:	ff9a ff4f ffcf 0012 ffb8 ff85 ffc0 ff9a     ..O.............
   10868:	004a ff9f ffb9 ffa4 ffcc 0000 ff90 ffa5     J...............
   10878:	ff6c 0032 fff3 0025 000f 006d 0095 008c     l.2...%...m.....
   10888:	003f 0036 0090 0054 0016 ffea 001f 0049     ?.6...T.......I.
   10898:	fffb ffd4 ffc2 ffa4 ffe0 ffbe ffa3 ffc4     ................
   108a8:	ffc1 ffc1 ff97 ffc5 ff92 ffdd ffb6 ffc5     ................
   108b8:	ffa7 ffd9 0036 0030 fff8 0002 ffbc 000d     ....6.0.........
   108c8:	fffa ffea fff3 0008 ffd6 0039 000b ffbb     ..........9.....
   108d8:	0015 0069 0025 0056 0071 002f 00a8 0075     ..i.%.V.q./...u.
   108e8:	00a1 00c4 0067 003a 00ef 0055 0034 0082     ....g.:...U.4...
   108f8:	0045 0069 001d 0053 0054 0088 006f 0098     E.i...S.T...o...
   10908:	ffe0 0019 fff9 ffba ff99 ff62 ffd6 0004     ..........b.....
   10918:	ffd0 ff32 ff35 ff90 fffb ff94 ffc2 ff85     ..2.5...........
   10928:	ffc9 0038 0012 ff5f ff81 001a 000a ffbe     ..8..._.........
   10938:	ff8f ffcb 0019 fff2 ff90 ffa5 ff81 fff0     ................
   10948:	ffa2 ffd3 ff60 ffa3 fffe ffd1 ffcb ffc1     ....`...........
   10958:	ffa3 003e 0000 ffea 0074 001f 008d 0059     ..>.....t.....Y.
   10968:	00aa 0057 002f 0048 0095 0025 0042 0037     ..W./.H...%.B.7.
   10978:	003d 0046 fffe ffce ffd9 0003 006f 0039     =.F.........o.9.
   10988:	ffa4 0009 002d 004d fffd ffde 002e ffeb     ....-.M.........
   10998:	0019 ffe0 ffff ffbc 0029 004c 0021 0042     ........).L.!.B.
   109a8:	ffe0 002a 006a fffa ffb6 ffb2 0009 0040     ..*.j.........@.
   109b8:	ffb0 ff6a ffc6 ff98 0000 ffc2 ff52 ff8e     ..j.........R...
   109c8:	fffd ffc8 ffd8 ff8e ffd4 ffc6 0007 0055     ..............U.
   109d8:	ff5d ffdf 0027 ffeb ffd2 ffe9 ffdc ffdf     ]...'...........
   109e8:	0026 0023 ffe0 ffd2 0010 007f 0038 0000     &.#.........8...
   109f8:	000d 0067 007e 006e 003b 008e 0072 00ac     ..g.~.n.;...r...
   10a08:	00b8 0036 0069 0030 00be 0065 0075 ffea     ..6.i.0...e.u...
   10a18:	0037 0045 003e 0024 ffbc 000d 0015 0057     7.E.>.$.......W.
   10a28:	ff8e ffb6 ff94 ffa0 ffc6 ffbf ff90 ffd7     ................
   10a38:	ffd4 ff9f ffd8 0037 ffde ffe0 0051 0040     ......7.....Q.@.
   10a48:	0017 ffe3 ffc7 ff4b ff8f ffc1 ff54 ff3d     ......K.....T.=.
   10a58:	ffb4 ffb4 ff85 ff7a ff73 ffb8 000d 001f     ......z.s.......
   10a68:	fffe ffd7 0041 fffa fffb ffdf ffc9 0017     ....A...........
   10a78:	fff4 0034 0041 003b fffb 001e 0049 0068     ..4.A.;.....I.h.
   10a88:	0015 ffe4 fff6 ffbf ff9b ff7c ff8a ff83     ..........|.....
   10a98:	ffed 0006 ffe6 0000 005d 009a 00c9 006f     ........].....o.
   10aa8:	0040 007d 00f3 008b fff0 0049 0082 005a     @.}.......I...Z.
   10ab8:	0051 0083 ffcf 0075 0053 003c 0016 001d     Q.....u.S.<.....
   10ac8:	ffee ff73 0015 ff88 ff2d ff67 001d ffdd     ..s.....-.g.....
   10ad8:	fff5 0024 002f 004d 0059 0006 0018 003e     ..$./.M.Y.....>.
   10ae8:	000b 0013 0016 0028 0009 fffd fffb fff0     ......(.........
   10af8:	ffa1 ff6b ffdb fffe ffd1 ff64 ffd4 ffd3     ..k.......d.....
   10b08:	ffad ff94 ffbb ffe6 ffcf ffcf fff6 0026     ..............&.
   10b18:	0009 0000 ffeb 001f fff9 0000 ffc7 fffd     ................
   10b28:	0020 ffa5 ffe8 0019 ffda fffc ffdc ffb7      ...............
   10b38:	fff6 0005 fff3 ffbe 001a 0043 fffb 004f     ..........C...O.
   10b48:	003c 006c 006a 004f 0052 0052 007b 0053     <.l.j.O.R.R.{.S.
   10b58:	000d 0000 0016 0013 ffe9 ffe9 0030 004c     ............0.L.
   10b68:	0024 0012 fff6 ffe4 ffde ffc4 ff4c ff75     $...........L.u.
   10b78:	ff6c ffba ffd6 ff6b ffb9 0023 006b 002a     l.....k...#.k.*.
   10b88:	000f 0019 0049 0084 ff9f ff9c ffb7 ffc1     ....I...........
   10b98:	ffd7 fff0 003e ffec 0020 0012 fff1 ff70     ....>... .....p.
   10ba8:	ffc9 ffea ffbd ff89 ffb5 ffed ffad fff9     ................
   10bb8:	ffdd 003a 0043 0057 0021 0068 0083 0085     ..:.C.W.!.h.....
   10bc8:	0042 002b 0071 001e 00a1 0008 0016 000c     B.+.q...........
   10bd8:	0056 001b fffb ffe4 ffe3 0018 0020 ffe1     V........... ...
   10be8:	ffc2 003e 0065 0072 0005 0021 0047 00a4     ..>.e.r...!.G...
   10bf8:	0071 003d 006e 00b4 0093 0056 0050 0034     q.=.n.....V.P.4.
   10c08:	0047 001a 005b fffb ffdc ffbe 001f fff3     G...[...........
   10c18:	ff9b ff5f ff90 ffb4 ff11 ff09 ff48 ff6f     .._.........H.o.
   10c28:	ff4b feae fedb ff56 ff65 ff82 ff32 ff59     K.....V.e...2.Y.
   10c38:	ffe1 ffc9 ff9b ff63 ff9b ffbc ff9a ffc2     ......c.........
   10c48:	ffb5 ff60 000d fff9 001b fff9 0016 0049     ..`...........I.
   10c58:	004a 00a7 0061 0060 009a 00ac 0067 0088     J...a.`.....g...
   10c68:	0090 009c 008f 0094 010a 00f5 013f 0115     ............?...
   10c78:	00d2 006c 0081 003f ffb4 ff98 ffc5 ffc2     ..l...?.........
   10c88:	ff70 ffa3 ffc0 ffb5 ffd6 fff5 ffd8 005d     p.............].
   10c98:	0042 ffe9 001a 0053 000a ffce 001a 0025     B.....S.......%.
   10ca8:	003b 0082 007f 0038 fff2 0016 fffb ffb8     ;.....8.........
   10cb8:	ff51 ff22 ff42 ff7d ff36 feff ff5e ff88     Q.".B.}.6...^...
   10cc8:	ff98 ffab ffb7 0015 ffe5 fff8 0006 001d     ................
   10cd8:	fff4 ffed 0013 002c 001c 0010 003b 003a     ......,.....;.:.
   10ce8:	0012 0034 0059 0003 0014 0042 006d 0000     ..4.Y.....B.m...
   10cf8:	001b fff7 ffff ffef ffc9 ffe6 ffe6 ffe9     ................
   10d08:	ffe4 0022 fffc 001a 002c 004d 0043 0017     ..".....,.M.C...
   10d18:	0068 005f 0060 002d 002a ffde ffd9 0059     h._.`.-.*.....Y.
   10d28:	005e fff2 ffa2 fff6 0016 ffcd ff95 ffc8     ^...............
   10d38:	ffe8 0041 004b ffe7 fffa 0024 0054 0004     ..A.K.....$.T...
   10d48:	ffe0 0059 006b ffe3 fff4 006f 0054 0041     ..Y.k.....o.T.A.
   10d58:	002d 0046 0014 ffc6 ffb4 ffa3 ff71 ff14     -.F.........q...
   10d68:	ff15 ff40 ff37 ff19 ff15 ff25 ff5a ff67     ..@.7.....%.Z.g.
   10d78:	ff5f ff6d ff5c ffc4 0001 ffbf ffb8 0009     _.m.\...........
   10d88:	002a 0041 0040 0067 0069 00b2 008e 00cb     *.A.@.g.i.......
   10d98:	00f6 00c7 0069 0096 0091 007f 007f 0044     ....i.........D.
   10da8:	0028 003f 0073 002d fff8 fff1 0038 0009     (.?.s.-.....8...
   10db8:	ffd2 ff9c ffba fffc 001c ffd4 ffbc 0008     ................
   10dc8:	0071 0079 0017 0029 005e 00a1 003c ffcd     q.y...).^...<...
   10dd8:	ffe0 005b 0035 ffd9 0005 ffd5 0030 ffd6     ..[.5.......0...
   10de8:	0033 0015 ff9e ffd3 001c 0023 ffab ffda     3.........#.....
   10df8:	fff5 0025 ffe7 ffc8 ffdb ffda 003e ffba     ..%.........>...
   10e08:	ffb2 ffc8 fff9 ffc9 ffed ff9c ffbd ff96     ................
   10e18:	ffe5 ffb7 ffa0 ff9a ff99 ff85 ff69 ff91     ............i...
   10e28:	ff71 ffe9 0022 003b 0063 007e 006b 0050     q...".;.c.~.k.P.
   10e38:	001d 001d 0027 0014 000a 0048 0075 0028     ....'.....H.u.(.
   10e48:	0074 0093 0095 0066 0048 0018 006d 0005     t.....f.H...m...
   10e58:	ff9b ff8c ff8f ff94 ff9b ffca ffd0 ffc2     ................
   10e68:	ffe8 ffe7 ffd9 ffd3 0016 ffe4 ffe8 ffa7     ................
   10e78:	ffcd ffc5 0025 ffff ffe1 003d 005d 0047     ....%.....=.].G.
   10e88:	0029 0048 0017 001d fffb 001a ffe2 0013     ).H.............
   10e98:	ffe1 ffb8 ffdb 0010 0002 ffb9 ffd4 fffb     ................
   10ea8:	0003 0002 fff2 ffc6 000e 000d 0015 0029     ..............).
   10eb8:	0041 005c 0063 0031 0029 0015 0017 0021     A.\.c.1.).....!.
   10ec8:	004d 006a 0016 0001 ffd1 003e 0070 0021     M.j.......>.p.!.
   10ed8:	0012 0004 001c fffe fff3 ffa4 ffff 0000     ................
   10ee8:	0001 ffb8 ffba ffaf ffcd ffc5 ff61 ffb1     ............a...
   10ef8:	ffbf ffbc ff7c 0011 ffc0 fffc ffee 000f     ....|...........
   10f08:	0042 0007 0081 0035 0023 fffe 0000 0030     B.....5.#.....0.
   10f18:	0012 ffb7 ffb9 002d 0034 0023 0035 001a     ......-.4.#.5...
   10f28:	0047 0065 0076 003e ffd9 fff0 0020 003c     G.e.v.>..... .<.
   10f38:	0035 ffe8 002f 004e 008c 0027 ffe3 0042     5.../.N...'...B.
   10f48:	0059 0054 002d ffee fffa 004c 0019 ffb7     Y.T.-.....L.....
   10f58:	ff73 ffb0 ffa8 ffbb ff56 ff4a ff70 ff62     s.......V.J.p.b.
   10f68:	ff94 ff76 ff7b ff77 ffdb ffbf ffb8 ffa5     ..v.{.w.........
   10f78:	ff7c ffef 0006 ffdd ffc7 0005 002b ffb9     |...........+...
   10f88:	ffa2 0007 0039 ffe8 0035 0079 0061 0031     ....9...5.y.a.1.
   10f98:	ffe9 0016 003f 0038 fff6 002c 0023 0042     ....?.8...,.#.B.
   10fa8:	003a 005b 0056 0043 0081 0014 0012 001a     :.[.V.C.........
   10fb8:	004d 000d ffd9 0016 0068 0071 0013 0036     M.......h.q...6.
   10fc8:	004a 008b 00c0 002b 003e 0039 004a 004f     J.....+.>.9.J.O.
   10fd8:	0027 ff6b ffb1 ffc9 0005 ffa7 ffa7 ffd5     '.k.............
   10fe8:	ffa9 ffc6 ffe9 ffd2 ff7c ffb7 ffc7 ffc7     ........|.......
   10ff8:	ffb7 ffc0 ffab ffaa ffbe 0017 ffe3 ffd7     ................
   11008:	004b 0005 ffdf 001a 0000 fffa 0011 001b     K...............
   11018:	0004 0009 000c fffb ffd1 fffc ffdd 000c     ................
   11028:	003c ffe0 001e 002e 007b 0075 007a 0044     <.......{.u.z.D.
   11038:	0019 002d 001d ffc4 ffc9 ffd3 ffdf 006b     ..-...........k.
   11048:	0011 002a 0040 0067 fff9 0045 0065 0038     ..*.@.g...E.e.8.
   11058:	0030 fff3 fff5 ffc9 ffda ffaa ffc8 ffe0     0...............
   11068:	ffa8 ffc5 ffb2 ffbf ff90 ff8d ffd4 ffd5     ................
   11078:	ffc9 ff6d ff99 fffe 0021 fffc ffec ffd2     ..m.....!.......
   11088:	0008 fff5 fff7 ffd2 ffc4 ffec fff9 000f     ................
   11098:	0024 0054 ffd5 0031 0019 fffe ffc7 0029     $.T...1.......).
   110a8:	ffe4 fff2 000b 0012 0031 003d 0020 fff6     ........1.=. ...
   110b8:	0009 006f 0015 ffd0 0007 002f fff4 001a     ..o......./.....
   110c8:	0026 0001 fffc ffc8 ffe0 ffbb ffc3 ff97     &...............
   110d8:	ffd6 ffc8 001f ffd7 ff99 0008 fffb 0005     ................
   110e8:	0029 0036 0030 0065 0056 0082 0078 0072     ).6.0.e.V...x.r.
   110f8:	0082 0060 0077 00b1 00b4 0045 0086 008b     ..`.w.....E.....
   11108:	0040 002d 0042 ffe0 ffd8 ffce ffd1 ffce     @.-.B...........
   11118:	ffa9 ff96 ff80 ff8a ffcd ffdc ffcc ff83     ................
   11128:	ffe9 fff6 001c ffd3 000d 0011 0039 0032     ............9.2.
   11138:	ffdb fff8 0013 0013 ffe5 0021 fff5 ffe6     ..........!.....
   11148:	ffd4 ffc6 ffdd 0008 0004 ffd6 ffdf ffbf     ................
   11158:	ffc2 ffc6 ff9e ffa3 ff64 ffb9 ff6e ffa5     ........d...n...
   11168:	ffb9 ff94 ffac ffdd ffbd ffb6 ffdb ffd7     ................
   11178:	ffd1 ffb5 0043 ffd9 003e 0042 006f 006a     ....C...>.B.o.j.
   11188:	007e 0065 007b 004c 0041 0056 003f 0050     ~.e.{.L.A.V.?.P.
   11198:	004d 0057 002a 006a 0026 0002 ffe9 002d     M.W.*.j.&.....-.
   111a8:	0066 0003 0038 0024 0031 fffb 0013 000c     f...8.$.1.......
   111b8:	0015 000f 000c ffeb 003b 002a ffdb ffe3     ........;.*.....
   111c8:	002b fff3 fff9 ffee ffe3 ffbc ffba fff8     +...............
   111d8:	ff90 ff7e ff9b 0020 fff0 0008 ffb7 0015     ..~... .........
   111e8:	0005 0002 ffd7 ffe8 fffc fffa fffd 000a     ................
   111f8:	0018 0034 002c 0028 0037 0004 0002 ffc6     ..4.,.(.7.......
   11208:	ffe5 ffbe ffe3 ffcb ff9e ffd6 ffff ffea     ................
   11218:	0004 0039 0007 0025 001d 0008 0004 0008     ..9...%.........
   11228:	001e 001e 002a 0012 0007 001d 0017 000b     ....*...........
   11238:	fffe ff9d 003b 0017 ffcc ffe6 0003 0021     ....;.........!.
   11248:	0040 001f ffd0 0015 0054 001d 0032 0048     @.......T...2.H.
   11258:	006d 0031 0039 000c 0014 0026 0001 001c     m.1.9.....&.....
   11268:	0002 0018 ffea fff1 fff4 ffed 0003 ffcd     ................
   11278:	ffa6 ffe9 ffbd ff7f ff9a ff9f ffc7 ff8b     ................
   11288:	ff9c ff9f ffdd ffc7 ff80 ffa3 ffc0 ffb0     ................
   11298:	ff87 ffbd ffd7 ffde ff91 ffb8 ffc3 ff91     ................
   112a8:	ffcb ffbb ffe3 fff9 fff7 0003 0021 001d     ............!...
   112b8:	007a 006d 00a1 005d 006b 00a2 009f 009a     z.m...].k.......
   112c8:	0086 00ac 009d 009b 007e 009e 0074 006c     ........~...t.l.
   112d8:	0058 007e 005d 0033 004c 001e 0012 ffd5     X.~.].3.L.......
   112e8:	0006 000e 000c fffd ffc4 ffff fff9 ffbf     ................
   112f8:	ffa4 ffaa ffdc fff2 ffde ffa6 ffc9 ffe0     ................
   11308:	ffdb ffc6 ffc9 ffdf ffde ffb4 ffce ffcf     ................
   11318:	ffd4 ffec ffbc ffdf ffe0 ffea ffc3 ffc7     ................
   11328:	ffe3 ffe1 fff6 fff8 000a ffed ffe0 ffd6     ................
   11338:	ffc4 ffbc ffd3 ffd4 ffdd ffda 0001 001f     ................
   11348:	ffbb ffec 0033 ffe5 ffe4 ffb8 ffcb ffc5     ....3...........
   11358:	ffa6 ffb6 ffb9 fff9 fffc fff0 0001 0052     ..............R.
   11368:	002f 0061 0076 007c 0076 00a7 0096 0089     /.a.v.|.v.......
   11378:	006b 0083 0050 005a 0042 0013 002b 0015     k...P.Z.B...+...
   11388:	0018 0010 001a 0002 000f ffda fff5 ffbc     ................
   11398:	ffc3 ff99 ffb5 ff82 ffaa ff8d ffaa ffe3     ................
   113a8:	ffc2 ffd2 0010 0054 0021 0028 003c 0040     ......T.!.(.<.@.
   113b8:	fff8 fffe 0005 0002 fff7 ffc8 ffd1 fff4     ................
   113c8:	000e ffda fff1 ffea 0001 ffce ffdf ffc2     ................
   113d8:	ffb0 ffdb ffdf ffc7 ffb3 0010 ffd5 fffb     ................
   113e8:	0025 002a 0021 002e 0043 003d 002c 0041     %.*.!...C.=.,.A.
   113f8:	0072 0020 004b 0042 007d 0056 0025 0055     r. .K.B.}.V.%.U.
   11408:	004a 000c 0034 0027 002d 0016 ffe6 ffd5     J...4.'.-.......
   11418:	ffd2 ffd0 ffb5 ffcc ffdd ffc3 ffe8 ffe9     ................
   11428:	ffdf ffea fffc ffce ffea ffcf ffc8 fff5     ................
   11438:	ffcb ffa2 ffd4 ffd8 ffbf ffef ffd0 ffb8     ................
   11448:	ffc7 ffbb ff92 ffcc 0006 ffea 0028 002f     ............(./.
   11458:	0009 002c 005a 0035 0040 001c 0011 fff4     ..,.Z.5.@.......
   11468:	0006 001c ffff 000e ffa6 fff4 001a 0024     ..............$.
   11478:	fffb 002c 0030 0058 003d 0071 004c 0057     ..,.0.X.=.q.L.W.
   11488:	006a 001c 0049 0066 0091 0097 0061 003e     j...I.f.....a.>.
   11498:	0069 001e 0001 ffd3 ffe7 ffce ff89 ffa9     i...............
   114a8:	ff70 ff5c ff82 ff82 ff83 ff8a ff7b ff8a     p.\.........{...
   114b8:	ffd6 ffbc ff7d ffa7 0011 ffe2 ffc6 0020     ....}......... .
   114c8:	0047 0039 0058 0062 004e 001a 000f 003c     G.9.X.b.N.....<.
   114d8:	0049 002d 0005 0023 0018 0015 ffd6 ffdc     I.-...#.........
   114e8:	ffc3 0014 ffb9 ffa4 ffb4 ffd2 ffb2 ffaa     ................
   114f8:	ffd7 ffde 000b ffe7 0023 0018 005f 0025     ........#..._.%.
   11508:	0016 001b 0061 0051 002a 001d 003d 0062     ....a.Q.*...=.b.
   11518:	0029 0014 0009 0039 0059 0005 fff1 fff0     ).....9.Y.......
   11528:	ffed ffd0 ffc1 ffc8 ffbc ffde ffc4 ffc4     ................
   11538:	ffb5 fff4 ffd3 001c fffa 001d 0017 0001     ................
   11548:	001a 000a 0055 003f 0062 006c 001d 0011     ....U.?.b.l.....
   11558:	0063 0035 0007 004c fffc 0036 0001 ffe7     c.5...L...6.....
   11568:	ffe0 ffdc fff9 ffe4 0010 fff8 0020 001f     ............ ...
   11578:	0021 ffdc ffdb 0003 ffd4 ffdc ffe6 ffb5     !...............
   11588:	ffa9 ffb6 ffba ff95 ff7d ffbc ffc9 ffb5     ........}.......
   11598:	ffc2 ffd8 ffe5 ffd1 0001 0005 000d ffd6     ................
   115a8:	000f fffa ffd4 0015 002f 0064 0032 0015     ......../.d.2...
   115b8:	001d 0049 fff7 0005 fff5 001b 0036 0024     ..I.........6.$.
   115c8:	0040 000c fff8 001d 000c ffe8 000e fffe     @...............
   115d8:	0044 000f ffdc 001b 002a fffe 004e 0052     D.......*...N.R.
   115e8:	0028 0035 0066 006f 0034 0028 0039 004f     (.5.f.o.4.(.9.O.
   115f8:	003e 0001 0019 0026 0011 0033 0010 ffcc     >.....&...3.....
   11608:	ffee ffd0 ffa6 ffae ff7a ff8c ffb8 ffa6     ........z.......
   11618:	ffd0 0009 ffcb 0013 ffea ffda ff9e ffb2     ................
   11628:	fff0 ffb5 ffd5 ffc4 0026 0010 ffe0 ffbc     ........&.......
   11638:	fff6 ffcc ffdc fff6 ffc3 ffcf 0006 ffd5     ................
   11648:	ffba 0000 001a 003c 001b 001c 002f 003a     ......<...../.:.
   11658:	0009 ffe2 005f 0037 0042 001e 008e 0010     ...._.7.B.......
   11668:	fff4 002f fff7 ffc3 ffd1 000a ff6c ff99     ../.........l...
   11678:	ffa2 ffe9 ffc8 0000 0031 0081 002f 0073     ........1.../.s.
   11688:	00a5 0039 0041 003a 0041 0047 0077 0074     ..9.A.:.A.G.w.t.
   11698:	0077 0040 0049 0004 0017 ffee ffce 0004     w.@.I...........
   116a8:	ffd1 ffa0 ff8f fff3 ffd7 ffb2 ffa4 fff2     ................
   116b8:	fff4 ffef 0020 fffe 0042 0039 001a 001d     .... ...B.9.....
   116c8:	0015 0020 ffee 0011 0003 ffed ffdf ffe3     .. .............
   116d8:	ffca ff84 ff86 ff70 ffa0 ffa9 ff86 ff4b     ......p.......K.
   116e8:	ff82 ffa3 ff93 ffa0 fffa 000a ffe3 fff4     ................
   116f8:	001e 0021 004d 0079 002f 0009 0034 0033     ..!.M.y./...4.3.
   11708:	002f 004e 001f 0028 003f 003e 0035 001d     /.N...(.?.>.5...
   11718:	005b 0037 fff8 ffed 000e fff2 ffb5 ffd3     [.7.............
   11728:	ffc6 ffb8 ffc9 ffc4 000d 000f 0029 0019     ............)...
   11738:	0019 005d 0061 0053 0056 0082 0066 009f     ..].a.S.V...f...
   11748:	006a 0052 0084 0074 004e 003d 0022 0001     j.R...t.N.=."...
   11758:	ffeb ffc7 ffae ff86 ffc9 ffc8 ff91 ff7b     ..............{.
   11768:	ff8e ff7c ff8d ffae ffbd ffc3 ffc6 ffb9     ..|.............
   11778:	ffd0 ffc3 ffb4 ffff fff1 0009 001b 0035     ..............5.
   11788:	0071 0048 0051 0069 006c 006b 006e 0035     q.H.Q.i.l.k.n.5.
   11798:	0082 005b 002f 002a 0027 001c fff2 0006     ..[./.*.'.......
   117a8:	0030 001e ffed ffd8 ffc0 fff5 ffac ff8a     0...............
   117b8:	ffbd ffbd ffb2 ff89 ff52 ff96 ff2c ff54     ........R...,.T.
   117c8:	ffc4 ff37 ffec ff5e ff81 ffd2 ffe9 ffe1     ..7...^.........
   117d8:	0023 00b4 0086 00c0 009c 007f 0094 008e     #...............
   117e8:	0089 006f 003a 0062 0046 0006 0011 001c     ..o.:.b.F.......
   117f8:	0068 0011 ffdf ffc9 ffc3 ffc7 ff6a ff96     h...........j...
   11808:	ff6e ff6e ff7e ff77 ffd2 ff8e ff97 ffba     n.n.~.w.........
   11818:	ffb3 ffc1 ffb8 000a 002b fff3 001d 0021     ........+.....!.
   11828:	002a 0037 0026 0058 002f 003b 004c 0039     *.7.&.X./.;.L.9.
   11838:	001a fff8 fff0 001d 0016 0048 0076 0085     ..........H.v...
   11848:	0044 002e 002e 005e 0063 005b 004b 006b     D.....^.c.[.K.k.
   11858:	008a 004e 0042 004d 0048 0009 0006 0032     ..N.B.M.H.....2.
   11868:	000b ffd4 0010 fff8 0018 002f ffcd 0024     ........../...$.
   11878:	0036 fff7 ffca fff8 ffe0 ffe2 ffd9 ffea     6...............
   11888:	fff5 001e 002c 0019 fffa ffb2 ffc3 fff1     ....,...........
   11898:	ff72 ff85 ffcc ff77 ff84 ffab ff82 ff99     r.....w.........
   118a8:	ffba ffaa ffa0 ffc1 ffa0 ffc5 ffbe ffc0     ................
   118b8:	ffda 004c 0016 ffe4 005b fffc fff6 004f     ..L.....[.....O.
   118c8:	fff8 ffcb fffa ffc9 0004 ffa8 ffce 000f     ................
   118d8:	0000 ffff ffeb 0006 fff5 fff3 ffcc ffd0     ................
   118e8:	ffc9 ffd5 ffd1 fffd 0018 ffef 0045 0050     ............E.P.
   118f8:	0044 0043 0014 0023 ffe5 002d 0003 ffd6     D.C...#...-.....
   11908:	0009 fffc fffa fffd 000f 0030 0007 ffd6     ..........0.....
   11918:	0010 0016 0016 0003 fff2 0011 0045 0065     ............E.e.
   11928:	004e 008c 00de 00a3 00b8 00cf 0096 0096     N...............
   11938:	008b 007a 00af 0099 0090 0052 008f 0041     ..z.......R...A.
   11948:	0057 0062 0051 ffff ffc8 ffca ffc4 ffb6     W.b.Q...........
   11958:	ff62 ff75 ff7c ff93 ff4a ff8f ff3c ff5e     b.u.|...J...<.^.
   11968:	ff47 ff71 ff41 ff52 ff68 ff95 ffcf ff70     G.q.A.R.h.....p.
   11978:	ffba ffb9 ffd6 ff8a ffdc ff75 ff8b ffac     ..........u.....
   11988:	ff8c ff58 ffa6 ffc6 ff87 ffe0 ffaa ffce     ..X.............
   11998:	0006 ffae ffc0 ffd7 ffc2 fff0 ffe3 000e     ................
   119a8:	002c 0009 006e 0087 0052 008f 0054 0064     ,...n...R...T.d.
   119b8:	00ae 007e 0075 00bd 008c 0093 00b4 00d5     ..~.u...........
   119c8:	00a7 00b8 00bb 00a1 00c5 009a 007b 008f     ............{...
   119d8:	0095 00b5 009d 0083 0086 0058 006c 005b     ..........X.l.[.
   119e8:	001b ffd6 fffa ff87 ff34 ff57 ff10 ff20     ........4.W... .
   119f8:	ff27 ff09 feef ff0d feda fef2 ff26 ff40     '...........&.@.
   11a08:	ff20 ff60 ffb2 ff96 ffc2 ffe6 0007 fff4      .`.............
   11a18:	0002 0012 003b 002b 002e 0005 002c 0022     ....;.+.....,.".
   11a28:	ffb6 ffed 0014 fffe ffeb ffd9 fff1 001f     ................
   11a38:	0009 0030 0003 002d 0058 0069 005e 0082     ..0...-.X.i.^...
   11a48:	0050 0057 0045 0071 0056 0087 009a 009b     P.W.E.q.V.......
   11a58:	0051 0085 00aa 00b6 0086 0030 004c 0004     Q.........0.L...
   11a68:	fffb ffe3 0019 ffa7 ffce 0009 ffcc ffc3     ................
   11a78:	ffa5 ffd3 ffc7 0003 ff92 ffc5 ffa2 ffc2     ................
   11a88:	ff9b ff97 ffb0 ff80 ff8c ff70 ff78 ffb1     ..........p.x...
   11a98:	ffac ff79 ffa9 ff59 ffa0 ff9d ffb5 fff3     ..y...Y.........
   11aa8:	fffb 0028 001c 0023 0021 0063 009c 00c8     ..(...#.!.c.....
   11ab8:	005f 006b 0098 00a5 0093 0036 0091 008c     _.k.......6.....
   11ac8:	004f 0030 0051 0006 ffd5 ffb7 ffc3 ff9d     O.0.Q...........
   11ad8:	ffb4 ff98 ff88 ffdb ffca ffc0 ffc1 ffbe     ................
   11ae8:	ffda 0017 ffbb ffed 0000 003f 0001 005d     ..........?...].
   11af8:	0045 003b 004f 0064 0051 0066 0064 0069     E.;.O.d.Q.f.d.i.
   11b08:	0022 001f 000d ffd1 ffcf ffca ffa2 ff3f     ".............?.
   11b18:	ff88 ff48 ff4f ff75 ff83 ff4a ffbf fffa     ..H.O.u...J.....
   11b28:	ffa7 ffd8 fffa ffd5 ffc5 0000 ffd9 0005     ................
   11b38:	0014 fff5 0025 0046 006f 0043 0065 006a     ....%.F.o.C.e.j.
   11b48:	004c 005f 004e 0036 0040 0037 001e 0074     L._.N.6.@.7...t.
   11b58:	0048 0057 0063 003d 0060 007c 007e 006a     H.W.c.=.`.|.~.j.
   11b68:	0073 0086 0085 0074 0076 0028 0059 0064     s.....t.v.(.Y.d.
   11b78:	ffdf 001a fffb ffd7 fff9 ffaa ffb6 ffb2     ................
   11b88:	ff8d ff98 ff69 ff49 ff65 ff42 ff63 ff55     ....i.I.e.B.c.U.
   11b98:	ff6d ff6e ffa4 ffa7 ff80 ffaa 0000 ffd6     m.n.............
   11ba8:	ffc3 ffc8 fff0 ffc4 ffd7 ffc4 fff3 ffff     ................
   11bb8:	0009 0021 fff9 0014 001b 0048 004c 008a     ..!.......H.L...
   11bc8:	00a0 009f 00a5 0097 0075 0074 0074 0059     ........u.t.t.Y.
   11bd8:	0042 0064 0029 ffe8 ffc9 ffd9 ffbb ff7a     B.d.).........z.
   11be8:	ffa5 ffc7 ffc1 ffbd ff8f ff75 ffb6 ff8d     ..........u.....
   11bf8:	ffb0 ffc6 ffe8 0035 002c ffea 0067 007f     ......5.,...g...
   11c08:	0067 005c 0087 00c3 00be 00b5 006e 005b     g.\.........n.[.
   11c18:	0002 001a ffcc ffac ff92 ff84 ff62 ff31     ............b.1.
   11c28:	ff43 ff3a ff18 ff0b ff52 ff32 ff73 ff9d     C.:.....R.2.s...
   11c38:	ffaf ffe2 0002 000f 003c 009a 003c 00a4     ........<...<...
   11c48:	00b6 00fc 00d0 00d7 00d5 00ff 00f6 00bb     ................
   11c58:	00d8 00b0 0079 0027 0027 0040 ffd8 ffec     ....y.'.'.@.....
   11c68:	fff5 0002 ffd5 ffd0 ff6f ff93 ffb9 ffc9     ........o.......
   11c78:	ffbd ff93 ff93 ffdd ff9c ffb3 ffb5 ffaf     ................
   11c88:	fff9 ff9b ffb9 ffd9 ff90 ffd5 ffb4 ffc4     ................
   11c98:	ffb3 ffa6 ffd1 fffd ffbb ffc2 ffda ffd7     ................
   11ca8:	0004 ffe0 ffce ffc3 ffd7 0008 fff0 0007     ................
   11cb8:	ffe4 000c 001a 002a 002b 0050 003b 003e     ......*.+.P.;.>.
   11cc8:	009f 008a 0085 0061 0075 0057 007b 0057     ......a.u.W.{.W.
   11cd8:	007c 0071 0047 007d 0091 0048 ffff 0031     |.q.G.}...H...1.
   11ce8:	0017 fff9 ffc7 ffe5 ffff ffb7 ff98 ffdd     ................
   11cf8:	ffe1 ff98 ffa0 ffb4 ffa1 ff87 ffb3 0005     ................
   11d08:	ffb5 ffd6 ffe0 ffca ffc1 fffc 0022 004e     ............".N.
   11d18:	004d 0051 0043 0013 002e 002f 0017 0001     M.Q.C...../.....
   11d28:	ffed ffe1 ff99 ffb2 ff8e ff8b ffc3 ff96     ................
   11d38:	ffb5 ff4f ff6a ff84 ff62 ff5c ff62 ff48     ..O.j...b.\.b.H.
   11d48:	ff53 ff7e ff93 ffa0 ffac 000f 0017 0050     S.~...........P.
   11d58:	005f 0093 00a5 00b5 00a8 00ff 0116 00dc     _...............
   11d68:	00fc 00dd 00e7 00b8 0099 008f 003e 0040     ............>.@.
   11d78:	0065 0029 0040 002d 0020 0004 001f 001a     e.).@.-. .......
   11d88:	fffe fff4 0002 fff2 fff9 ffda ffcc ffe0     ................
   11d98:	ffcf ffe0 ffb0 ffe7 ffb3 ffd6 ffb4 ffa1     ................
   11da8:	ffad ffa2 ff91 ffb8 fffb ffd1 ffb8 ffab     ................
   11db8:	0010 ffc1 ffc6 ffe4 ffb4 ffdf ffc8 ffdb     ................
   11dc8:	0008 0018 ffc7 ffe2 ffd8 fffc ffdc 0023     ..............#.
   11dd8:	fff5 ff8c ffac ff94 ffe3 ffc2 ffbb ffe7     ................
   11de8:	ffc5 ffde ffe4 ffed 0001 fff1 ffe1 0036     ..............6.
   11df8:	0004 0021 ffed 001c 0031 0036 0062 005e     ..!.....1.6.b.^.
   11e08:	0088 0091 00a1 009f 00ad 00a7 00bc 00a7     ................
   11e18:	006f 0073 0088 fffa fff9 ffd3 ffb7 ffc9     o.s.............
   11e28:	fff5 ff8e ffbc ffb1 ffa0 ffaf ffd6 ffbf     ................
   11e38:	ff93 fff8 fffc 000b 0007 002e 0030 0013     ............0...
   11e48:	fff3 003c 0050 0037 0020 ffab ffab ff8a     ..<.P.7. .......
   11e58:	ff53 ff25 ff4e ff29 ff34 ff86 ffa7 ff87     S.%.N.).4.......
   11e68:	ff88 ff88 ffa2 ffbe ffd8 0008 0012 0012     ................
   11e78:	0057 006e 0094 005e 00c9 0085 008a 006a     W.n...^.......j.
   11e88:	0059 00c1 008d 0085 007e 008e 0061 0076     Y.......~...a.v.
   11e98:	0025 004f 005f 0038 000c 001f 0072 ffd3     %.O._.8.....r...
   11ea8:	003c 0017 003f 0052 007b 0007 007d 005b     <...?.R.{...}.[.
   11eb8:	001f 004d 002b 005c 0019 0022 0033 fffe     ..M.+.\...".3...
   11ec8:	ff85 ffbb ffb6 ff8a ff68 ff76 ff67 ff61     ........h.v.g.a.
   11ed8:	ff64 ff42 ff38 ff4c ff3a ff71 ff75 ff62     d.B.8.L.:.q.u.b.
   11ee8:	ffae ffb0 ffb5 ff5f ffc2 ffc1 ffab ff9a     ......_.........
   11ef8:	001c 0010 0002 ffd9 000a fff9 0005 0008     ................
   11f08:	ffe1 0025 ffe6 ffdd fff9 0014 0033 0030     ..%.........3.0.
   11f18:	ffd4 0010 0048 004e 0048 001b 0041 0083     ....H.N.H...A...
   11f28:	00a7 0079 006f 001d 004c 0055 001e 0041     ..y.o...L.U...A.
   11f38:	003e 0021 0072 008f 0012 0016 0006 0020     >.!.r......... .
   11f48:	ffe0 ffda fff1 0018 003e 0006 0045 002f     ........>...E./.
   11f58:	0054 0075 006b 005a fff8 ffd1 000b ffce     T.u.k.Z.........
   11f68:	ffb0 ff9d ff7c ff7d ffae ffa3 ff57 ff81     ....|.}.....W...
   11f78:	ff81 ff79 ffa0 ff65 ff9d ffdd ffe0 ffb1     ..y...e.........
   11f88:	ffe7 ffee fff4 0000 0041 0047 0061 0078     ........A.G.a.x.
   11f98:	0082 00ad 0043 0057 0041 0077 004b 003d     ....C.W.A.w.K.=.
   11fa8:	0046 0019 0020 0005 001c ffec 000f ffbd     F... ...........
   11fb8:	fff6 fff1 ffea 000d ffcb ffb8 ff8d ffb2     ................
   11fc8:	ff9f ff82 ff90 ffe1 ffd9 ffbf ffeb ffde     ................
   11fd8:	ffcd ffb9 ffef ffef 006d 0053 00fa 00fb     ........m.S.....
   11fe8:	00fa 00d4 00cc 008d 0068 00a1 006f 007e     ........h...o.~.
   11ff8:	0092 006f 0069 0096 00b1 0085 003b 0024     ..o.i.......;.$.
   12008:	0003 ffb1 ff82 ff39 fef9 fee2 fe88 fe39     ......9.......9.
   12018:	fe4d fe79 fe5f fe8f feb4 ff07 ff05 fee2     M.y._...........
   12028:	ff25 ff0a ff24 fef7 ff3f ff55 feef feef     %...$...?.U.....
   12038:	0019 0075 feaf fe80 ff4a 0025 fee4 fe51     ..u.....J.%...Q.
   12048:	fe57 ff4e ffd2 fef7 feb3 ff3f 0019 005e     W.N.......?...^.
   12058:	ffc2 ffed 0085 01cc 020d 0214 00cd 031c     ................
   12068:	04dc 0347 035a 0108 04e7 085d 0662 0592     ..G.Z.....].b...
   12078:	03f0 0379 057f fff7 0590 015f ff8f 0070     ..y......._...p.
   12088:	011a 045f 03f9 0169 044b 0c13 0801 0358     .._...i.K.....X.
   12098:	0093 fdfd fcd5 fa11 f847 f882 fae4 fac5     ........G.......
   120a8:	facb fb45 fbf1 fc33 feb9 fdcd fcfd fccc     ..E...3.........
   120b8:	fc19 fa0d f948 f7b5 f5b5 f7dd f91d fb9e     ....H...........
   120c8:	fe4f ffdb 00b4 0216 02f8 00f4 01a5 0095     O...............
   120d8:	fed0 fe5f fe47 fd38 fe54 ffdd 0161 0317     .._.G.8.T...a...
   120e8:	03ae 0374 065c 07c5 0785 06e9 079b 0748     ..t.\.........H.
   120f8:	08b4 082f 0711 05f9 06c7 0526 04b1 03f7     ../.......&.....
   12108:	01fe 00b2 ffd2 fcd0 faa4 f880 f5a8 f30e     ................
   12118:	f2ba f184 f0a9 f04d ef4c ee7b f032 f0d3     ......M.L.{.2...
   12128:	f03c f11f f2d9 f4f2 f8e6 fd09 02c7 0eba     <...............
   12138:	171c 1d3c 1df2 1b79 155e 1259 0cf9 08df     ..<...y.^.Y.....
   12148:	05b1 0425 01d7 0431 04d1 0523 0585 0620     ..%...1...#... .
   12158:	03b3 0418 0342 0141 0020 fe3b fb35 fb7f     ....B.A. .;.5...
   12168:	fd54 fe46 014d 0551 07d8 0f44 15f0 161b     T.F.M.Q...D.....
   12178:	13b3 0e12 065c 004e fc82 f64f f30b f294     ....\.N...O.....
   12188:	f2ca f31d f470 f0d9 ec6f e910 e68d e51c     ....p...o.......
   12198:	e5ad e607 e5bc e77a e7a2 e8f2 ea29 eec6     ......z.....)...
   121a8:	f219 f821 fb49 042d 1265 1ab7 206f 1d65     ..!.I.-.e...o e.
   121b8:	1940 1203 1045 0a5a 0964 07bb 08c8 0750     @...E.Z.d.....P.
   121c8:	0b60 0b36 0ab5 0887 0749 0487 03a5 0115     `.6.....I.......
   121d8:	fe2b fd0c fadc f997 f94c fb5a fd9a 0061     +.......L.Z...a.
   121e8:	0203 0221 02f2 0345 032f 0283 0216 0179     ..!...E./.....y.
   121f8:	019d 0291 026b 023b 02df 033e 03a5 062b     ....k.;...>...+.
   12208:	082a 07a0 048e 0188 fcf0 fb3f fa3f fa02     *.........?.?...
   12218:	fafc fcdb fd77 fe6c ff14 fe31 fce5 fbee     ....w.l...1.....
   12228:	fa41 f8dd f951 f9a5 fb4c fcda fdae ff39     A...Q...L.....9.
   12238:	015e 0295 032a 0355 016c ffa0 fe57 fec4     ^...*.U.l...W...
   12248:	fee4 fece fd4e fd6a fce4 fc09 fb06 f985     ....N.j.........
   12258:	f7a2 f5c9 f5ff f5d1 f6ea f61b f48a f468     ..............h.
   12268:	f42c f567 f5fc f76f f7e0 fc51 0021 0446     ,.g...o...Q.!.F.
   12278:	0805 0c98 10e3 134f 1353 1269 1029 0cfb     ......O.S.i.)...
   12288:	0b01 09eb 0ab3 0971 0a0b 09fa 0a1a 098e     ......q.........
   12298:	08d8 0942 0844 079c 04ee 04c4 0284 01fb     ..B.D...........
   122a8:	006d 0447 07c4 088c 0753 037f 0113 fe2a     m.G.....S.....*.
   122b8:	fe6b fd25 fdf9 fb58 f9fd f7c7 f5cf f3b3     k.%...X.........
   122c8:	f100 eef7 ec73 eccc ed62 ee65 ed41 eb41     ....s...b.e.A.A.
   122d8:	e95f e8af e9da eb82 ebe6 ecb2 ed41 f066     _...........A.f.
   122e8:	f727 0608 17a8 2076 22c6 1c08 1262 0748     '.....v ."..b.H.
   122f8:	01b4 00db 04ed 08ad 0b19 0d4e 0d28 0c1d     ..........N.(...
   12308:	09a4 0805 0633 0488 0392 02d2 0165 fe77     ....3.......e.w.
   12318:	fb32 f801 f69c f869 fcee 00fd 03ed 05dc     2.....i.........
   12328:	06b9 05cc 03bb 02d4 03c5 038f 0393 0290     ................
   12338:	0717 0950 0965 07ef 0645 03ea fffe ff6f     ..P.e...E.....o.
   12348:	ffd1 012e fedc fe35 fca9 fb15 fa2d faeb     ......5.....-...
   12358:	fbce fadd fa7e f926 f7fa f57d f442 f41f     ....~.&...}.B...
   12368:	f3ae f3d2 f4a4 f68e f6b5 f782 f7f8 f7d8     ................
   12378:	f726 f6fe f77e f7f8 f955 fa21 fb80 fd2c     &...~...U.!...,.
   12388:	004e 026d 0629 0858 0a2d 0a82 09ab 0a4a     N.m.).X.-.....J.
   12398:	0a63 0a86 09a1 099d 0861 08b0 08ce 0a0d     c.......a.......
   123a8:	0ae9 0b64 0ae6 09b3 0997 090f 083f 0779     ..d.........?.y.
   123b8:	07bc 088c 08d0 0714 0507 027a 0072 ff27     ..........z.r.'.
   123c8:	feb9 fedf fed4 febf fc3b f89d f3f9 f187     ........;.......
   123d8:	efee eeba eec3 eecf efd1 efb7 ef69 ef59     ............i.Y.
   123e8:	eed8 eeb6 ef5a f141 f374 f4c8 f494 f6d6     ....Z.A.t.......
   123f8:	0021 0d09 1693 1b96 1a46 1461 0967 039a     !.......F.a.g...
   12408:	020f 04da 08ab 0cdd 0e0e 0a0a 05ec 035c     ..............\.
   12418:	0357 02de 0471 052b 03a5 0011 fd3c fae3     W...q.+.....<...
   12428:	f850 f7c8 f8d5 fb2e fda1 0012 01fb 026d     P.............m.
   12438:	01c0 00ad 0012 006c 01ec 02fa 0345 0221     ......l.....E.!.
   12448:	01b2 0222 043b 061d 0714 06a5 03ee ff66     ..".;.........f.
   12458:	fc01 fb50 fbf7 fd90 ff1e 0051 ff88 fe95     ..P.......Q.....
   12468:	fd73 fcdc fcc7 fcae fbaa facc fb37 fc0e     s...........7...
   12478:	fc14 fafa fad1 fb02 fb98 fc14 fd39 fee7     ............9...
   12488:	fecf fe96 fdba fd31 fca4 fde6 fe75 feb5     ......1.....u...
   12498:	fe88 fe0e fe02 fe99 ffe7 00bd 0168 020e     ............h...
   124a8:	02b3 02ab 0337 03bc 04bd 0545 05e6 06a6     ....7.....E.....
   124b8:	0715 07a9 072e 07c2 0752 06a6 05af 0637     ........R.....7.
   124c8:	0629 0531 04a9 036d 0255 ffd2 ff00 fe96     ).1...m.U.......
   124d8:	fe27 fcb9 fb66 fa43 f96c f8dc f868 f8d2     '...f.C.l...h...
   124e8:	f723 f515 f3a0 f41c f3ae f3dd f500 f6b8     #...............
   124f8:	f69d f66f f75b f75a f8ed fdb9 07f2 11c1     ..o.[.Z.........
   12508:	1743 1856 14c4 0d58 0508 01b5 027b 053a     C.V...X.....{.:.
   12518:	080b 0abf 099e 063a 02b0 00cf 00c8 0194     ......:.........
   12528:	0296 0289 003c fc79 f9da f7ef f714 f792     ....<.y.........
   12538:	fa1c fc15 fdea ff72 00c6 0105 003a ffd2     ......r.....:...
   12548:	ff80 ff50 ff84 0050 0068 0052 ffff 0100     ..P...P.h.R.....
   12558:	029d 03c9 04b1 0410 0220 ff7e fca1 fb4c     ........ .~...L.
   12568:	fbd5 fd62 fe5d ff05 feea fe9f fddf fe32     ..b.].........2.
   12578:	fe7b fec0 fec5 fe03 fdc6 fd9e fde8 fe27     {.............'.
   12588:	fee2 fec6 ff3a 0002 0114 0148 01f6 01f2     ....:.....H.....
   12598:	0167 003e 001e 00ae 00bb 01cd 0230 0266     g.>.........0.f.
   125a8:	0152 0094 0030 ffa3 ff8f 0021 005f ffce     R...0.....!._...
   125b8:	ffed 0077 0093 ff63 ff71 ffac ffc3 ffd2     ..w...c.q.......
   125c8:	0023 003d 0020 fecd fe4b ff0c 0008 00f3     #.=. ...K.......
   125d8:	0182 015d 0056 ff9a ffbc ffef 00f7 017b     ..].V.........{.
   125e8:	01d8 010f ff96 fed2 fef6 ff1d ff81 003b     ..............;.
   125f8:	00e8 ffdd ff0a ff2b ff79 ffc9 ff96 00c2     ......+.y.......
   12608:	0127 0089 007d 018e 01c5 0128 010c 01cd     '...}.....(.....
   12618:	01f7 021d 02f2 020f 00e4 ff92 ffe6 fff9     ................
   12628:	00a7 0134 01ad 0109 ff1b fe1c fde9 fe8a     ..4.............
   12638:	feb4 fedb fe26 fd7b fcb4 fc75 fd3b fe1f     ....&.{...u.;...
   12648:	fdf4 fd4e fd29 fd3e fddc fde4 ff48 0009     ..N.).>.....H...
   12658:	ffd3 fe4d fe93 ff56 ff93 011c 0266 0173     ..M...V.....f.s.
   12668:	ffbd ffbb 003a 0053 0114 0278 0245 0198     ....:.S...x.E...
   12678:	01b1 01d0 020a 024f 032c 0304 02bb 021f     ......O.,.......
   12688:	027e 0229 020d 0224 01e2 00fe ff57 ffa3     ~.)...$.....W...
   12698:	003d ffe0 ff01 ff09 fe53 fe19 fe34 fdc7     =.......S...4...
   126a8:	fe07 fd33 fcb1 fb5e fb47 fc47 fca0 fc4a     ..3...^.G.G...J.
   126b8:	fbfa fbb2 fc0a fc3c fc33 fdc0 ffb1 ffac     ......<.3.......
   126c8:	fefc feb6 fff6 005b 0199 03bd 05a3 0652     ......[.......R.
   126d8:	0748 0887 09c7 0991 09c2 09ed 08fb 07c2     H...............
   126e8:	0666 0566 0399 0332 022c 0154 ff65 fe8d     f.f...2.,.T.e...
   126f8:	fe17 fd27 fb3a f9a1 f87c f6e3 f68f f60f     ..'.:...|.......
   12708:	f694 f5ea f56e f54c f5dd f67e f6e8 f818     ....n.L...~.....
   12718:	f90f f9dd fa93 fb54 fbbf fe12 0121 0388     ......T.....!...
   12728:	0523 06f9 090a 0a65 0b4e 0b5a 0a9e 087f     #.....e.N.Z.....
   12738:	069f 04fe 045d 03fa 042b 046f 03c7 02a6     ....]...+.o.....
   12748:	0190 0178 01a7 01b2 01a7 019b 00dd 0023     ..x...........#.
   12758:	0016 0029 0072 019c 0391 0424 04c9 03d8     ..).r.....$.....
   12768:	03b5 031c 02ee 0345 04c3 0530 0489 02e7     ......E...0.....
   12778:	0087 fe09 fbd4 fb1b fa56 fa17 f934 f896     ........V...4...
   12788:	f695 f5cd f470 f38f f26a f2cb f3eb f525     ....p...j.....%.
   12798:	f684 f6db f5cd f441 f4af f5fe f78f f7b3     ......A.........
   127a8:	032f 0d3f 12e9 12b0 121b 0de7 0612 02d7     /.?.............
   127b8:	03bb 06df 0639 0788 079b 05cb 02ba 0321     ....9.........!.
   127c8:	0496 0410 03cc 030e 026e ff10 fda7 fd39     ........n.....9.
   127d8:	fce8 fb92 fc85 fedb ff82 002e 0121 0268     ............!.h.
   127e8:	0148 012a 00b6 0101 007f 00ad 011e 0038     H.*...........8.
   127f8:	feff fed0 0030 00b8 00e1 00f7 00d7 feb3     ....0...........
   12808:	fd14 fc9d fbea fc03 fc7c fd27 fcfa fd64     ........|.'...d.
   12818:	fd6d fe95 fe71 fe88 febb fe50 fdf1 fd5e     m...q.....P...^.
   12828:	fe18 fe81 ff61 0024 00ec 018a 01af 023d     ....a.$.......=.
   12838:	0246 02b3 0174 03dc 059b 0528 034c 01f3     F...t.....(.L...
   12848:	0238 0027 fffb 00bf 02a2 0213 02fa 0342     8.'...........B.
   12858:	0256 ffa6 fe7d fe1e fd3b fd75 fe25 ff55     V...}...;.u.%.U.
   12868:	fe88 fe2e fcf6 fc6e fbc7 fc6c fe21 ff39     ......n...l.!.9.
   12878:	ff82 fed4 feab fe35 fe70 fe35 fe67 fe66     ......5.p.5.g.f.
   12888:	fef8 002f 002f ffe4 ffcf 0036 ff72 ff2c     .././.....6.r.,.
   12898:	fff2 0172 00d0 ffe7 ff64 ff31 fef4 ff9c     ..r.....d.1.....
   128a8:	00ec 015a 00d1 0100 01b0 0147 0133 01cf     ..Z.......G.3...
   128b8:	02e1 0306 030e 02d7 0258 0228 02a0 034f     ........X.(...O.
   128c8:	02b6 0174 0093 0167 020a 0268 02d6 0243     ..t...g...h...C.
   128d8:	0076 fe4a fdd3 fe46 ff68 005e 0111 ffeb     v.J...F.h.^.....
   128e8:	fe25 fd25 fe50 ffbb 000d ffb4 fddd fcc5     %.%.P...........
   128f8:	fc5f fda5 fe9c ff4b fe66 fd6d fd37 fd89     _.....K.f.m.7...
   12908:	fe2d fee4 fe5f fd4d fd25 fd6e fde9 fe29     -..._.M.%.n...).
   12918:	ff22 ff7d ff16 fed6 ff16 fee7 fef5 ffcb     ".}.............
   12928:	ff64 ffcb 00ab 01fe 0230 02fa 034e 0452     d.......0...N.R.
   12938:	0403 0475 0679 0841 08f7 0987 0a42 08ab     ..u.y.A.....B...
   12948:	079f 06f7 06e3 0573 04dd 0437 032d 00ba     ......s...7.-...
   12958:	fe79 fcf5 fb44 f99d f80d f70e f624 f503     y...D.......$...
   12968:	f36d f1b7 f0db f0db f119 f0d1 f0f6 f2e7     m...............
   12978:	f3d8 f341 f243 f44c f6d4 fbee 069d 12b2     ..A.C.L.........
   12988:	1823 15fa 12b5 0e5c 0a45 0784 083f 087a     #.....\.E...?.z.
   12998:	07c2 0699 06eb 068d 048c 0477 0387 029d     ..........w.....
   129a8:	0128 0255 02fd 01ab feba fc7c fa62 f969     (.U.......|.b.i.
   129b8:	fa9b fcf6 005f 019b 02f6 0262 0352 045c     ...._.....b.R.\.
   129c8:	0448 03f1 0447 03de 01fe 0141 0135 018b     H...G.....A.5...
   129d8:	0133 01b0 01e8 0279 01ee 000e feca fdfe     3.....y.........
   129e8:	fcb4 fc55 fcbf fbc0 faf8 fa46 fac2 f9c6     ..U.......F.....
   129f8:	f812 f7da f8dd f921 f8a3 f829 f7f2 f78d     ......!...).....
   12a08:	f694 f6ba f6d7 f7a2 f7e7 f854 f814 f779     ..........T...y.
   12a18:	f793 f794 f8fd fb8f fed1 0177 07e4 0dfd     ..........w.....
   12a28:	10a2 1007 102d 0fce 0c4c 09e3 097d 0955     ....-...L...}.U.
   12a38:	05fd 04f7 050d 063f 0536 064e 0608 0566     ......?.6.N...f.
   12a48:	0380 03d6 043d 03dd 02bf 024d 01cb 00e7     ....=.....M.....
   12a58:	0197 0382 0497 0419 0462 04ec 0569 0527     ........b...i.'.
   12a68:	055e 055c 0382 00a5 fe3e fd4a fbf5 fa69     ^.\.....>.J...i.
   12a78:	f88e f71c f550 f399 f245 f144 f0c5 f00b     ....P...E.D.....
   12a88:	eee4 edc0 ef38 f12b f2d5 f26b f4a1 f7ae     ....8.+...k.....
   12a98:	f9e1 fa3e fc2b fdc9 fea5 0077 0674 0dfd     ..>.+.....w.t...
   12aa8:	105d 0f45 0e47 0e68 0d3c 0cba 0bbc 0b32     ].E.G.h.<.....2.
   12ab8:	074f 0549 0463 057a 0484 0316 0200 0167     O.I.c.z.......g.
   12ac8:	006f 0152 02f9 029f 00d6 ff41 ff5a ff26     o.R.......A.Z.&.
   12ad8:	0036 01cc 0345 0273 02ab 0370 04e6 05b7     6...E.s...p.....
   12ae8:	057d 0457 0319 020d 00d9 0082 ffc1 fed5     }.W.............
   12af8:	fd1b fcc2 fc67 fbf7 fb51 fb1c f9a6 f8a1     ....g...Q.......
   12b08:	f805 f830 f867 f73a f64e f631 f806 f8ef     ..0.g.:.N.1.....
   12b18:	fa32 fafd fa8d fa43 f999 fa6a fab3 fb95     2.....C...j.....
   12b28:	fc6b fd14 fdfd ff1e 01a4 0345 03aa 03bb     k.........E.....
   12b38:	056d 082d 094c 0893 0805 0751 063a 059f     m.-.L.....Q.:...
   12b48:	0656 06a2 052d 039a 036c 03fe 0446 0392     V...-...l...F...
   12b58:	02cc 022f 01f4 0268 0339 03cd 036e 0268     ../...h.9...n.h.
   12b68:	027a 0278 02c2 02c1 035c 0212 00a3 003f     z.x.....\.....?.
   12b78:	0140 00cf ffc2 fe50 fe18 fdc5 fd1e fc89     @.....P.........
   12b88:	fbd7 fa85 f9e3 f8c6 f94d f92d f8ca f85e     ........M.-...^.
   12b98:	f892 f927 fa23 fafa fc3c fcaf fc6d fbfe     ..'.#...<...m...
   12ba8:	fc94 fdec feb9 fe93 fe8c ff02 004d 01ad     ............M...
   12bb8:	0273 0283 0246 024e 01f5 0298 0325 033e     s...F.N.....%.>.
   12bc8:	028f 0230 01f1 021d 02d5 0302 0399 044a     ..0...........J.
   12bd8:	049a 0436 03c3 0342 032e 0309 02c0 02f1     ..6...B.........
   12be8:	0262 01a5 0127 00ee 00bf 007a 0006 ff81     b...'.....z.....
   12bf8:	ff29 ff45 ff72 ff76 ff0f fe2f fd4b fd48     ).E.r.v.../.K.H.
   12c08:	fd59 fd72 fd66 fd95 fe4a ff26 ff1c fea6     Y.r.f...J.&.....
   12c18:	fe6f fe5a fe19 fe6e febe fec9 fef1 ff1d     o.Z...n.........
   12c28:	fec1 feea fecc fe97 ff25 ffbe ffd1 ffe1     ........%.......
   12c38:	ffee 0002 ffcd ff98 fff8 0068 00f0 00f3     ..........h.....
   12c48:	009d 0064 005a 0073 00ed 00cd 008c 008c     ..d.Z.s.........
   12c58:	0072 0074 009d 003c ffee 001f 0017 0053     r.t...<.......S.
   12c68:	00a1 0040 0034 001b 003f 004a 003b 0072     ..@.4...?.J.;.r.
   12c78:	007a 0075 0060 00c0 00de 0135 00f4 006a     z.u.`.....5...j.
   12c88:	0046 006f 0053 007d 0055 ffd1 ffcd 000b     F.o.S.}.U.......
   12c98:	ffd6 fffd ffdd ff84 ff44 ffad ff71 ff32     ........D...q.2.
   12ca8:	feff fef6 ff5a ffb8 0038 001c 0015 0026     ....Z...8.....&.
   12cb8:	0068 0089 00d1 00a0 0043 001c ffc7 ffbf     h.......C.......
   12cc8:	ffaf ff8f ff83 ffce ffa9 ff98 ff5c ff49     ............\.I.
   12cd8:	ff23 ff2d fef2 fefd ff3f ff5a ff0d fec7     #.-.....?.Z.....
   12ce8:	ff27 ff40 ff44 ff68 ffa3 ff92 fff2 0005     '.@.D.h.........
   12cf8:	fff9 ffe3 ffd4 000e 0037 0034 fff3 ffba     ........7.4.....
   12d08:	003c 0063 002a 003b 0066 007c 00ca 00a0     <.c.*.;.f.|.....
   12d18:	011c 00cc 00df 00f8 0115 0130 0113 00d0     ..........0.....
   12d28:	00d0 00bb 0085 00b9 0087 00c1 0081 00d5     ................
   12d38:	005c 0044 0011 ffc2 fff0 ffb2 ff77 ff5b     \.D.........w.[.
   12d48:	ffaa ff7c ffd0 ffb0 ffe5 ffeb ffde 0008     ..|.............
   12d58:	ffb9 ffd9 fff9 fff7 ff9f ff9a ff7d 000a     ............}...
   12d68:	ffd6 ffab ff93 ffc9 ffee ffe8 ffe6 ffea     ................
   12d78:	ffe1 ffc5 ff87 ff94 ffd1 ffa1 ffab ffa6     ................
   12d88:	fff5 0001 0040 0068 000d 0023 002d 002b     ....@.h...#.-.+.
   12d98:	ffe5 0003 fffa ffdc ffd1 ffec ffde ff99     ................
   12da8:	fff4 0016 0017 ffe0 0003 0007 000d 0023     ..............#.
   12db8:	0010 fffa fffb 002b 0023 0014 0086 0087     ......+.#.......
   12dc8:	0066 0041 0066 0064 008c 0035 005d 0026     f.A.f.d...5.].&.
   12dd8:	0058 0029 ffd2 ff95 ff78 ff7a ff96 ff8f     X.).....x.z.....
   12de8:	ff16 ff6d ff7f ffc9 ffec ffd4 ffbf fff6     ..m.............
   12df8:	ffd7 ffe3 ffc3 ffff ffdc 0013 0067 0003     ............g...
   12e08:	ffea 002c 003e 0056 004b 0033 0012 000b     ..,.>.V.K.3.....
   12e18:	005a 000b ffbc ffbd ffba 0016 000c 0007     Z...............
   12e28:	002b 0038 007a 0067 0032 0017 ffd2 002a     +.8.z.g.2.....*.
   12e38:	005f 000c 0005 ffe7 fffe ffe6 ffd3 ffcc     _...............
   12e48:	ffe9 ffd7 ffaf ffd9 ffc6 ffc7 ff9c ffe4     ................
   12e58:	0034 005a 002b fff8 005d 006b 0067 0006     4.Z.+...].k.g...
   12e68:	0000 0017 002a 001d 0018 000f 0044 004a     ....*.......D.J.
   12e78:	0037 0050 0039 0031 0023 fff4 0050 ffef     7.P.9.1.#...P...
   12e88:	ffa6 ffae ff93 ffeb ffb6 ffa5 ffaa ffff     ................
   12e98:	ffb8 ffa6 ff50 ffa8 ff38 ff91 ff7d ffc1     ....P...8...}...
   12ea8:	ffa6 ff96 ffb8 ffb1 ffe8 ffe8 0022 000c     ............"...
   12eb8:	001b fff8 0037 0013 ffc7 ffd0 0004 006c     ....7.........l.
   12ec8:	007e 00e2 0108 00c4 00c2 00fa 00b9 00d1     ~...............
   12ed8:	007f 0079 0094 0047 fff7 0010 0008 ffa4     ..y...G.........
   12ee8:	ffdb ff72 ffb1 ff95 ff7f ff24 ff7d feec     ..r.......$.}...
   12ef8:	ff54 ff84 ffb3 ff56 ff3c ff9f ff85 ffc5     T.....V.<.......
   12f08:	ffcc 007a 00c1 0112 00c7 000e 0012 007d     ..z...........}.
   12f18:	00e1 00be 00da 0093 015c 0141 012e 002f     ........\.A.../.
   12f28:	009b 00a7 00ad 002a 0018 ffed ff62 ff96     ......*.....b...
   12f38:	ffda ff64 febb fdde fcd1 fd4c fdcc fe40     ..d.......L...@.
   12f48:	ff0c fe2a fec2 ff1f ffe4 ff8a ff0d fdfe     ..*.............
   12f58:	fdde fe67 ff1d fe4f fd14 fe2f ffd6 004d     ..g...O.../...M.
   12f68:	ffae ff94 011c 026d 01db 0163 0246 0396     ......m...c.F...
   12f78:	0539 04c6 0537 0474 062d 07fc 09d1 06fc     9...7.t.-.......
   12f88:	0408 0481 0677 05a2 09dc 0622 ff81 fb0c     ....w.....".....
   12f98:	f9e4 f93c f692 f4d5 f526 f7fa fa34 f957     ..<.....&...4.W.
   12fa8:	f652 f469 f8c7 fd20 feae f9df fa32 ff19     R.i... .....2...
   12fb8:	0222 fd52 fa4d fc41 00ec 03bb 04c8 056f     ".R.M.A.......o.
   12fc8:	0886 0c5e 0f35 1477 0ed4 0a33 02f8 0253     ..^.5.w...3...S.
   12fd8:	fff9 020c fde6 fc75 fc66 ffff 0165 ff9a     ......u.f...e...
   12fe8:	fc87 fe3c 0132 010d fe42 fa04 f7ea f6d6     ..<.2...B.......
   12ff8:	f6f8 f66f f50a f764 fb52 fdf5 fea9 fe59     ..o...d.R.....Y.
   13008:	ffc6 00dc 01be 01c6 0268 0093 ff1d fd61     ........h.....a.
   13018:	fc53 fc57 fc77 fdc4 0019 020d 030b 026c     S.W.w.........l.
   13028:	023f 01df 00de 0110 ffd4 00b9 ff4d 007b     ?...........M.{.
   13038:	0069 fffb ff2a 016c 0384 03f8 03cc 0318     i...*.l.........
   13048:	029a 03da 0284 08a6 0ac2 09bc 05fb 03a1     ................
   13058:	ff07 01e5 01df 0221 fba3 fdf3 ff9d 0286     ......!.........
   13068:	fedd fd78 fab1 fd49 fe41 0548 06b0 0381     ..x...I.A.H.....
   13078:	0180 0248 ff88 fd86 fcaa fd1d fa81 ff93     ..H.............
   13088:	0027 fdc5 fb9e 0200 0153 04f5 010f 0377     '.......S.....w.
   13098:	024e 0193 fe13 f99d f7a6 f859 fa4a fb89     N.........Y.J...
   130a8:	f972 f7a8 fe0c ffb4 0004 fd84 fe33 ff7b     r...........3.{.
   130b8:	01d3 00f6 fe7a fd59 fcc3 fd3f fc83 fcf5     ....z.Y...?.....
   130c8:	ff29 ffb6 018b 02b7 0369 0016 0133 00e4     ).......i...3...
   130d8:	0329 025f 0119 ff94 000b 005f 00c4 fed4     )._......._.....
   130e8:	fec3 ff0c 02e8 0597 02c9 019d 0190 034b     ..............K.
   130f8:	041e 030c 00bb fff3 0298 05a9 03a8 fea6     ................
   13108:	fdf8 00f0 05ea 0531 ff3c fda6 ffa3 02d0     ......1.<.......
   13118:	0167 0181 fd4d ff6b 00dc 02fa fe78 fb10     g...M.k.....x...
   13128:	f7ec fbc0 fd84 fdfe fab3 fcb3 ff16 fdf1     ................
   13138:	fe5c 0051 ffdb feb5 0035 039a 03ae ffb2     \.Q.....5.......
   13148:	fe24 ffe5 0170 037c 0241 023c 0351 0445     $...p.|.A.<.Q.E.
   13158:	023d fef5 fd5f ff89 feb5 008f 007c 01b0     =..._.......|...
   13168:	ff41 fe50 fea9 ff37 fdc1 0091 ff11 ff7e     A.P...7.......~.
   13178:	01b5 01ba fe26 fae1 fe6b 030b 051a 034d     ....&...k.....M.
   13188:	0213 0253 00f1 feb8 fbbf fc28 fb1c fe89     ..S.......(.....
   13198:	ffb4 fefe fced fd74 ff00 ffcb fffd 04e3     ......t.........
   131a8:	06c6 0212 ff4b fd14 fc9c f96a f953 fc4b     ....K.....j.S.K.
   131b8:	00d8 0188 00c6 0149 0358 0486 0152 ff2c     ......I.X...R.,.
   131c8:	0077 0216 01e7 ffde fb8f f8fd fadc 0041     w.............A.
   131d8:	047f 0452 0183 0413 061a 0294 00e8 005a     ..R...........Z.
   131e8:	ffe2 fe0c feef 0099 009b fdd9 fe2c 006a     ............,.j.
   131f8:	01f1 0213 0052 005c ff36 001b fdb7 fbe8     ....R.\.6.......
   13208:	fd3a ffaa 0147 fff8 fd47 fc56 0087 0307     :...G...G.V.....
   13218:	0135 ff2e 01d3 027e 0376 0253 03f0 01f5     5.....~.v.S.....
   13228:	0148 fd26 feff fdc1 fdf5 fe24 017d 00ce     H.&.......$.}...
   13238:	005d fce3 fdd2 fef1 0192 0149 ff4d fe59     ].........I.M.Y.
   13248:	fd70 fe1a 00dc 0013 fd34 fe2b 0447 077a     p.......4.+.G.z.
   13258:	04cb 00a2 020d 046a 0447 012e fdc2 f77a     ......j.G.....z.
   13268:	f8f9 fe10 0010 fb6a fbc6 012d 04c2 00a5     ......j...-.....
   13278:	fe98 ff9d 01e8 00bd 00ae ff1e fc87 fd19     ................
   13288:	01c5 015e feb1 ff20 01bb 02dc 0347 0310     ..^... .....G...
   13298:	0075 feb3 0080 030d 015e fede ffec 0294     u.......^.......
   132a8:	0289 fd6e fafc fa76 fac0 fd5d ff41 ffcf     ..n...v...].A...
   132b8:	fce3 fd42 ff97 ff73 ffc1 ff21 018e 02a4     ..B...s...!.....
   132c8:	039c 034a 05a2 0569 04e8 0471 04ec 0434     ..J...i...q...4.
   132d8:	01bd fdd8 fac6 f96e fa45 f9fc fa61 ff00     ......n.E...a...
   132e8:	031c 033a 0204 fff4 ff51 fdc5 fc81 f93d     ..:.....Q.....=.
   132f8:	fa8f ff67 035c 0363 0258 04a9 069d 04cd     ..g.\.c.X.......
   13308:	0283 026b 043b 00b4 fd00 ff80 007b fccb     ..k.;.......{...
   13318:	fa70 fcc5 fe3e ff43 0150 0369 0163 008b     p...>.C.P.i.c...
   13328:	ff27 fdbe fb8c fd5f 014f 010a fe78 0016     '....._.O...x...
   13338:	02c0 03a3 01eb 008c 01b1 0418 0571 0162     ............q.b.
   13348:	fd28 fa52 f8da f893 f75f fa7e fca2 ff12     (.R....._.~.....
   13358:	ff7e fee9 fc0e fdd7 0161 02ac 0035 03e8     ~.......a...5...
   13368:	086c 09e2 066d 04c2 ffd9 fd68 fe73 0156     l...m.....h.s.V.
   13378:	029b 05eb 093b 063d 01d2 ff67 fe24 fba1     ....;.=...g.$...
   13388:	f9d5 fcd9 ffae fca7 fb16 f9d4 fab0 f6da     ................
   13398:	f8a3 fcbd 0057 049b 06e8 01bf fe45 008f     ....W.......E...
   133a8:	0421 02c9 0387 056e 07f4 0707 022d fcea     !.....n.....-...
   133b8:	f89d fa4e fd58 ff46 fdaf fc0d fe74 ff88     ..N.X.F.....t...
   133c8:	fea6 fbaf fb08 fa8b fe88 015c 027a fec9     ..........\.z...
   133d8:	fb7d fc33 ff82 ff01 fec3 041e 09f0 0ab6     }.3.............
   133e8:	086e 093a 03dd fb6c fa0c 0062 034f ff17     n.:...l...b.O...
   133f8:	ff8d 0443 0546 0240 ff26 fcf2 fc84 ffeb     ..C.F.@.&.......
   13408:	02b4 ffc1 fd54 fbf8 fe25 ff6b 03d8 0651     ....T...%.k...Q.
   13418:	06d8 057f 04d4 0291 000f fd49 fb6e f989     ..........I.n...
   13428:	fb31 fde8 fd4e fbb3 fba9 fcc4 fcd7 fc5a     1...N.........Z.
   13438:	fc62 ffd8 03e7 0511 01ca fd8d fc92 fbc8     b...............
   13448:	f920 f6fe f926 fe7f 00cf 02b8 026b 00d9      ...&.......k...
   13458:	0151 01b3 0047 ffed 0292 0408 0316 071f     Q...G...........
   13468:	0d01 0b73 051b 0495 06d3 05b9 04dc 0606     ..s.............
   13478:	0398 0136 037c 0475 001d fdc2 feaf fe3f     ..6.|.u.......?.
   13488:	fd37 fdd4 00d4 ff62 ff7e ffdd ff74 ff8c     7.....b.~...t...
   13498:	001a fcd5 f926 fb62 008d 0113 fd8f fbc7     ....&.b.........
   134a8:	fd64 fcd9 faad f640 f2ec f178 f2a8 f5ab     d.....@...x.....
   134b8:	f7d9 f64d f3f7 f4cc f8d9 fa81 fa97 f924     ..M...........$.
   134c8:	fae8 ff2c 0476 048f 020c 0326 06e9 09f2     ..,.v.....&.....
   134d8:	0bf0 0bf8 0bdb 0f39 151f 1610 12bc 1245     ......9.......E.
   134e8:	140a 15d9 14f4 10da 0a15 08b1 0bcb 0d5b     ..............[.
   134f8:	0717 01b7 0167 038f 016d fd12 f794 f394     ....g...m.......
   13508:	f2ca f2ea f0e4 ea7b e803 eb23 ecfd e973     ......{...#...s.
   13518:	e54e e399 e653 e946 eb8c e8a1 e776 e9de     N...S.F.....v...
   13528:	ec5f ecbd ed48 ed1c ef49 f2d9 f74e facb     _...H...I...N...
   13538:	02b0 0ba8 1e2e 2e85 2ce9 248b 1f97 1e20     .........,.$.. .
   13548:	1755 0f43 0979 064a 0906 0f53 1252 0f4a     U.C.y.J...S.R.J.
   13558:	0c49 0de7 0f47 10f7 0f95 0ba2 0ac7 09b7     I...G...........
   13568:	0826 01bf fd1b fd0e 0098 033f 046b 0623     &.........?.k.#.
   13578:	0712 06e4 0499 002e f9b5 f40b f129 ef0c     ............)...
   13588:	eb85 e7bf e52c e5bc e818 e81b e45a e13a     ....,.......Z.:.
   13598:	e2a7 e457 e42a e2b5 e185 e20f e56e eaf2     ..W.*.......n...
   135a8:	eeda f3bb fc63 091d 1349 19b0 2404 2826     ....c...I....$&(
   135b8:	282c 21a2 1e26 1507 0dfa 0a96 0c5e 0ae2     ,(.!&.......^...
   135c8:	0bbe 0d70 10c5 0fa2 0fe6 0e1f 0ad9 0777     ..p...........w.
   135d8:	05be 03cb 02d4 0246 01af 00ff 037e 04aa     ......F.....~...
   135e8:	0639 07fd 0a5c 0b6e 09a1 0814 05b2 02d0     9...\.n.........
   135f8:	ff63 fb68 f73c f428 f288 f1d0 ef85 ed41     c.h.<.(.......A.
   13608:	ec97 ec61 ea1b e675 e3d3 e0c9 df8b e011     ..a...u.........
   13618:	e2c3 e617 e899 ece6 f133 f5aa f860 fdd2     ........3...`...
   13628:	03b9 0a48 0e1d 1a32 235a 2214 1d2e 1b17     ..H...2.Z#."....
   13638:	1a7f 1465 0d59 0949 081f 08fc 0b35 0b81     ..e.Y.I.....5...
   13648:	0a59 0966 0bab 0c9b 0ade 07b0 06a5 06c3     Y.f.............
   13658:	0766 043b 0149 0037 0289 0400 0490 04ac     f.;.I.7.........
   13668:	0709 07b6 0835 061c 022a fdc3 fb62 f99b     ....5...*...b...
   13678:	f58a f037 edb0 ed0e eca7 ebc4 e9ec e866     ..7...........f.
   13688:	e735 e729 e575 e3cf e34b e53d e672 e9e4     5.).u...K.=.r...
   13698:	ecf8 ef37 f136 f6ba fecb 046c 0693 0f3d     ..7.6.....l...=.
   136a8:	20cd 244b 21b8 1c06 1d06 1674 11b2 0b12     . K$.!....t.....
   136b8:	07af 043c 09be 0c6a 0bfe 082d 0adc 0c27     ..<...j...-...'.
   136c8:	0c6f 0947 06cc 0334 0183 04e1 06e1 0068     o.G...4.......h.
   136d8:	fd72 0271 07a6 065d 057f 06bd 0709 089a     r.q...].........
   136e8:	090a 044d fcfb fa8b faf1 f82e f22a ee04     ..M.........*...
   136f8:	ed37 ee8d ef48 ed2a e882 e664 e7ca e7a9     7...H.*...d.....
   13708:	e494 e1a6 e243 e58a e8ac eb47 ec14 eefe     ....C.....G.....
   13718:	f277 fa86 ffe2 0414 06bc 1569 2588 2575     w.........i..%u%
   13728:	208d 1d51 1f0c 1820 128a 0a0a 0765 04f4     . Q... .....e...
   13738:	0a95 0b04 0aa0 0784 0bbe 0d71 0d75 08c2     ..........q.u...
   13748:	068e 0389 0237 025a 0469 0169 fffe 028f     ....7.Z.i.i.....
   13758:	085f 0861 06cc 06fc 0816 08ec 08cf 058c     _.a.............
   13768:	00dd fd6b fce5 faed f45b ef7e ee21 efd1     ..k.....[.~.!...
   13778:	eed1 ec26 e86e e753 e840 e754 e44a e1f7     ..&.n.S.@.T.J...
   13788:	e216 e567 e888 eb5a eb56 ecec f05e f6b0     ..g...Z.V...^...
   13798:	fb78 ff0d 0268 0f90 2427 27dc 2435 1f80     x...h...'$.'5$..
   137a8:	2263 1c1a 157b 0b68 0690 0270 070c 0ac4     c"..{.h...p.....
   137b8:	0aae 0661 09f1 0f60 10cc 0b8b 08ec 059d     ..a...`.........
   137c8:	04cb 02bf 05d2 0180 ff4c 00ea 0768 079c     ........L...h...
   137d8:	04d9 04ba 079e 09ca 08a7 0596 0035 fe65     ............5.e.
   137e8:	fd13 fa8e f315 ee46 ee2d f00d ef45 ebfc     ......F.-...E...
   137f8:	e8e1 e813 e96f e9a6 e5e8 e231 e31c e66d     ....o.....1...m.
   13808:	e7c8 e979 eb4a ee6c f1a3 f77b fdb6 00e1     ..y.J.l...{.....
   13818:	03c7 0d1b 215c 2627 21d4 1ccb 21bb 1ebd     ....\!'&.!...!..
   13828:	16d8 0c77 077e 05e1 08c6 0b37 092f 073a     ..w.~.....7./.:.
   13838:	09e8 0f06 0f56 0b32 0713 05f2 0563 0318     ....V.2.....c...
   13848:	0049 006a ff8b 021e 03ed 053d 0372 041d     I.j.......=.r...
   13858:	057a 07cb 0713 0463 00fc 00e7 ff5d fb3a     z.....c.....].:.
   13868:	f54a f26b f1b7 f0f8 efd7 ed6f ebc2 eb83     J.k.......o.....
   13878:	ecd3 ebb9 e8af e6c8 e74b e902 e9dc e96e     ........K.....n.
   13888:	e9b6 edff f268 f467 f5a7 fa60 0018 062b     ....h.g...`...+.
   13898:	0b92 162a 201d 2060 1f4f 1e1a 1dd3 161b     ..*.. ` O.......
   138a8:	1055 093e 0834 05b8 0872 076e 073c 0858     U.>.4...r.n.<.X.
   138b8:	0bfc 0d05 0b29 0893 0725 0470 02c6 026c     ....)...%.p...l.
   138c8:	0278 ff18 ff93 00cf 02ff 01a5 01db 023c     x.............<.
   138d8:	0568 06d3 05c5 0279 ff99 fef5 fbe8 f727     h.....y.......'.
   138e8:	f1b3 f074 ef6d efde edfb ecbc eba5 eddf     ..t.m...........
   138f8:	ee0e ebf3 e9b4 e9cb ea36 ea4d eb9f ec88     ........6.M.....
   13908:	ed7e ef1a f3c2 f73d f9d2 fecd 0455 0b93     ~.....=.....U...
   13918:	11e0 1bce 1ec1 1ed5 1ccd 1dc5 18f7 124e     ..............N.
   13928:	0c6a 0a15 08f3 07f6 0806 07b6 08c1 09da     j...............
   13938:	0bf2 0ac1 0970 078a 083f 0673 02cb fea0     ....p...?.s.....
   13948:	fdd7 fdfa fdb6 fc1b fcab ffc2 01f6 0375     ..............u.
   13958:	0302 02d5 020e 0034 fd1d f92c f5ae f220     ......4...,... .
   13968:	eff6 ee69 ed8a ed15 eced ed28 ecf3 ede4     ..i.......(.....
   13978:	edf3 ed53 ecb6 ecb9 ee13 eeb8 edbb eeef     ..S.............
   13988:	f42c f8a2 fa95 fe5c 068e 0dc6 1376 19b8     ,.....\.....v...
   13998:	1ddb 1f29 1e76 1d79 19c0 14ab 0fa3 0dbd     ..).v.y.........
   139a8:	0bb4 09cf 0955 0a5d 0b38 0bdf 0bdf 0baf     ....U.].8.......
   139b8:	0b39 0870 0682 0400 013f fde9 fbe3 fae3     9.p.....?.......
   139c8:	fa3d fa53 fb7e fc39 fd59 fec6 ff0d fe02     =.S.~.9.Y.......
   139d8:	fc1f fb17 f95e f68c f370 f10e ef1b ee2a     ....^...p.....*.
   139e8:	ee03 ecfc ec5d ed38 ee72 ee49 ee80 ef56     ....].8.r.I...V.
   139f8:	f0a8 f09e f176 f398 f596 f7a7 fb91 012e     ....v...........
   13a08:	0518 0963 0e92 148b 17ed 1a84 1b5c 1b89     ..c.........\...
   13a18:	1892 176c 14a3 109c 0d68 0c6d 0b3f 09e4     ..l.....h.m.?...
   13a28:	09ce 09a8 0aad 0b22 0b6c 0989 07f8 070d     ......".l.......
   13a38:	04e0 0189 fe3b fd60 fbdf fb2f fa78 fb12     ....;.`.../.x...
   13a48:	fb8b fc7d fc56 fc9d fb41 f93d f75c f502     ..}.V...A.=.\...
   13a58:	f360 f1cb f010 ed52 ec22 ec46 ebe7 ea32     `.....R.".F...2.
   13a68:	ea0f ec14 ed5c ee74 ef95 f065 f312 f596     ....\.t...e.....
   13a78:	f83d f998 fd25 02a5 0867 0bfd 0fd0 14e0     =...%...g.......
   13a88:	17b7 1b07 1ad1 1ab7 175e 1656 13d3 11b5     ........^.V.....
   13a98:	0e3d 0bc5 0b05 0a43 095b 072b 08aa 0816     =.....C.[.+.....
   13aa8:	089d 0715 06ef 04c1 0376 01a1 ff6b fdc1     ........v...k...
   13ab8:	fbc2 fc2f fb69 fbd1 fb30 fbef fb2f faf7     ../.i...0.../...
   13ac8:	f9df f87d f6b2 f4d7 f36f f133 ef98 ece7     ..}.....o.3.....
   13ad8:	ebf0 ea81 e9d7 e941 ea33 eb13 ebdf ece3     ......A.3.......
   13ae8:	ee56 f08c f209 f4e4 f7ab fbbb ffba 03b2     V...............
   13af8:	0809 0c3c 0f67 13d3 179a 1863 1915 187b     ..<.g.....c...{.
   13b08:	18bd 166c 139b 103c 0ef1 0da5 0b82 0a13     ..l...<.........
   13b18:	09f2 0a4a 08eb 07da 06b1 05c4 046d 0327     ..J.........m.'.
   13b28:	0132 ffcb feee fdcf fce8 fc0e fc4f fc6f     2...........O.o.
   13b38:	fc37 fc59 fc99 fc1c fa98 f948 f7d2 f5c3     7.Y.......H.....
   13b48:	f3de f235 f029 ee26 ed07 ec83 ec0c eb7c     ..5.).&.......|.
   13b58:	eb13 ec90 ed34 ed92 ef45 f060 f1f9 f472     ....4...E.`...r.
   13b68:	f84a fb61 fee5 0261 078c 0b48 0ed5 119f     J.a...a...H.....
   13b78:	1551 17a6 18b1 17da 16dc 15cf 147a 12e3     Q...........z...
   13b88:	1051 0e06 0d99 0d2f 0b81 0a3c 09fe 0923     Q...../...<...#.
   13b98:	087b 06dd 0562 0403 02bb 0167 ff7f fe41     {...b.....g...A.
   13ba8:	fe33 fdf1 fd71 fd96 fd83 fda0 fc5d fbb0     3...q.......]...
   13bb8:	fa96 f989 f784 f55a f3c8 f284 f15b ef73     ......Z.....[.s.
   13bc8:	edf7 ed7f ed4c ebe8 eaf2 ebf7 ed32 edac     ....L.......2...
   13bd8:	ed8a eea8 f11d f406 f5fd f915 fcaf 01c6     ................
   13be8:	0696 0ad9 0e7c 130a 162f 1846 1842 1734     ....|.../.F.B.4.
   13bf8:	170f 15b0 1279 0f9d 0efb 0e2c 0cba 0ba2     ....y.....,.....
   13c08:	0bd0 0c04 0bdd 0a92 097d 081d 071b 04b9     ........}.......
   13c18:	0254 00ec ffd8 fec3 fd6c fcee fe03 fec4     T.......l.......
   13c28:	fe40 fdb4 fe52 fe43 fc94 fa05 f7b3 f5e7     @...R.C.........
   13c38:	f444 f1fd efc7 ee7f ee19 edd2 ed49 ed24     D...........I.$.
   13c48:	ed43 ed9c ee28 eff2 f0e4 f1cc f28b f4e5     C...(...........
   13c58:	f881 fb09 fd26 009b 060f 0ac2 0dcf 104c     ....&.........L.
   13c68:	13c7 16c5 16b4 1651 14a0 13e0 11e1 102b     ......Q.......+.
   13c78:	0d14 0c1d 0b51 0a77 0982 0979 090b 0842     ....Q.w...y...B.
   13c88:	075d 069c 05f2 0352 02ab 00fd ff77 fd8e     ].....R.....w...
   13c98:	fcdb fc5e fc01 fb68 fb8c fb70 fb19 f9e0     ..^...h...p.....
   13ca8:	f85b f7d3 f639 f454 f1d4 f065 eed8 ee22     [...9.T...e...".
   13cb8:	ebfc ea1b eb0e ebfb eb3f eb30 ed79 ee98     ........?.0.y...
   13cc8:	efe5 f154 f443 f79f fb12 fea6 026f 0769     ..T.C.......o.i.
   13cd8:	0c35 0e9e 1225 1551 16ed 1719 1650 15eb     5...%.Q.....P...
   13ce8:	14cb 132f 100f 0ee8 0dcc 0dad 0b86 0a3e     ../...........>.
   13cf8:	0a57 0a4a 092c 06f7 0609 057d 0441 01b8     W.J.,.....}.A...
   13d08:	001f ff68 fef7 fda3 fccb fcfd fd56 fd39     ..h.........V.9.
   13d18:	fc53 fbdd fb9f faed f8d6 f664 f4f8 f437     S.........d...7.
   13d28:	f1f3 ef97 ef15 eeef ed72 ec60 ec15 eca0     ........r.`.....
   13d38:	ecf2 ed35 ef3d f0a2 f1c2 f497 f78e f9e2     ..5.=...........
   13d48:	fc82 00ac 04f7 07ef 0b72 0da1 1197 1301     ........r.......
   13d58:	1413 1376 1425 13db 121a 1076 0f7c 0fa2     ..v.%.....v.|...
   13d68:	0d22 0d0b 0c01 0c5e 0aff 0ae0 08f8 07fb     ".....^.........
   13d78:	0776 064c 0415 021b 027b 0163 ffa9 fe0a     v.L.....{.c.....
   13d88:	fead fe43 fdf2 fc43 fbe7 fbcf fafc f919     ..C...C.........
   13d98:	f733 f67f f56a f334 f0d5 efef ef70 ee92     3...j.4.....p...
   13da8:	ed8c ed2b ed9c ed4f eda7 ee66 efe7 f15d     ..+...O...f...].
   13db8:	f282 f552 f883 fc01 fe44 012c 044d 07b4     ..R.....D.,.M...
   13dc8:	0a82 0c65 0e54 1088 1293 12ca 1222 1239     ..e.T.......".9.
   13dd8:	12a0 11ac 0fe9 0e99 0f14 0ed3 0cf1 0bec     ................
   13de8:	0bec 0b84 0a0e 08a5 0735 0748 0601 03e8     ........5.H.....
   13df8:	0269 023c 0198 0017 fe5d fdf7 fe11 fcc0     i.<.....].......
   13e08:	fb1c f980 f8d9 f79f f611 f41c f322 f252     ............".R.
   13e18:	f11c efc1 eec1 ee4a ede5 edf3 edf5 ee24     ......J.......$.
   13e28:	eee6 f049 f082 f228 f485 f5d1 f7e3 fb9d     ..I...(.........
   13e38:	fe27 0048 0432 06b4 08e8 0b40 0d3f 0e59     '.H.2.....@.?.Y.
   13e48:	0fd3 10cb 101f 1041 10b3 108a 0f06 0ecf     ......A.........
   13e58:	0e91 0e7e 0d1c 0bc2 0b99 0b9c 0a24 084c     ..~.........$.L.
   13e68:	07fb 074b 067e 0484 0398 02d0 01f6 00a1     ..K.~...........
   13e78:	ff37 fe62 fdf3 fd09 fb21 fa22 f909 f7d0     7.b.....!.".....
   13e88:	f5fc f44f f309 f216 f16d f00e ef98 ef46     ..O.....m.....F.
   13e98:	eef3 ee3e edf7 ee1e eebd ef8a f0b4 f2a6     ..>.............
   13ea8:	f3bb f56b f7e9 fa4a fbb7 fe0a 018c 04bf     ..k...J.........
   13eb8:	0597 0759 0a8f 0c39 0c2c 0cb0 0ed0 0f62     ..Y...9.,.....b.
   13ec8:	0f30 0f2d 0fd5 1043 0ecd 0e76 0e79 0dc2     0.-...C...v.y...
   13ed8:	0bfb 0b8b 0ba0 0a80 094e 087e 07a9 061c     ........N.~.....
   13ee8:	0507 0390 027d 012d ffb8 fe2d fd8f fc43     ....}.-...-...C.
   13ef8:	fac7 f976 f879 f759 f5fc f4d5 f381 f305     ..v.y.Y.........
   13f08:	f271 f19d f139 f0d7 f0ef f0f6 f039 f096     q...9.......9...
   13f18:	f1cd f273 f268 f364 f5ef f81d f879 f9bf     ..s.h.d.....y...
   13f28:	fc80 ff93 ffd0 0021 03a2 062a 0603 0681     ......!...*.....
   13f38:	097c 0ae1 0b52 0bba 0d29 0e2e 0ef7 0f4a     |...R...).....J.
   13f48:	0fd3 102c 0fdf 101c 0ebc 0e36 0d8b 0d37     ..,.......6...7.
   13f58:	0b6a 0a49 097f 089d 06c3 04fe 0400 02ad     j.I.............
   13f68:	0114 feda fdf5 fc9e fb3e f939 f820 f72d     ........>.9. .-.
   13f78:	f5c5 f4a8 f3fe f37f f2be f268 f1d2 f217     ..........h.....
   13f88:	f2b1 f25c f248 f312 f3c0 f3b9 f475 f5a5     ..\.H.......u...
   13f98:	f70c f7f7 f8d0 fa50 fc15 fcaf fd20 ff20     ......P..... . .
   13fa8:	0010 00f4 01e0 0393 0504 0675 06ca 07f2     ..........u.....
   13fb8:	09be 0af8 0a06 0964 0ba3 0c82 0c50 0b6a     ......d.....P.j.
   13fc8:	0d02 0f76 0f4b 0ce5 0dac 0f2d 0d93 0a1b     ..v.K.....-.....
   13fd8:	09d8 0aba 08a1 0563 03cf 03ba 0266 ff2a     ......c.....f.*.
   13fe8:	fcfd fd9b fd22 f9e0 f81c f859 f79c f52d     ....".....Y...-.
   13ff8:	f35d f3e9 f42a f2e9 f240 f3b1 f492 f37a     ]...*...@.....z.
   14008:	f31e f50f f679 f620 f61e f845 f993 f99e     ....y. ...E.....
   14018:	f98f fae6 fc59 fce1 fd96 fe73 0088 00eb     ....Y.....s.....
   14028:	004e 019a 02fb 02fb 03ca 052e 0627 070d     N...........'...
   14038:	0793 0737 07e0 092f 09b3 0913 0968 0b14     ..7.../.....h...
   14048:	0bac 0a3e 09d7 0aea 0ba7 09b4 085a 0901     ..>.........Z...
   14058:	08d5 067f 03bf 039b 0313 00e4 fdda fdff     ................
   14068:	fe54 fbee f9da fa5a fa31 f809 f762 f754     T.....Z.1...b.T.
   14078:	f776 f693 f63b f71d f803 f702 f6a6 f864     v...;.........d.
   14088:	f8bd f7a1 f7ac f8fa fa15 fa2e fa90 fc10     ................
   14098:	fd1f fd27 fd06 fd97 fe21 fec4 ff6d 0012     ..'.....!...m...
   140a8:	019a 0274 022a 02e7 0427 047c 04c7 05ad     ..t.*...'.|.....
   140b8:	065b 06da 073d 0726 070e 0737 0730 0713     [...=.&...7.0...
   140c8:	0775 06c1 0699 0642 05f0 0517 0439 03b3     u.....B.....9...
   140d8:	0377 0268 00d6 0080 007e ff7d fe15 fe1e     w.h.....~.}.....
   140e8:	fe25 fdab fcb2 fc84 fca6 fc53 fba5 fb5b     %.........S...[.
   140f8:	fb63 fb59 fac6 fa6b fae0 fab5 fa91 fa67     c.Y...k.......g.
   14108:	fa83 faa5 fa69 faae fb3c fb86 fbfa fca3     ....i...<.......
   14118:	fd1f fd28 fd66 fe6a ff16 ff99 00d8 023e     ..(.f.j.......>.
   14128:	031e 0391 0412 059b 060e 05b7 0624 068e     ............$...
   14138:	0681 05cd 05a6 0563 04cd 0429 0419 0450     ......c...)...P.
   14148:	03ca 0368 02d6 028b 01c1 0117 00b2 0076     ..h...........v.
   14158:	003c ff0c fed3 fe98 fdff fda7 fdae fdff     <...............
   14168:	fdfd fda0 fda4 fe5d fded fd59 fd92 fdcf     ......]...Y.....
   14178:	fd91 fd1b fd6c fdb5 fdca fd3d fdb6 fe07     ....l.....=.....
   14188:	fdd9 fd98 fde6 fe87 fe8f ff38 ff83 002a     ..........8...*.
   14198:	ffe5 ff88 fff9 009d 00c6 00f9 0217 0258     ..............X.
   141a8:	023f 0262 033f 02eb 035c 02ed 031f 02ff     ?.b.?...\.......
   141b8:	021c 01f8 024e 020b 0168 01fa 01a5 0116     ....N...h.......
   141c8:	0090 0051 0079 ffd1 ff9d ff5e ff1d fe67     ..Q.y.....^...g.
   141d8:	fdd7 fddf fd67 fca9 fcdb fda5 fd58 fda2     ....g.......X...
   141e8:	fe04 fdd9 fdf6 fe29 fe88 ff53 ff8c ff92     ......)...S.....
   141f8:	002f 008c 0071 00a0 00c6 00d6 00d6 00d3     /...q...........
   14208:	00f9 0094 007d 004c 008a 007e 00c4 0123     ....}.L...~...#.
   14218:	015d 0174 0187 0178 0111 017c 0177 017a     ].t...x...|.w.z.
   14228:	0189 016b 0146 0143 00f3 00b8 00fe 00a9     ..k.F.C.........
   14238:	0129 00fe 00dc 0047 007a fff8 ff58 ff6a     ).....G.z...X.j.
   14248:	ff61 fed9 fe7a fef1 fe9d fe97 fdf4 fe07     a...z...........
   14258:	fdf3 fdff fdef fe49 fe4a fe0c fe4e fe62     ......I.J...N.b.
   14268:	febc fea8 ff77 0007 ffb0 ffd4 ff84 0002     ....w...........
   14278:	ffdd ffe7 0040 0093 005f 0026 002a 0044     ....@..._.&.*.D.
   14288:	003b 0051 00d4 00d4 0117 0173 0163 0135     ;.Q.......s.c.5.
   14298:	0190 0163 0161 01a7 0150 01b5 0128 012f     ..c.a...P...(./.
   142a8:	00e7 0101 00f6 012a 012e 00bb 0067 0029     ......*.....g.).
   142b8:	004c ff6c fefd ff17 ff4b fe89 fef0 fecd     L.l.....K.......
   142c8:	fe63 fea8 fe7e feb9 fe51 fe7b fe74 fec0     c...~...Q.{.t...
   142d8:	fee4 fece feec ff71 ff23 ff2e ff84 ff18     ......q.#.......
   142e8:	ff10 ff0d ff01 ff36 ff3a ff42 ffea 0005     ......6.:.B.....
   142f8:	ffc4 ffdb fff5 00a7 00f7 0114 017d 019a     ............}...
   14308:	0189 0193 01b6 01c7 021c 024a 0220 01f5     ..........J. ...
   14318:	023a 01d6 0156 0135 008b 002c 0015 ffdf     :...V.5...,.....
   14328:	ff2c ff89 ff97 ff51 ff48 ff92 ff44 fee8     ,.....Q.H...D...
   14338:	ff26 fef1 fef4 fecd fedb ff0b ff09 ff53     &.............S.
   14348:	ff51 ff9f ffda ffd8 ffd5 000c ffb1 ffb9     Q...............
   14358:	ffff ffcf ff7b ff3a ff8d ff3d ff37 ff9b     ....{.:...=.7...
   14368:	ffaa 000e ffdc 002e 0048 0092 007d 00e1     ........H...}...
   14378:	0102 012d 00e6 014b 0159 00d2 00c1 0146     ..-...K.Y.....F.
   14388:	01a2 0127 012c 0143 0154 00cf 00be 00c4     ..'.,.C.T.......
   14398:	00d5 0070 0058 0083 0011 fff3 ffa7 ff3e     ..p.X.........>.
   143a8:	fee4 ff11 feea ff23 ff2e fedc fed8 fef2     ......#.........
   143b8:	fed5 fe77 fee0 ff06 fef9 ff1f ff46 ff33     ..w.........F.3.
   143c8:	ff1d ff49 ff9f ff5e ff83 ffc6 ffce ff9a     ..I...^.........
   143d8:	ffd4 ffce ff7f ffd0 ffde ffd7 0012 0022     ..............".
   143e8:	fffc 0082 0084 003a 0037 0083 004e 007b     ......:.7...N.{.
   143f8:	00a3 00ad 00ff 00bc 0116 00d2 0129 00db     ............)...
   14408:	00ce 00ef 0115 00e3 00bd 0090 00c9 00ee     ................
   14418:	0049 0034 0010 001e ffe6 ffcb ffd9 ff99     I.4.............
   14428:	ff40 fedc ff14 fecb fec6 fed8 ff16 ff12     @...............
   14438:	ff19 ff0f ff2f ff74 ff97 ffae 0003 0006     ..../.t.........
   14448:	fffa 0012 ffad ffa9 001b 0023 001d 007b     ..........#...{.
   14458:	00a2 00a7 0081 003a 0069 0082 005f 004f     ......:.i..._.O.
   14468:	00bf 00fc 00b1 0097 00db 00b3 00dd 008d     ................
   14478:	0090 00ce 00ee 00c5 009c 00aa 00ab 0058     ..............X.
   14488:	fffa 002b 0033 001c fffd ffc6 ffe4 ff75     ..+.3.........u.
   14498:	ff72 ff26 ff0c feee fe7b fe6f feb7 fec7     r.&.....{.o.....
   144a8:	fe78 fe96 fefe ff07 ff39 ff51 ff3f ff3a     x.......9.Q.?.:.
   144b8:	ff3e ff78 ff82 ff81 ffc8 ffd0 000a 0052     >.x...........R.
   144c8:	002a 0054 0076 007a 0034 006a 0065 0088     *.T.v.z.4.j.e...
   144d8:	006d 0023 0026 0035 0049 0061 00ab 00c9     m.#.&.5.I.a.....
   144e8:	00d5 00c8 00c1 00d8 007c 0090 008f 0065     ........|.....e.
   144f8:	0077 0062 0037 004d 007c 006a 0077 006d     w.b.7.M.|.j.w.m.
   14508:	0066 004e 0032 000b 002a ffc0 ff93 ffa0     f.N.2...*.......
   14518:	ff72 ff29 ff01 ff5a ff7f ff75 ff72 ff96     r.)...Z...u.r...
   14528:	ff90 ff8a ff9d ffae 0012 ffed 0004 0004     ................
   14538:	0021 0019 000b 0006 0041 001b 0002 001d     !.......A.......
   14548:	0007 0029 0048 fff4 ffe8 001b 0012 ffff     ..).H...........
   14558:	0018 001d 0019 0027 0072 0077 0040 0089     ......'.r.w.@...
   14568:	0075 008d 0073 006c 0060 0084 0042 0060     u...s.l.`...B.`.
   14578:	0032 ffe9 0029 fff1 0008 ffe4 ffea ffb3     2...)...........
   14588:	ffa9 ff82 ff8b ff7a ff50 ff70 ff6b ff88     ......z.P.p.k...
   14598:	ff98 ffa5 ffe0 fff0 fff3 0009 fff1 fff6     ................
   145a8:	ffb6 0006 fff3 ffd6 ffb5 ffbe fff4 fff4     ................
   145b8:	ffde ffde 000b ffde 0008 001b fff3 ffc7     ................
   145c8:	fff8 ffe6 000e 0007 0003 003f 004c 002a     ..........?.L.*.
   145d8:	0022 0050 0060 0032 002a 0063 0020 002f     ".P.`.2.*.c. ./.
   145e8:	001e 0033 ffe7 fffe ffce 001e 0002 ffe4     ..3.............
   145f8:	ffe2 0000 ffe6 ffc2 ff84 ff84 ff92 ff97     ................
   14608:	ffb1 ffbd ffcd ffd2 ffb1 ffc4 ffcd ffc3     ................
   14618:	ffdb fffd 0018 0034 ffe6 ffda ffbf fff0     ......4.........
   14628:	0016 004a 0029 006f 0085 005f 006f 008e     ..J.).o..._.o...
   14638:	00c0 00b4 009d 007d 0088 0090 0043 0088     ......}.....C...
   14648:	00dd 005c 007c 0054 006b 0021 ffee ffc8     ..\.|.T.k.!.....
   14658:	0037 0006 ffbb 0000 ffe3 fff2 ffaf ffa8     7...............
   14668:	ffa1 ffce ffb5 ffdf fff8 fffa ffeb ffdd     ................
   14678:	ffdb 0000 ffec ffaf ffd9 ff9c ff5e ff1d     ............^...
   14688:	ff5d ff6e ff58 ff44 ff63 ff51 ffb9 ff73     ].n.X.D.c.Q...s.
   14698:	ff8b ffbb ffbc ffcc ffa0 ffd2 ffd4 ffbe     ................
   146a8:	0012 0010 0049 0059 008c 00b3 0091 00c0     ....I.Y.........
   146b8:	0089 0070 0058 0079 0054 0008 0008 0006     ..p.X.y.T.......
   146c8:	0025 0019 0039 0013 ffee 0019 001d 0009     %...9...........
   146d8:	0040 fff6 fffd 005b 001e 000e 0036 0073     @.....[.....6.s.
   146e8:	0037 005c 0038 004d 0010 fff5 fffe 0027     7.\.8.M.......'.
   146f8:	fff7 ffec ffa4 ffd7 ffb4 ffbd ffaf ff76     ..............v.
   14708:	ff9f ff87 ff52 ff63 ff81 ff82 ff65 ff38     ....R.c.....e.8.
   14718:	ff7d ff57 ff56 ff8e ffb8 ffca ffe2 fff7     }.W.V...........
   14728:	0006 003e ffea 002c 0037 0003 0038 0072     ..>...,.7...8.r.
   14738:	0053 0063 004b 008f 0083 0063 00af 00ab     S.c.K.....c.....
   14748:	009f 0098 00b0 00e6 00a9 009a 00c0 0096     ................
   14758:	006b 0076 007c 004e 001f 0024 0054 ffe5     k.v.|.N...$.T...
   14768:	fff0 000a ffd9 0014 ffe1 ffeb ffc5 ffef     ................
   14778:	ffd6 fff8 ffaa ffe8 ffc5 ffda ffb8 ffb1     ................
   14788:	ffae ff8d ffa5 ff90 ffbf ffb4 ffd0 ff91     ................
   14798:	ffa4 ff8c ff94 ff39 ff70 ff78 ff6d ff8a     ......9.p.x.m...
   147a8:	ff89 ffdd fff1 ffea ffe1 0018 001b 0029     ..............).
   147b8:	005b 002d 002d 004b 0073 0068 0079 007e     [.-.-.K.s.h.y.~.
   147c8:	005b 0075 0099 0055 003f 007a 004a 005a     [.u...U.?.z.J.Z.
   147d8:	0032 000a 0014 0008 000d ffc3 ff90 ffaf     2...............
   147e8:	ffc1 ffa4 ffba ffbc ff79 ffba ffce ffb8     ........y.......
   147f8:	ff9e ffa5 ff61 ff8d ff9a ff56 ff48 ff99     ....a.....V.H...
   14808:	ffa9 ffa0 ffa8 ff8f ffcf ffcb ffc5 ffdd     ................
   14818:	ffb5 ffd1 ffd1 ffc5 ffb5 fff4 ffd7 fffb     ................
   14828:	003e 003b 0072 006e 0086 00a1 00df 00f7     >.;.r.n.........
   14838:	0111 0108 0122 0150 0139 011c 00e8 00f2     ....".P.9.......
   14848:	00ea 00d8 00bd 008e 0092 0071 005d 001c     ..........q.]...
   14858:	0036 0003 ffdd ff83 ff22 ff37 ff4b ff1b     6.......".7.K...
   14868:	feeb fee9 ff6b ff27 ff13 ff53 ffb0 ffa5     ....k.'...S.....
   14878:	ff9a ffd6 ffe2 ffea ffdb 0000 ffec 0008     ................
   14888:	fff0 0031 0014 000d 0000 000a 0049 004a     ..1.........I.J.
   14898:	001f 0017 002f fffe 001a ffd1 ffd5 0016     ..../...........
   148a8:	0014 ffdd fff5 0043 000b 000c 0009 0022     ......C.......".
   148b8:	ffe3 0028 ffff ffe4 ffd7 ffd7 ffd8 ffa7     ..(.............
   148c8:	fff2 ffdd fffa 0001 0015 fffe ffea ffe3     ................
   148d8:	001d ffda ffef 0016 fff7 001e 004f 0004     ............O...
   148e8:	001f 0059 004c 004d 003b ffe7 ffe5 ffd3     ..Y.L.M.;.......
   148f8:	ffc5 ff85 ffcb ffce ff8e ffba ffa8 ff90     ................
   14908:	ff85 ffc6 ffab ffbb ffb9 ffe2 ffe6 ffac     ................
   14918:	ff91 ffc9 0004 fff5 005f 004c 004a 0074     ........_.L.J.t.
   14928:	0046 003c 001a 0042 003a 0015 0033 0045     F.<...B.:...3.E.
   14938:	0006 002f 0038 0061 0080 0067 00a0 00c8     ../.8.a...g.....
   14948:	00e2 0093 0085 00b0 0051 0061 0047 0028     ........Q.a.G.(.
   14958:	000a 0007 ffce ffef ffdf ffd6 fff7 fffb     ................
   14968:	fff5 ffc4 ffc3 0001 ffd7 ff9e ffea ffe7     ................
   14978:	0001 000e ffce ffde ffe6 ffe2 fff9 0039     ..............9.
   14988:	003b 0028 0038 0016 0022 003e 000f ffd1     ;.(.8...".>.....
   14998:	fff0 000d fff7 ffae ffed ffdd ffeb ffb0     ................
   149a8:	ffac ffdd ffff ffc7 ff7c ff80 ffa2 ff83     ........|.......
   149b8:	ff8e ff97 ffba ffbd ff7c ff84 ff98 ff9c     ........|.......
   149c8:	ff80 ffab ffb9 ffb2 ffa1 ff62 ff8a ffb3     ..........b.....
   149d8:	ff92 ff68 0024 0054 0063 0035 0066 008a     ..h.$.T.c.5.f...
   149e8:	0090 0074 00ad 00aa 0093 008e 0072 0070     ..t.........r.p.
   149f8:	0029 0040 0050 0001 0018 0053 0035 0040     ).@.P.....S.5.@.
   14a08:	0024 000f 002d 0003 0016 fff6 0011 004e     $...-.........N.
   14a18:	0040 0046 0040 001c fff4 ffee fff0 0004     @.F.@...........
   14a28:	ffde ffe4 ffd1 ff8f ffb4 ff84 ff5e ffb2     ............^...
   14a38:	ff7f ff80 ff7a ffba ffd4 ffce ffc4 ffcb     ....z...........
   14a48:	ffe5 ffea 001d 0010 0013 001a 002a fffd     ............*...
   14a58:	004d 0054 005f 0068 000e 006f 0073 0036     M.T._.h...o.s.6.
   14a68:	0007 0036 0039 0031 0009 fff9 0014 0073     ..6.9.1.......s.
   14a78:	004e 002a 003f 0072 005a 001e 0061 0065     N.*.?.r.Z...a.e.
   14a88:	0058 002b 0022 0028 0016 001e 0044 0019     X.+.".(.....D...
   14a98:	002d fff9 ffe9 ffce ffc2 ffa7 ffa6 ffb5     -...............
   14aa8:	ff8b ff76 ffcd ffb8 ff63 ffa4 ff9d ff8f     ..v.....c.......
   14ab8:	ffc5 ffc4 ffc5 ffed fffc 0010 ffdb fffb     ................
   14ac8:	0009 0034 ffe9 ffbf ffe0 ffe2 ffd4 ff88     ..4.............
   14ad8:	ffbc ffb5 ff9c ff74 ff95 ff7d ff57 ff7a     ......t...}.W.z.
   14ae8:	ff8a ff74 ff6d ffc0 ffee ffe6 0001 fffa     ..t.m...........
   14af8:	ffff 0015 0017 0028 002f 0052 005b 006e     ......(./.R.[.n.
   14b08:	0091 009a 0093 00b3 00b6 006c 0072 0077     ..........l.r.w.
   14b18:	0070 0085 0044 0084 007c 0059 0054 005b     p...D...|.Y.T.[.
   14b28:	005b 0003 001d ffe3 fff9 0023 ffe2 ffd8     [.........#.....
   14b38:	ffec 000d ffd9 ffee fff6 0004 0003 fff0     ................
   14b48:	ffce ff93 ffba ffda 0005 000c fffb 0002     ................
   14b58:	fffa fffd fff2 ffc8 ffdb fffb ffe9 0013     ................
   14b68:	ffde ffc4 ffb3 0002 ffc4 ffd4 0019 0007     ................
   14b78:	001d 0002 0019 0028 000a 000b 003e 0029     ......(.....>.).
   14b88:	0001 ffff ffea fff5 ffcf ffc8 ffb8 0037     ..............7.
   14b98:	0020 ffdd fffc 0000 ffe7 0006 ffe7 0004      ...............
   14ba8:	ffea ffd0 0016 fff9 0016 0032 0065 0073     ..........2.e.s.
   14bb8:	006a 0050 006e 0015 0026 0046 002a fffc     j.P.n...&.F.*...
   14bc8:	ffd2 ffda ffbe ffbb ff98 ffb5 ff98 ff6c     ..............l.
   14bd8:	ffab ff96 ff3d ff77 ff5c ff7c ffaa ffc2     ....=.w.\.|.....
   14be8:	fffe 0004 0012 ffe6 0008 fffa ffd4 000a     ................
   14bf8:	ffe4 000a ffee 0004 0037 0055 0010 0046     ........7.U...F.
   14c08:	0029 0033 0033 0034 004b ffdd 002f 004d     ).3.3.4.K.../.M.
   14c18:	0052 0006 000d 0022 002a 001c 001d 001e     R.....".*.......
   14c28:	0050 0017 ffce 002b 0002 ffd9 ffbb 0004     P.....+.........
   14c38:	0014 000f 0003 0004 ffe8 0016 fff8 ffce     ................
   14c48:	0002 003f ffe9 000f fff8 0012 fff4 0029     ..?...........).
   14c58:	0032 0053 0070 0042 006c 0032 0039 001e     2.S.p.B.l.2.9...
   14c68:	0046 000f 0011 ffec ffe1 ffb9 ffd6 ffee     F...............
   14c78:	ffda ffd5 0012 ffff 001c 0009 ffb1 ffce     ................
   14c88:	fffa 0015 002d 0050 003d 0010 0016 005a     ....-.P.=.....Z.
   14c98:	0028 002a 0011 001c 0036 0031 ffd4 0022     (.*.....6.1...".
   14ca8:	0009 ffbb ff93 ffa0 ffe2 ffbc ffa0 ff79     ..............y.
   14cb8:	ff68 ff59 ff59 ff3d ff5c ff94 ffb3 ffa3     h.Y.Y.=.\.......
   14cc8:	ffad ffea fff1 001e 001c 0053 003f 0028     ..........S.?.(.
   14cd8:	fff4 ffaa 0009 ffeb ffc0 ffc4 ffe3 fffe     ................
   14ce8:	fffe ffcc ffe4 ffd9 ffe6 fff8 ffbc ffe8     ................
   14cf8:	001c 002b 005f 0057 0076 006f 0079 0091     ..+._.W.v.o.y...
   14d08:	00a0 00a4 00be 00b5 007d 0096 0083 0052     ........}.....R.
   14d18:	005c 002f 0002 002e 001e ffbd ff99 ff8b     \./.............
   14d28:	ff75 ff3a ff2c ff14 ff14 ff19 ff6a ffa0     u.:.,.......j...
   14d38:	ffd4 ffbf ffb1 0001 001a 0038 002d 004c     ..........8.-.L.
   14d48:	0069 006d 0085 0080 0071 0091 00ad 00b5     i.m.....q.......
   14d58:	00a5 0089 00a1 0076 0056 002d 0050 ffff     ......v.V.-.P...
   14d68:	0004 fffe 003c 002f fffc 0002 fffc ffdd     ....<./.........
   14d78:	ffa4 ffa3 ffbd fffb 0007 001a ffc6 ffe1     ................
   14d88:	0013 fffe ffdc ffcf ffed ffe0 fff3 fff3     ................
   14d98:	ff7b ffa9 ffd2 ffc9 ff9b ffe1 ffd8 ffc1     {...............
   14da8:	fff5 ffee ffc1 ffcf ffba ff77 ffaa fffe     ..........w.....
   14db8:	ffdb fffd 0014 0010 000c 000d fffe ffb9     ................
   14dc8:	ffe9 ffb0 ff80 ff87 ff90 ffa0 ff98 ff88     ................
   14dd8:	ff91 ffa0 ffad ffe7 ffe8 0024 fff0 0023     ..........$...#.
   14de8:	000f ffec fff8 0023 0057 004b 0068 00b8     ......#.W.K.h...
   14df8:	0093 0086 00ab 0058 008a 007e 00a6 00b8     ......X...~.....
   14e08:	0080 007d 0055 0020 0035 0090 001c 003c     ..}.U. .5.....<.
   14e18:	004c 001c ffd5 001b ff93 002b 003c 004f     L.........+.<.O.
   14e28:	0016 ffd8 fff0 ffd5 0086 fff4 ff95 ffa3     ................
   14e38:	001a ffc2 ffc5 ffb9 ff7b ff8d ff9d ffb0     ........{.......
   14e48:	ffb9 ffb0 ffc8 ffc7 ff95 ffb8 ffc8 ffd6     ................
   14e58:	ffd8 ffdd ffec fff4 fff2 ffd8 ffee 0006     ................
   14e68:	006f 0062 0026 00a5 0093 0076 003f 0076     o.b.&.....v.?.v.
   14e78:	005e 0041 000e 0013 ffea ffeb fff0 fff3     ^.A.............
   14e88:	0038 fff3 ff84 ffb7 ffae ffc2 ffce fff8     8...............
   14e98:	0011 ffb2 ffc8 fff0 fff5 ffbd ffc5 ffcb     ................
   14ea8:	ffda fff8 0006 0007 ffba ffcb ffb4 ff72     ..............r.
   14eb8:	ff68 fff5 ffb4 ff81 ffe2 ffd4 ffed ffbf     h...............
   14ec8:	ffd7 ffc0 ffb1 ffc9 ffca 000a 0048 002f     ............H./.
   14ed8:	003c 0067 0080 0043 003e 00a0 0098 00a8     <.g...C.>.......
   14ee8:	007c 008d 0043 0023 0066 0012 0035 005c     |...C.#.f...5.\.
   14ef8:	0049 0033 0018 0038 002c 0033 fff9 0004     I.3...8.,.3.....
   14f08:	000c ffb6 ffd2 ffe3 ffd2 fff9 0019 0005     ................
   14f18:	ffd8 ff9f ffba ff6f ffcc ffec ffe4 ffc9     ......o.........
   14f28:	fff8 ffe6 ffc9 ffd7 0009 ffee ffb2 ffb3     ................
   14f38:	ffa5 ffcd ffeb ffe4 ffed ffef ffd5 ffc6     ................
   14f48:	ffca ffc2 ffbc ffa2 ffb7 ffcb ffe2 fff0     ................
   14f58:	000d 0039 0028 0042 0068 0072 007f 00a6     ..9.(.B.h.r.....
   14f68:	00a6 007e 0096 00c2 00a7 00a4 00b9 00b6     ..~.............
   14f78:	00bb 009d 00cc 00c4 00ce 00a9 003b 0034     ............;.4.
   14f88:	0026 000b fff8 fff3 ffc9 ffaf ffc5 ff52     &.............R.
   14f98:	ff44 ff39 ff68 ff4a ff51 ff46 ff54 ff5b     D.9.h.J.Q.F.T.[.
   14fa8:	ff3c ff13 ff29 ff6f ff45 ff53 ff7d ffc2     <...).o.E.S.}...
   14fb8:	ffaa ff98 ffce ff91 ff94 ffb7 fffa ffde     ................
   14fc8:	0010 003d 0087 0084 006b 002f 0039 0053     ..=.....k./.9.S.
   14fd8:	0030 0070 003a 0023 0035 004e 0050 002c     0.p.:.#.5.N.P.,.
   14fe8:	0069 0066 0087 0066 005b 0056 004c 0052     i.f...f.[.V.L.R.
   14ff8:	0021 000e ffed 0039 0044 ffe2 ffe1 fffa     !.....9.D.......
   15008:	ffe8 ffd9 ffa7 ffce ffcc ffce ffcc ffe6     ................
   15018:	ffe6 ffb9 ff85 ffa4 ffd3 ff93 ffd4 ffd4     ................
   15028:	ffe7 ffd9 0034 0005 ffc0 ffe6 000e ffdc     ....4...........
   15038:	ffac ffea ffe6 0017 ffc0 0012 000d 0015     ................
   15048:	001b 0018 0023 0058 0070 004f 008e 009b     ....#.X.p.O.....
   15058:	009c 006f 005e 0085 007c 0078 0082 0079     ..o.^...|.x...y.
   15068:	00ce 00a5 0083 0066 0040 003f ffdb 0025     ......f.@.?...%.
   15078:	0002 fff3 ffff ffe6 ffbc ffea ffd1 ff93     ................
   15088:	ffa4 ffa7 ffd1 ffea ffb6 ff67 ffc1 ffd1     ..........g.....
   15098:	ff87 ffb3 000b ffc8 ffd8 ffe2 ffa3 ff9f     ................
   150a8:	ff8c ff73 ff7a ff86 ff81 ff87 ff54 ff79     ..s.z.......T.y.
   150b8:	ff99 ff62 ff97 ffb2 ff68 ff8d ffda ffcd     ..b.....h.......
   150c8:	ffb7 0007 0053 001f 0054 004c 0061 0095     ....S...T.L.a...
   150d8:	00a9 0091 008e 0092 003e 009b 003c 004b     ........>...<.K.
   150e8:	0036 001a 0005 006b 0008 003a 005d 0005     6.....k...:.]...
   150f8:	ffe6 ffdb 0013 001f 0016 0008 fff0 ffaa     ................
   15108:	ffd7 ffb3 ffad ffd5 000c fffa ffca ffeb     ................
   15118:	fffd 0002 ffc0 ffd7 0004 ffed fff7 ffc4     ................
   15128:	002b ffca ffe6 fffc 002f 001c 004a 000c     +......./...J...
   15138:	0006 001d 005f fffe ffff 005e 0014 0018     ...._.....^.....
   15148:	ffe2 0024 001d fff8 000e 001f 0021 0013     ..$.........!...
   15158:	003c 002f 0027 fff2 002d 005d 0060 0039     <./.'...-.].`.9.
   15168:	0024 0034 0037 005d 0047 0086 00bf 007b     $.4.7.].G.....{.
   15178:	005b 002d fff6 ffef 0027 ffe9 ffb9 ffb1     [.-.....'.......
   15188:	ffde ff93 ffa9 ffb5 ffa8 ff84 ff62 ffd9     ............b...
   15198:	ffaa ff77 ffa8 ff92 ff80 ff81 ff73 ffbe     ..w.........s...
   151a8:	ffb9 0016 0003 ffcf ffd8 0012 ffd9 ffa7     ................
   151b8:	ffd3 ffea ffd6 ffc6 ffd7 ffdb ffab fffe     ................
   151c8:	ffdc ffd4 ffd0 ffed 0007 ffe5 ffe4 0002     ................
   151d8:	009b 002f 0046 00b2 003d 0068 0075 0058     ../.F...=.h.u.X.
   151e8:	002d 0083 008f 001f 005d 0094 0063 0058     -.......]...c.X.
   151f8:	0040 000e 0016 ffe0 ffe0 0003 ffe3 000b     @...............
   15208:	ffb5 ff85 ff82 ff1e ff41 ff8c ffb3 ffeb     ........A.......
   15218:	ffd2 ffd2 ffec ffa5 ffcf ffbb ffe1 ffde     ................
   15228:	ffbb ffc8 ffd1 ffb0 fff3 0004 0021 0034     ............!.4.
   15238:	00ae 005a 0039 0072 0095 0053 003d 00b8     ..Z.9.r...S.=...
   15248:	00ac 0078 0079 00cb 00af 0091 0087 0094     ..x.y...........
   15258:	00bc 008a 0038 005f 0051 000e fff3 ffc0     ....8._.Q.......
   15268:	ffdb ffaa ff77 ff7f ffc6 ff78 ff6c ff6b     ....w.....x.l.k.
   15278:	ff56 ff75 ff6f ff6e ff5e ff63 ff69 ff97     V.u.o.n.^.c.i...
   15288:	ff81 ffac ff7d ff54 ff90 ffdb fffb 000a     ....}.T.........
   15298:	0023 002b 004e 0081 0084 000e 0032 0079     #.+.N.......2.y.
   152a8:	0022 002b 0049 0067 005b 006c 0046 004d     ".+.I.g.[.l.F.M.
   152b8:	0079 0020 0033 0035 003f ffeb 0004 0009     y. .3.5.?.......
   152c8:	ffe3 fffa 000a fff2 0019 003e 0018 ffd9     ..........>.....
   152d8:	fff7 002a 000b ffd3 ffcc ff9f ffca ffd3     ..*.............
   152e8:	ffbd ffda ffcf ffd6 ffd8 ff93 ff95 ffd2     ................
   152f8:	ffcc ffc9 ffdb ffc5 ffab ffdd ffc8 ffef     ................
   15308:	ff68 ffe0 fff2 0000 0007 0010 0055 0004     h...........U...
   15318:	fff7 fff3 000e 0010 0040 005a ffd7 ffc3     ........@.Z.....
   15328:	0007 ffd3 ff9d 003b ffed ff9c 000e fff3     ......;.........
   15338:	002c 0022 0074 0041 0076 0075 0088 0015     ,.".t.A.v.u.....
   15348:	0051 00a0 0083 00af 00b9 00ef 0067 007d     Q...........g.}.
   15358:	006b 0062 0060 0062 007a 001e ffba 001b     k.b.`.b.z.......
   15368:	ffed ffe9 ffe1 ffc3 ffc5 ff8f ff67 ff67     ............g.g.
   15378:	ff9b ff94 ffc3 ff91 ff80 ffd7 ffae ffbb     ................
   15388:	ffd9 ffb9 ffd8 001c ffee ffe0 fff4 0032     ..............2.
   15398:	fffd 002b 0040 0009 000a 000b 001e ffed     ..+.@...........
   153a8:	ffff 0017 000b ffc5 0017 003f ffe7 000a     ..........?.....
   153b8:	fffb ffff ffd6 ffc4 ffe3 0009 0003 fff6     ................
   153c8:	0006 ffe4 001d 0010 ffc1 ffe1 0011 0027     ..............'.
   153d8:	0015 0015 ffe1 0021 0014 fff1 ffa1 0015     ......!.........
   153e8:	ff2c 005f 0068 ff7e 00b5 ffaa ffa7 0035     ,._.h.~.......5.
   153f8:	000b 0025 fff8 ffd6 ffea ffa3 ffd1 ff81     ..%.............
   15408:	ff9c fffc ffb4 ff87 ffc1 fff8 001c 0018     ................
   15418:	0015 003a ffeb 003b 002e ffe5 fff2 ffe4     ..:...;.........
   15428:	ffa0 0018 fff2 0014 004b fffe 0043 000d     ........K...C...
   15438:	ffda 001d 002f 000d 0023 002c 0026 0003     ..../...#.,.&...
   15448:	0003 ffe7 001a 005c ffeb 0019 fff3 001d     ......\.........
   15458:	005a ffe8 fff1 0017 001e ffe4 002f 0007     Z.........../...
   15468:	001d 0026 0030 005a 0009 fffc 004c 007c     ..&.0.Z.....L.|.
   15478:	0070 0041 001f 0033 0075 005a 0062 008d     p.A...3.u.Z.b...
   15488:	006f 004d 0070 004e 002b 003a 002a 003b     o.M.p.N.+.:.*.;.
   15498:	0011 fff2 fffc ffdf 001d 0008 ffbe ffcd     ................
   154a8:	ff85 ffc0 ffa6 ff4c ffb4 ff88 ff99 ff5c     ......L.......\.
   154b8:	ff09 ff74 ff5a ff11 ff9f ff82 ff6c ff6e     ..t.Z.......l.n.
   154c8:	ffa6 ff79 ffc5 ffc4 ffcd ffc5 ffd6 fff6     ..y.............
   154d8:	ffd1 0043 ffa9 000e 0041 ffb8 0000 fffd     ..C.....A.......
   154e8:	ffbe 0002 fffc ffd9 002f 001b 0028 002e     ......../...(...
   154f8:	0056 005a ffe0 0032 0076 0057 fffd 0041     V.Z...2.v.W...A.
   15508:	0044 002f 006b 0081 005d 0045 006f 0092     D./.k...].E.o...
   15518:	00b0 006f 0051 0046 0092 0072 0046 0025     ..o.Q.F...r.F.%.
   15528:	0016 0015 001f 0005 ffc2 ffda fff3 ffd0     ................
   15538:	ffeb ffb7 ffad ffc4 ffc0 fff8 0032 ffcd     ............2...
   15548:	ffca ffb9 ffb6 fff3 fff0 000d ffd1 fff0     ................
   15558:	ffce ffd5 ffd4 ffe8 ff96 fffe 005d 0008     ............]...
   15568:	0024 fffa 0028 0065 ffea fff6 0036 001c     $...(.e.....6...
   15578:	001c ffc3 fffa 0060 fff7 fff0 fff9 ffea     ......`.........
   15588:	ffb8 0016 ffd2 ffc6 ffdb 0038 fff8 ffcb     ..........8.....
   15598:	0031 0030 0037 0019 001a 002e 006e 0049     1.0.7.......n.I.
   155a8:	0021 0037 006b 0004 0002 0047 fffc ffe8     !.7.k.....G.....
   155b8:	ffe5 ffc9 ffdd ffbb fffa ffc7 ffb9 0023     ..............#.
   155c8:	fff3 ff99 ffcc 0005 fffd 000c fff0 ffa9     ................
   155d8:	ffba fff5 ff9a ffe1 0033 0012 ffb1 fff6     ........3.......
   155e8:	0012 ffbe ffbd ffa2 ffee ffb9 ffcf ffef     ................
   155f8:	ffa4 ffb7 ffe4 fff1 ffe8 0009 003d fff4     ............=...
   15608:	ffbb 000d 0034 0014 0003 ffe2 002b 0008     ....4.......+...
   15618:	0028 ffd7 ffa2 0027 ffde ffb4 fffb ffff     (.....'.........
   15628:	fffa 0001 0000 0016 ffc7 ffed 000c ffde     ................
   15638:	003b 005a 0048 0016 0018 0046 0023 0028     ;.Z.H.....F.#.(.
   15648:	0019 0033 0028 007b 002d 0025 0060 0055     ..3.(.{.-.%.`.U.
   15658:	004d 004f 00b6 004f 0066 006d 0078 0099     M.O...O.f.m.x...
   15668:	005c 006b 006c 00ae 005a 0036 0012 000a     \.k.l...Z.6.....
   15678:	0007 ffeb 0022 0011 ffee ffe2 0033 fff0     ....".......3...
   15688:	ffac ffd0 fffb ff98 ff81 ff89 ff6d ff75     ............m.u.
   15698:	ff7a ff9c ff52 ff47 ff7d ff84 ff7a ff88     z...R.G.}...z...
   156a8:	ff59 ff49 ffb8 ff45 ff9e ff9c ffde ffc4     Y.I...E.........
   156b8:	ffa2 ffe0 ffe7 0037 ffef 0046 0039 fff3     ......7...F.9...
   156c8:	0012 000b fff6 000c 0056 006c 009c 005d     ........V.l...].
   156d8:	006c 006e 0071 0084 001f 0029 0076 000e     l.n.q.....).v...
   156e8:	003a fffe 0004 0012 fffb ffee 0014 0066     :.............f.
   156f8:	ffe5 ffd3 ffda 002f 0021 ffcc 000f 0037     ....../.!.....7.
   15708:	001d 000a 0005 000b 0026 002a 0015 0018     ........&.*.....
   15718:	0010 001c 003f 0007 fff7 ffec fffc ffff     ....?...........
   15728:	000a 000c ffe3 ffeb ffd2 ffad ffae ff88     ................
   15738:	ffaa ff9c ff9f ff9f ffa8 ffd9 ffea ffec     ................
   15748:	fffd fff9 0015 fff7 0037 0007 ffe8 ffd1     ........7.......
   15758:	ffff 004d ffff ffec fff2 ffcc ffe2 0000     ..M.............
   15768:	ffdc 001d 0047 003c ffeb 0031 0020 000b     ....G.<...1. ...
   15778:	001f 0015 0033 0052 0049 005a 002e 0050     ....3.R.I.Z...P.
   15788:	0048 002f 003e 003d 0040 0078 0062 fff9     H./.>.=.@.x.b...
   15798:	0020 0055 0011 fff1 001e 0020 ffdb ffd5      .U....... .....
   157a8:	000e 001e 0008 0015 000d fffd 0040 0008     ............@...
   157b8:	ffe0 0022 0016 ffeb 001e 0016 0013 001a     ..".............
   157c8:	0054 fff6 ffed fff2 ffde ffcf ff9b ff7a     T.............z.
   157d8:	ff9f ff60 ff90 ffb0 ff77 ff6f ffba ff85     ..`.....w.o.....
   157e8:	ff95 ffa1 ffb2 ffbe ff63 ff7a ff83 ffac     ........c.z.....
   157f8:	ff96 ffb1 ffcd ffcb 0012 0024 fff5 001a     ..........$.....
   15808:	004d 0004 0005 000c 005e 0014 0025 0024     M.......^...%.$.
   15818:	0058 002a 0089 0059 005a 0070 003a 002d     X.*...Y.Z.p.:.-.
   15828:	0012 0057 003f 0058 0041 006a 0053 0020     ..W.?.X.A.j.S. .
   15838:	0011 000f ffe0 ffda ffe3 fff4 002a 0021     ............*.!.
   15848:	ffd9 001d 000c 0032 0050 0036 0058 002c     ......2.P.6.X.,.
   15858:	000d 0038 ffe6 ffec fff0 ffb7 ffdd ffa5     ..8.............
   15868:	ff9a fff3 fff2 ffd0 ffe4 ffec 0014 fff9     ................
   15878:	ffe0 000b 0013 0024 001a 003a 000c 0038     ......$...:...8.
   15888:	0063 0025 0020 0014 003f ffec ffe3 000a     c.%. ...?.......
   15898:	0016 ffa3 ffca fff2 ff91 ff9e ffde fff2     ................
   158a8:	ffda ffc4 ffe2 ffff ffc0 ffd5 0020 0013     ............ ...
   158b8:	003b 003b 0024 0034 0065 004a 0065 0037     ;.;.$.4.e.J.e.7.
   158c8:	0057 0038 ffe5 ffe2 0010 0022 000d 0002     W.8.......".....
   158d8:	ffdc ffea ffeb ffc8 ffae 0010 ffd9 ffd7     ................
   158e8:	ffc5 ffc2 ffc9 ffd5 ffec fffd ffd6 000c     ................
   158f8:	0021 005a 0019 ffdb ffe5 0022 0019 ffdd     !.Z.......".....
   15908:	ff89 ffdc ffe0 ffbe ffbf fff1 ff99 ffd5     ................
   15918:	ffd7 ffd7 ffef fff3 ffbd ffe9 0003 ffef     ................
   15928:	0008 ffbe 001f 0016 0014 0024 0028 003c     ..........$.(.<.
   15938:	0045 003b 0003 ffe0 ffbe ffd0 ffac ffb0     E.;.............
   15948:	ff7b ffb8 ffc3 ffae ff87 ffc0 ffea ffe8     {...............
   15958:	000e 0021 002f fff4 0047 0061 0070 006e     ..!./...G.a.p.n.
   15968:	0079 0080 0058 0028 00a0 008a 006f 0077     y...X.(.....o.w.
   15978:	0079 009e 00b2 0071 0074 0080 003d fffe     y.....q.t...=...
   15988:	ffb6 0014 ffde ffb6 ffca ff9c ffdb fff8     ................
   15998:	ffee 0003 000f 001b fff6 ffe2 0002 fffa     ................
   159a8:	ffde fff9 ffd1 ffd9 ffc6 ffa5 ffea ffde     ................
   159b8:	ffa3 ffa2 ffc8 ffcf ffa6 ffa2 ffd3 ff89     ................
   159c8:	ffdd ffe4 ffbd 0018 0027 0005 004d 0064     ........'...M.d.
   159d8:	0068 0053 0066 006e 004d 0023 0048 0029     h.S.f.n.M.#.H.).
   159e8:	001d ffda fff2 fff2 ffb5 0027 ffc8 ffd4     ..........'.....
   159f8:	fff3 ffbe ff8d ff95 ff8f ffb3 ffa0 ff79     ..............y.
   15a08:	ff94 ffc6 0022 fff1 fff8 0037 0042 005d     ....".....7.B.].
   15a18:	007c 0055 003a 007a 0072 0053 000f 0031     |.U.:.z.r.S...1.
   15a28:	003e 000b 0009 ffbf ffdf ffd9 ff96 ffb6     >...............
   15a38:	ffbc ffd8 ffbc ffc9 ffc5 ffbd ffb7 ffb3     ................
   15a48:	ffda ffe9 ffd8 ffd6 0004 fffd ffe3 0010     ................
   15a58:	ffcc 0007 0032 fff1 000d fff4 ffe9 ffd9     ....2...........
   15a68:	ffad ffdf ffce fff0 ffe6 ffee 0000 003d     ..............=.
   15a78:	0083 0077 0053 0064 003e 0007 0040 0055     ..w.S.d.>...@.U.
   15a88:	006d 0091 0062 004e 0054 005a 0030 0003     m...b.N.T.Z.0...
   15a98:	0037 001a ffdd ffe4 ffef ffe7 ffd7 ffb3     7...............
   15aa8:	fff3 ff91 ffe7 0028 0055 002e 001b 004b     ......(.U.....K.
   15ab8:	001e 0012 0015 0038 0031 0052 0023 0066     ......8.1.R.#.f.
   15ac8:	002a 0035 0034 0021 0072 ffc2 ffba ff94     *.5.4.!.r.......
   15ad8:	ffd9 ffdc ff8a ffd1 ff90 ff5a ff87 ffa6     ..........Z.....
   15ae8:	ffab ff7c ffb4 001f 002f 0001 0015 0012     ..|...../.......
   15af8:	0023 0015 fff6 ffe6 000d 0011 ffe1 fff4     #...............
   15b08:	fff6 001b ffe9 ffdb 0018 ffff ffc6 ffc2     ................
   15b18:	ffd0 ffe1 ffa4 ffb1 ffe3 ffdb fffb fffd     ................
   15b28:	fff4 0007 0004 0033 0023 0046 001e fff7     ......3.#.F.....
   15b38:	0000 0046 002a 0019 002b 0023 fffa ff95     ..F.*...+.#.....
   15b48:	ffcb fff3 ffd2 ffca 0008 0006 ffb6 0025     ..............%.
   15b58:	0016 ffe2 fff4 0016 ffcf ffc9 ffcd ffec     ................
   15b68:	0012 0008 0019 fff4 0036 ffd3 ffda 0011     ........6.......
   15b78:	004f 0007 000e 0033 0049 0023 0005 001d     O.....3.I.#.....
   15b88:	fff6 0013 fff7 0062 0040 0040 0061 003b     ......b.@.@.a.;.
   15b98:	0046 0012 0036 0045 003a 001d 0053 005d     F...6.E.:...S.].
   15ba8:	0058 0030 0001 0016 0019 0020 ffdf ffe3     X.0....... .....
   15bb8:	001a ffc8 ff93 ffb8 ffa0 ff80 ff98 ff97     ................
   15bc8:	ffb9 ffea ffef ffdf 000b ffdc ffd4 001b     ................
   15bd8:	0005 0010 002b 002f 005a 0006 0047 004f     ....+./.Z...G.O.
   15be8:	0042 002d 005b 0036 000d fff7 fff5 0043     B.-.[.6.......C.
   15bf8:	ffca ff9b ffc8 fff7 ffcb ffad ffd4 ffe9     ................
   15c08:	ffcb ffe6 ffec ffe5 fffc ffdd fff8 fff9     ................
   15c18:	fff9 ffe7 0000 ffe1 ffb6 ffbd ffa6 ffc5     ................
   15c28:	ff78 ff97 ffd3 ff9c ffaa ffbd ffe7 ffbe     x...............
   15c38:	ffed fff0 ffe5 ffbe ffd2 0001 ffe6 ffb7     ................
   15c48:	ffd7 0015 0022 0008 003a 004c 003b 0074     ...."...:.L.;.t.
   15c58:	0068 005c 001d 0062 008e 0067 0055 0038     h.\...b...g.U.8.
   15c68:	0036 0029 0053 0050 0017 0018 0022 0053     6.).S.P.....".S.
   15c78:	001b fff2 004f 0006 fff9 ffff 0003 fffa     ....O...........
   15c88:	fff7 0008 0041 fff7 ffb5 fffd 0003 0013     ....A...........
   15c98:	000a 0000 fff7 0023 0040 001b 000b 0014     ......#.@.......
   15ca8:	002b 0018 0081 0045 001f 000c 0056 0056     +.....E.....V.V.
   15cb8:	ffdd 0025 0047 fff2 ffc3 ffaf ffc2 ffd6     ..%.G...........
   15cc8:	ffaa ff8f ff99 ffb0 ffb8 ff82 ff78 ff93     ............x...
   15cd8:	ff9c ffd6 ffc1 ffa6 ffc1 ffc0 ffa5 ff9b     ................
   15ce8:	ffe0 fff5 001b 0027 fff5 005a 004d 002e     ......'...Z.M...
   15cf8:	0041 003e fff9 0038 001a 0039 0002 ffd0     A.>...8...9.....
   15d08:	ffea 0006 0047 0010 fff0 fffc 0012 003f     ....G.........?.
   15d18:	0002 ffed 0022 001a 0048 0053 004c 0002     ...."...H.S.L...
   15d28:	0019 004a 0014 0025 0020 0022 fff7 fff4     ..J...%. .".....
   15d38:	ffde ffd3 ffb7 ffc0 ffc8 ffd3 ffc3 ffa3     ................
   15d48:	ffa1 ffaa ffb2 ffbe ff8c ff95 ffbf ff80     ................
   15d58:	ff7d ffa9 ffa7 ffd2 0014 000d ffdb 0008     }...............
   15d68:	0037 001d 0007 000f 0056 0030 0050 0063     7.......V.0.P.c.
   15d78:	005b 006f 007b 0095 005a 0059 00a3 0086     [.o.{...Z.Y.....
   15d88:	0067 005e 0063 00b3 0064 007b 0058 0029     g.^.c...d.{.X.).
   15d98:	0031 fff8 0035 ffec ffa5 ffc5 ffd6 ffb3     1...5...........
   15da8:	ffc0 ff97 ffbe ffa2 ff65 ff93 ffa6 ffa0     ........e.......
   15db8:	ff95 ffb6 ffb8 ffb5 ffe3 0021 fffb 0027     ..........!...'.
   15dc8:	0043 0049 001d 002e 0033 006d 0046 0002     C.I.....3.m.F...
   15dd8:	000d 0016 0023 ffea 0000 0017 0028 0031     ....#.......(.1.
   15de8:	0030 0006 0004 0010 fff9 ffef fffc 001d     0...............
   15df8:	0001 004e 004f 0022 0014 0021 0011 fffd     ..N.O."...!.....
   15e08:	ffee 001e ffd5 ff91 ffdc ffab ffaa ffda     ................
   15e18:	ff93 ffeb ffc2 ffb7 ffa5 ffb2 ffd2 ff99     ................
   15e28:	ffde fff5 ffad ffd7 ffdf ffc3 ffb5 ffe0     ................
   15e38:	0008 ffd2 000b 0008 0024 002b 000e ffe3     ........$.+.....
   15e48:	fff1 0006 ffe9 fff1 ffef ffd4 ffa2 ffd2     ................
   15e58:	ffa2 ffcf ffd7 fff7 fff0 ffdc 0001 0041     ..............A.
   15e68:	0030 0044 0052 003b 0087 0096 005f 006d     0.D.R.;....._.m.
   15e78:	0052 005c 002a 003e 000d 0055 0064 0039     R.\.*.>...U.d.9.
   15e88:	0048 0012 003c 0029 fffe 0001 0018 0028     H...<.).......(.
   15e98:	ffea ffda 000b ffe5 ffe6 ffb7 003d 0003     ............=...
   15ea8:	ffdc fffa fffd 0001 fffd ffee ffdc 0002     ................
   15eb8:	ffe9 ffd9 ffdb 000e 000f fff8 003b 0009     ............;...
   15ec8:	ffed ffd6 000b 0001 0006 ffec fffc 000e     ................
   15ed8:	0008 0025 0028 0009 0009 0044 0003 0033     ..%.(.....D...3.
   15ee8:	0040 003d ffda 0023 ffee fff4 0011 ffb9     @.=...#.........
   15ef8:	0013 ffa9 ffd8 ff7c ff9e ffd4 ffde ff96     ......|.........
   15f08:	ffa5 0014 0006 ffd2 ffe0 003d fffd 0023     ..........=...#.
   15f18:	0047 0026 fffe 004a 005e 000b fff3 0037     G.&...J.^.....7.
   15f28:	001e ffbf 0020 ffeb ffc2 ffb3 ffb9 ffd3     .... ...........
   15f38:	ffae ff92 ff93 0001 ff91 ffa8 ff97 ffd7     ................
   15f48:	ffd6 ffc8 ffc5 ff9e fff9 0016 000c 0013     ................
   15f58:	0014 003d 006b 004b 0027 0071 0041 003b     ..=.k.K.'.q.A.;.
   15f68:	fffd 0000 fff6 ffcc 0020 ffc1 ffbd ffeb     ........ .......
   15f78:	ffd8 fff3 fffa 000e ffee 0027 003d 0031     ..........'.=.1.
   15f88:	fff3 004f 002e 0014 0022 0053 002c 0015     ..O.....".S.,...
   15f98:	004f 0065 0037 0038 0019 0010 000a 000a     O.e.7.8.........
   15fa8:	ffdb ffe7 ffa9 ffbd ffc6 ffcb fffa ffeb     ................
   15fb8:	0008 0063 0043 0005 004d 0051 0040 0015     ..c.C...M.Q.@...
   15fc8:	0038 0064 0062 006a 0036 0045 0049 0036     8.d.b.j.6.E.I.6.
   15fd8:	0011 0034 ffde fff4 ffe6 ffdc ffca ffd1     ..4.............
   15fe8:	0006 ff9c ff9c ffe9 001f ffd9 000b 0022     ..............".
   15ff8:	ffed 0012 ffc3 fff0 0017 0038 0017 0027     ..........8...'.
   16008:	002a 0014 fffb ffd0 ffd6 ffd1 fff5 ffa4     *...............
   16018:	ffc9 ff86 ff7f ffad ff8e ff7e ffc7 ffe3     ..........~.....
   16028:	ff62 ffb9 ff85 ff70 ffa3 ff97 ffc0 000d     b.....p.........
   16038:	ffed 000f 0013 ffd7 002d 0022 0012 ffd5     ........-.".....
   16048:	fffe 000e 0001 fffe 000f 002a 000e 0001     ..........*.....
   16058:	fffc fff3 fff3 0008 003e 0005 0035 005a     ........>...5.Z.
   16068:	004a 005c 0043 0047 0045 006c 0067 0037     J.\.C.G.E.l.g.7.
   16078:	0045 0021 0016 fff4 000a 0009 ffff fff7     E.!.............
   16088:	fff9 ffe2 ffd6 ffbd ffb9 ff71 ffb4 ffc6     ..........q.....
   16098:	ffdc ffed fff8 0020 002a 0082 0065 0065     ...... .*...e.e.
   160a8:	007c 00a7 004e 0046 00a1 0055 0042 0036     |...N.F...U.B.6.
   160b8:	0029 0009 fffd ffe3 ffc4 ff9a ffa3 ffa4     )...............
   160c8:	ff49 ff74 ff5e ff92 ffa2 ff90 ffd5 000c     I.t.^...........
   160d8:	ffe2 fff2 000b 0029 0054 008f 0067 0099     ......).T...g...
   160e8:	0085 0075 005f 0052 0042 001f 0055 0059     ..u._.R.B...U.Y.
   160f8:	0081 0097 0061 005b 0057 0038 0024 0020     ....a.[.W.8.$. .
   16108:	0028 ffe5 ffea 0017 ffe7 ffd4 ffa3 ffdf     (...............
   16118:	ffd7 ffde ffb0 ff98 ffcd ffab ff93 ffa2     ................
   16128:	ffa0 ff9b ff5f ff29 ff47 ff2b ff2c ff38     ...._.).G.+.,.8.
   16138:	ff55 ff93 ff84 ff6d ff7a ffe9 ffca ffe7     U.....m.z.......
   16148:	fff3 0018 0027 0024 001d 000e 0037 fffb     ....'.$.....7...
   16158:	005b 0047 0019 0004 000e 000c ffec 0016     [.G.............
   16168:	0039 0018 0033 ffe6 0018 0027 ffdb 0032     9...3.....'...2.
   16178:	0030 0021 0052 0073 0081 0041 005c 0086     0.!.R.s...A.\...
   16188:	006d 0049 0042 0075 0057 0075 006b 0054     m.I.B.u.W.u.k.T.
   16198:	0037 ffd2 0004 ffe6 000b ffec 001e 000a     7...............
   161a8:	fff5 fff5 0007 ffed fffa 0006 ffd7 0000     ................
   161b8:	0010 ffdb ffc6 004e 0021 ffd1 fff0 0014     ......N.!.......
   161c8:	ffd6 0001 ffee ffff 0026 fffc ffe5 ff9e     ........&.......
   161d8:	0013 fff0 ffd7 ffcc fffe 0004 ffe2 000d     ................
   161e8:	0008 fffd 001a 0048 0069 0027 0010 002e     ......H.i.'.....
   161f8:	0002 0041 fff5 0003 0011 fffe ffef ffdc     ..A.............
   16208:	ffee ffc3 ff9d ffd0 ffb4 ff9b fff4 ffb6     ................
   16218:	ffb0 ffb2 ffb8 ffa6 ffd1 ffd0 ffaa ffea     ................
   16228:	fffc 0008 0021 001d fff3 0044 003d fff9     ....!.....D.=...
   16238:	0044 0008 0030 fffb 0005 0003 ffce ffdc     D...0...........
   16248:	ffe0 000e ffe5 fff3 0001 ffd3 ffc0 0005     ................
   16258:	001b 000e 000b fffe ffe9 ffe3 fff5 fff7     ................
   16268:	ffab ffd6 ffcd fff3 ffb5 ffa6 ffe0 fff4     ................
   16278:	ffe9 ffbc 0003 fff2 ffe7 0000 0009 002b     ..............+.
   16288:	0029 0037 0016 0017 0019 0028 0027 003e     ).7.......(.'.>.
   16298:	fff7 004f 005c 0033 0047 0023 0075 001f     ..O.\.3.G.#.u...
   162a8:	0002 001f fff8 002b fffd 0005 ffd2 ffed     ......+.........
   162b8:	ffe0 0022 004d 0030 0042 005e 0015 004c     ..".M.0.B.^...L.
   162c8:	006d 004a 0069 005f 0074 005c 0075 004d     m.J.i._.t.\.u.M.
   162d8:	0079 003e 001c 0056 001d 001f fffc fff1     y.>...V.........
   162e8:	fffa ffd3 ff95 ffcb ffce ffbe ffb8 ff92     ................
   162f8:	ffb9 ff77 ff91 ff87 ff94 ffd9 ffee ffe5     ..w.............
   16308:	0003 0021 002f 002f fff8 fffc fffa fff9     ..!././.........
   16318:	0007 ffd4 0008 ffab ffb9 ffb7 ff92 ffb9     ................
   16328:	ff74 ff95 ff8e ff92 ff77 ffcd ffbc ffce     t.......w.......
   16338:	ffbb ffe3 0004 ffde ffdc 000a 0026 0035     ............&.5.
   16348:	0042 0037 004b 003f 0045 0027 002a 0044     B.7.K.?.E.'.*.D.
   16358:	001e 0027 0009 0005 fff4 fff9 ffb5 ffb7     ..'.............
   16368:	fff0 ffaa ffc4 ffd5 fffc ffc7 ffd6 fffc     ................
   16378:	fff7 fffd 002b 0045 0042 0041 004f 007f     ....+.E.B.A.O...
   16388:	0035 00b0 0081 003b 0053 0040 ffd1 ffdf     5.....;.S.@.....
   16398:	0030 fff5 0029 ffd8 ffe2 ffdf ffcb fff7     0...)...........
   163a8:	ff99 000c fff8 0001 0002 004e 0040 002d     ..........N.@.-.
   163b8:	0031 0021 004c 005f 0078 001b 002c 0038     1.!.L._.x...,.8.
   163c8:	ffff 0023 0046 ffe8 001b 0015 0030 0004     ..#.F.......0...
   163d8:	000a 002e ffe8 ffe9 fffc ffd1 ffd9 fffc     ................
   163e8:	ffd3 ffd4 ffea 0030 0027 000a ffdf fff0     ......0.'.......
   163f8:	fffc ffdf ffca ff83 ff93 ffba ff98 ff5a     ..............Z.
   16408:	ff9f ffc4 ff75 ff95 ffbb 0007 ffd2 ffee     ....u...........
   16418:	0049 0055 004e 0010 0055 0048 005b 005e     I.U.N...U.H.[.^.
   16428:	005a 002a 003e 0066 0056 001a 0041 ffff     Z.*.>.f.V...A...
   16438:	0008 ffc8 ffb4 ffb6 ff70 ff7f ffa2 ff7d     ........p.....}.
   16448:	ff7a ffae ffcf fff5 ffbe fff0 fff1 fff8     z...............
   16458:	0003 ffc0 fff3 0000 ffdc 000e fff8 0047     ..............G.
   16468:	0023 002d 0025 001c ffe5 ffe9 0000 000f     #.-.%...........
   16478:	003a fff4 ffee fff2 0067 ffe1 ffe9 0030     :.......g.....0.
   16488:	004e 002b 0000 001e 001d 0014 000a 004c     N.+...........L.
   16498:	002e 002b 0019 0007 ffc6 002c fffb ffe5     ..+.......,.....
   164a8:	ffe1 fff8 fff6 0009 002b ffe4 001c 0024     ........+.....$.
   164b8:	0031 003e 001f 0053 ffff fff9 007f 001a     1.>...S.........
   164c8:	ffc3 0040 003e 0053 0026 0033 005f 0021     ..@.>.S.&.3._.!.
   164d8:	fff0 001f 0032 0001 ff9d ffc7 0000 fff8     ....2...........
   164e8:	ffaa ffb5 0001 ffc6 ffc5 ffa8 ffaf ffc0     ................
   164f8:	ffdf ffa3 ffbd fffa ffcc ffdd 001a 0042     ..............B.
   16508:	fff7 0034 0045 004d 003c 0007 002a 0032     ..4.E.M.<...*.2.
   16518:	000f ffff 0043 0039 0018 ffd9 0008 ffff     ....C.9.........
   16528:	ffe4 ffe0 ffcb ffdc ff91 ffdd ffcb 0004     ................
   16538:	ffcf ff9b ffb8 0024 0015 ffe6 001b 0051     ......$.......Q.
   16548:	0041 ffb5 fffe 007d 0037 ffb4 0030 0015     A.....}.7...0...
   16558:	ffcc ffa5 ffe4 ffa5 ff7c ff8e ffaf ff92     ........|.......
   16568:	ff6c ff96 ffa7 ffaa ffc7 ffef 002d 0001     l...........-...
   16578:	0000 002a 005a 000e ffd7 001d 003b 002e     ..*.Z.......;...
   16588:	0017 0045 fffc ffbf fff2 000e ffc7 ffe4     ..E.............
   16598:	fff8 002d 0013 ff96 fffa 0032 0018 fff1     ..-.......2.....
   165a8:	0069 0053 002b 004f 00b4 0061 0067 00d1     i.S.+.O...a.g...
   165b8:	00ba 005b 00ac 0085 0080 0043 002a 00ac     ..[.......C.*...
   165c8:	0004 001f 0003 001a 000b ffdb ffc2 ffd2     ................
   165d8:	ffb8 ff9d ffca fff0 ffd1 ff9d 001b 0016     ................
   165e8:	ffaf ffe9 0052 0017 003d 003c 0024 0000     ....R...=.<.$...
   165f8:	ffe0 fffd fff5 ffeb 000d ffde ffd7 ffe1     ................
   16608:	ffff ffcb ffb9 ffae 0003 ffd9 ff82 ffc4     ................
   16618:	ffe4 fff6 ffb5 ffa3 002e 000a ffa7 ffc5     ................
   16628:	ffc0 fff1 ff96 ffd3 ffcc ffa4 ffdd ffa2     ................
   16638:	ffbd ffd6 ffd3 fff0 ffe9 0009 fff7 0009     ................
   16648:	0037 0007 0002 0038 0040 0017 000d 0057     7.....8.@.....W.
   16658:	0066 0030 fff3 0032 0023 ffd5 ffee ffff     f.0...2.#.......
   16668:	0009 ff8e ff82 ff74 ff87 ffaa ffa7 ffbb     ......t.........
   16678:	ffb0 ffe7 001d 0048 0003 003a 0073 0067     ......H...:.s.g.
   16688:	003a 0056 00b0 00af 004d 0086 0088 0082     :.V.....M.......
   16698:	0091 003c 006b 002e 0059 002d 000f 001a     ..<.k...Y.-.....
   166a8:	ffdb ffd5 ffcb ff91 ffb5 ffa6 ff7f ffae     ................
   166b8:	ffd9 ffc8 ff9a fffd 001a 0037 0026 0028     ..........7.&.(.
   166c8:	006c 0067 0069 002a 002f 0070 0003 0026     l.g.i.*./.p...&.
   166d8:	0020 0044 0031 000c 002e 001c ffe9 ffbe      .D.1...........
   166e8:	ffb8 ffc3 ffd1 ffac ffae ffca ffcf ffb8     ................
   166f8:	ffce 0012 0031 004a 002a 0032 0044 0025     ....1.J.*.2.D.%.
   16708:	ffcd 0041 ffe4 fff8 0019 ffd3 ff89 ff65     ..A...........e.
   16718:	ff90 ff6e ff8d ff87 ff99 ffab ffdc ffad     ..n.............
   16728:	ffc8 ffeb ffea 0004 000b 0003 ffef 0022     ..............".
   16738:	0021 0013 001e 004a 0049 006f 0092 006c     !.....J.I.o...l.
   16748:	004e 0040 002c 0004 fff0 ffe0 fff1 ffe7     N.@.,...........
   16758:	fff3 0003 ffa0 ffa7 ffaf ffae ffd1 ffcf     ................
   16768:	ffd5 ffd7 0015 ffe9 ffec 002f 003b 0030     ........../.;.0.
   16778:	000b ffe9 000e 0004 ffba ffdd 0005 ffdf     ................
   16788:	fffe 0004 0001 ffd7 ffae ffd1 ffcd ffd5     ................
   16798:	ffd6 ffe6 0013 001a 0012 fffa 0031 004d     ............1.M.
   167a8:	006e 002f 006b 0083 004d 0076 0087 0066     n./.k...M.v...f.
   167b8:	004d 0068 0050 0009 fffa 0037 ffd8 ffe5     M.h.P.....7.....
   167c8:	0004 0029 ffec fffe 0032 0051 ffd6 ffee     ..).....2.Q.....
   167d8:	0022 0027 ffe6 0015 004a 0028 0025 0036     ".'.....J.(.%.6.
   167e8:	002c 0013 0035 ffe5 ffd4 ffae 0002 ffd8     ,...5...........
   167f8:	ffba ffce ffd4 ffce ff9b ff96 ff7b ff98     ............{...
   16808:	ff58 ff92 ffc1 ffbf ffe2 0007 000a fff5     X...............
   16818:	0019 000f 001d 0021 001b 001d 0036 002e     ......!.....6...
   16828:	ffe7 000b ffeb ffe3 fff4 ffdc ffcb ffca     ................
   16838:	ffb8 ffe5 0002 ffd9 ffaf ffe7 ffed ffe1     ................
   16848:	fff8 0039 0044 0042 0038 0049 006b 0071     ..9.D.B.8.I.k.q.
   16858:	0069 0040 0045 0045 0058 002f 0066 0005     i.@.E.E.X./.f...
   16868:	ffd8 ffca ffa8 ffbc ff9b ff88 ff7a ffae     ............z...
   16878:	ff97 ff96 ff94 ffbf ffb3 ffa0 ffe6 fff8     ................
   16888:	0006 0022 0042 0033 0060 005e 0071 0055     ..".B.3.`.^.q.U.
   16898:	003b 006b 0059 0019 0027 002b 0006 003f     ;.k.Y...'.+...?.
   168a8:	fff0 ffc0 ffd2 ffe3 fff2 ffa3 ffc7 ffe2     ................
   168b8:	fff1 0008 ffd4 fff6 fff8 ffde 005e fff5     ............^...
   168c8:	0007 003e 0065 003b 003a 0045 0052 001f     ..>.e.;.:.E.R...
   168d8:	0029 0013 0008 0007 ffa4 ffc6 fffa ffca     )...............
   168e8:	ff9f ffc0 ffd8 ffd3 ffb7 ffb3 0028 0028     ............(.(.
   168f8:	001b 004c 0067 0026 003d 0076 002d fff6     ..L.g.&.=.v.-...
   16908:	fffb ffec 0033 001e ffdd ffef 0029 ffd9     ....3.......)...
   16918:	ff92 ffa2 ffed ffdd ff82 ff98 ffe8 ffcf     ................
   16928:	ffc7 ffef 0027 ffde 0020 004a 0054 004c     ....'... .J.T.L.
   16938:	0073 0054 0061 006f 0064 0079 0072 0066     s.T.a.o.d.y.r.f.
   16948:	fff9 000a ffeb 0020 ffdc ffea 001a ffda     ...... .........
   16958:	ffde ff9c ff8d ff66 ff7f ff6b ff4b ff5b     ......f...k.K.[.
   16968:	ff5e ff6b ff3b ffab ff83 ff58 ff7e ffbd     ^.k.;.....X.~...
   16978:	ff79 ff75 ffab ff7a ffd0 ffd0 ffab ffd9     y.u...z.........
   16988:	001b ffeb 0025 0032 008f 0047 0054 0061     ....%.2...G.T.a.
   16998:	0075 00be 0081 00af 00a9 00e4 00af 00c9     u...............
   169a8:	00a6 00fb 00f7 00bf 00bc 00a5 00aa 0088     ................
   169b8:	0035 0066 005f 003a 0034 0023 ffdb ffd0     5.f._.:.4.#.....
   169c8:	ffbf ffeb ffda ffbf ffee ffbe ff9f ffb6     ................
   169d8:	ffb0 ffc2 ffd2 ffc2 ffb5 fff6 ffef ff7f     ................
   169e8:	ff7e ffac ffb3 ff43 ff63 ff98 ff85 ff5c     ~.....C.c.....\.
   169f8:	ffa3 ffc0 ffa6 fff8 ffee ffaa ffe8 ffea     ................
   16a08:	fff9 0005 fff7 ffef 0049 001b ffd8 ffe1     ........I.......
   16a18:	003d ffea fffb 0016 000c 0022 ffc5 ffc9     =.........".....
   16a28:	ffce ffe8 ffcc ffdf fff2 ffe9 fff5 0015     ................
   16a38:	0054 0014 002a 0052 003b 0035 0092 009b     T...*.R.;.5.....
   16a48:	0069 0065 0063 0065 0089 006c 005a 0026     i.e.c.e...l.Z.&.
   16a58:	0063 0038 002f ffc5 ffde ffe6 ffcb fff7     c.8./...........
   16a68:	ffbd ffba ffbc ffea ff9c ffcc ffc6 ffea     ................
   16a78:	ffd3 ffe3 ffc5 ffce 0011 0014 0009 ffe3     ................
   16a88:	0039 004c 003c 0038 002c 003a 0004 fff0     9.L.<.8.,.:.....
   16a98:	000c ffd0 ffad ffc0 ffa0 ffa0 ffa1 ffd0     ................
   16aa8:	ffba ff89 ff9b ffb5 ffd1 ffd0 fffd 005d     ..............].
   16ab8:	0000 0002 006a 0093 0068 0039 008c 0077     ....j...h.9...w.
   16ac8:	0088 0059 0066 0055 ffeb ffe9 ffe1 000a     ..Y.f.U.........
   16ad8:	ffbb ffb2 ff9b ffd0 ffca ff4d ff4c ffbc     ..........M.L...
   16ae8:	ffb1 ffb9 ffa8 ffaf fffa 0054 fff3 ffef     ..........T.....
   16af8:	0059 0034 002a ffef 0044 0002 ffe7 0039     Y.4.*...D.....9.
   16b08:	0063 001f 001a 0007 004d 0029 0011 0032     c.......M.)...2.
   16b18:	000e ffd7 ffff 001f 000d 0004 0020 0056     ............ .V.
   16b28:	0012 0045 003f 0074 0088 0081 004a 0065     ..E.?.t.....J.e.
   16b38:	002c 000c 002f 001e 0019 ffde ffed ffc0     ,.../...........
   16b48:	ffa5 ff9a ffad ff8e ffa6 ffe2 ffc6 ff80     ................
   16b58:	ff83 ffa4 ff7e ff90 ff9a ff8a ffb1 ffb0     ....~...........
   16b68:	ffbb ff7f ffde fff0 ffa6 ffeb ffd0 ffb2     ................
   16b78:	fffa 001f 0011 0013 fffe 0050 004f fffd     ..........P.O...
   16b88:	000f 0041 0041 002f 0043 0081 006f 0049     ..A.A./.C...o.I.
   16b98:	0013 0064 00ae 0031 0061 0075 0077 0048     ..d...1.a.u.w.H.
   16ba8:	0007 ffed 0047 0033 fff6 fffb 0022 fff5     ....G.3....."...
   16bb8:	ffb5 ffc1 fff1 fffa ffd2 000e ffff 0023     ..............#.
   16bc8:	ffe8 0011 0015 ffc8 ffd9 ffbc ffc5 ffe7     ................
   16bd8:	000d fff2 fffe fffc ffe0 ffca ffcf fff3     ................
   16be8:	ff97 ffaa ffb5 ffa7 ffad ff99 ffc0 ffce     ................
   16bf8:	ffcf ffd2 ffd5 ffe0 ffee 000f fff5 001f     ................
   16c08:	0022 001e 0053 006c 0066 006d 0070 006b     "...S.l.f.m.p.k.
   16c18:	0069 0065 0049 0045 0047 0041 0028 0020     i.e.I.E.G.A.(. .
   16c28:	005a 003e fff4 000b 000e 000e ffe3 fff4     Z.>.............
   16c38:	ffce ffe6 ffd5 ffc5 ffd9 ffdd fff7 0035     ..............5.
   16c48:	0005 ffdb ffe5 ffd0 0019 000e ffd3 fff4     ................
   16c58:	001e 0033 0020 ffee 0015 fff1 ffee ffc5     ..3. ...........
   16c68:	0012 ffeb ffd2 fff9 ffdc ffcb ff90 ffb2     ................
   16c78:	ffd4 ffdf ff9e ffab fffe 000e ffdb ffec     ................
   16c88:	ffc0 fff9 0016 ffee 0014 fffa ffc1 ffa3     ................
   16c98:	ffce 0000 0003 fff9 ffe8 0002 001f 0027     ..............'.
   16ca8:	ffe1 ffe1 fff8 fffd 0029 000d 003d 0035     ........)...=.5.
   16cb8:	003a 002f 0038 0010 003a 0008 0020 0052     :./.8...:... .R.
   16cc8:	0015 ffdb fffc 003d 001a 0012 000a 0020     ......=....... .
   16cd8:	000f 0017 ffe4 002e 0040 ffef 0020 001b     ........@... ...
   16ce8:	0036 0018 001c ffdb 0009 fff8 ffdd ffc2     6...............
   16cf8:	ffb7 ffd4 ffd3 ffd9 ff9d ffab ffdb ffe4     ................
   16d08:	ffb5 fff8 ffd4 fff7 ffd1 fff2 0028 0043     ............(.C.
   16d18:	0028 0013 007f 0095 0075 006f 00b1 008d     (.......u.o.....
   16d28:	0072 006f 0073 0079 0041 0020 0041 0001     r.o.s.y.A. .A...
   16d38:	0008 ffa0 ffa6 ffc5 ffd4 ff8d ff68 ff64     ............h.d.
   16d48:	ff74 ff68 ff3e ffa6 ffef ffc3 ff72 ffb8     t.h.>.......r...
   16d58:	ffe4 ffc2 ffcf 000e 000c ffdc ffff 0002     ................
   16d68:	001e 0027 0004 fff3 ffd7 ffde ffe9 ffc7     ..'.............
   16d78:	fffb ffa6 ffcf fff0 0018 0028 002f 000e     ..........(./...
   16d88:	0013 fffe ffdf 000b 0033 0043 0049 0087     ........3.C.I...
   16d98:	0076 0043 002a 001f 0049 0035 000b 0010     v.C.*...I.5.....
   16da8:	fffd 0001 ffef ffce ffe2 0030 0035 fff0     ..........0.5...
   16db8:	0007 001a ffef ffe2 fff9 ffd5 ffb1 ffcb     ................
   16dc8:	ffeb 0026 ffd9 0001 0002 0018 0066 004a     ..&.........f.J.
   16dd8:	0039 005c 0016 003c 005d 0019 0045 001e     9.\...<.]...E...
   16de8:	003c fff6 ffe8 ffc8 ffe2 ffd6 ffe0 ffe6     <...............
   16df8:	000a 0043 0027 ffdb 0031 0015 ffe0 ffd4     ..C.'...1.......
   16e08:	ffe7 0004 ffc0 ffc7 ffe0 ffef ffd7 fffc     ................
   16e18:	ffc0 0008 0011 ffc7 ffe8 fff4 000f ffb0     ................
   16e28:	ffd3 fff6 002c 002b 0015 ffe2 0023 fffc     ....,.+.....#...
   16e38:	001a fff4 fff5 0026 ffcd ffec fff6 0006     ......&.........
   16e48:	ffdb 000b ffe6 ffe4 ffe8 ffa6 ffcb ffaf     ................
   16e58:	fff7 ff9f ff93 ffed fffe ffda 0009 001a     ................
   16e68:	000d 000d 000a 004b 0064 002a 0029 005a     ......K.d.*.).Z.
   16e78:	006e 0063 003d 0063 0069 002b 007b 0032     n.c.=.c.i.+.{.2.
   16e88:	0045 0009 ffe6 001f ffb6 ffb3 ffd8 ffc8     E...............
   16e98:	ffc5 ffba ffb5 ffe4 ffa9 ff72 ffa6 ff7f     ..........r.....
   16ea8:	ffbc ffe0 fff2 fff1 001a 001d fff7 0022     ..............".
   16eb8:	0019 ffef 0025 0066 0012 ffe3 0025 0024     ....%.f.....%.$.
   16ec8:	000f ffd2 ffe7 ffe4 fff7 ffc3 ffe9 fff7     ................
   16ed8:	ffeb 0027 002c 0050 002d 0067 0028 002f     ..'.,.P.-.g.(./.
   16ee8:	0068 004f 003d 0048 008c 0058 005b 0018     h.O.=.H...X.[...
   16ef8:	fffa ffe6 ffdc ffad ff87 ffe6 fffa ffe6     ................
   16f08:	ffd4 0000 ff92 ffa0 ffd9 ffc7 ffcc ffdc     ................
   16f18:	fff8 ffbb ffe4 ffea ffdf ffe0 0003 0057     ..............W.
   16f28:	0028 0047 002d 0043 003d 0040 005d 005c     (.G.-.C.=.@.].\.
   16f38:	0026 001e fffc ffe0 ffa9 ff95 ffb4 ffd1     &...............
   16f48:	ffa8 ffbd ffd7 fff6 fff9 000a 003f 004c     ............?.L.
   16f58:	0065 0038 006f 0088 0048 0025 004b 0028     e.8.o...H.%.K.(.
   16f68:	0002 ffdf ffee ffe4 ffa2 ff64 ff60 ffb0     ..........d.`...
   16f78:	ffce ff92 ff6b ffdd fff3 ffdd 0001 ffff     ....k...........
   16f88:	ffe3 ff8c ffbc 003b 0015 0049 003a 0069     ......;...I.:.i.
   16f98:	0056 003b 0002 ffae fff0 ffaf ff57 ff5a     V.;.........W.Z.
   16fa8:	ff7c ff7f ff8e ff6e ffa9 ff8f ff51 ff62     |.....n.....Q.b.
   16fb8:	ffa6 ffd1 ffe7 0034 008a 0071 0052 00a5     ......4...q.R...
   16fc8:	00c8 00dc 00f7 00cd 00f5 00ab 00ce 00a0     ................
   16fd8:	00a6 0099 0021 fff3 fffa 0016 0010 002b     ....!.........+.
   16fe8:	0043 006c 000f fff5 fffb ffe2 0053 002f     C.l.........S./.
   16ff8:	ffe8 ffe2 fff5 ffc3 fff2 ffef 001d 002c     ..............,.
   17008:	ffe6 ffb3 ffd6 0033 ffd8 fffc fff4 ffac     ......3.........
   17018:	ff7b ff89 ff7e ff5f ff11 ff3c ff4f ff4f     {...~._...<.O.O.
   17028:	ff59 ff58 ffe2 0001 ffd6 0069 0035 fff7     Y.X.......i.5...
   17038:	ffb0 0025 0084 0077 0099 00a1 003a 002d     ..%...w.....:.-.
   17048:	0044 0074 0060 ffee 002d ffd3 000d ffaf     D.t.`...-.......
   17058:	fff4 002d 000d fffc 0012 004c 001d 003e     ..-.......L...>.
   17068:	ffee 001a ffc8 ffa4 ff88 ffb7 ffe2 ffe4     ................
   17078:	ffdd fff7 ffca ff96 ffc2 ff97 ffe9 ffca     ................
   17088:	ffe5 0013 ffc9 ffc3 ff9d 0029 0029 fffc     ..........).)...
   17098:	ffd5 0027 0038 002c 0040 0078 0069 0065     ..'.8.,.@.x.i.e.
   170a8:	0013 fffe 0093 008f 000d 0011 0073 005d     ............s.].
   170b8:	0007 ffff 0058 0050 ffdc ffca 0004 ffe4     ....X.P.........
   170c8:	ffc0 ffb1 fff8 ffdb ffe2 ffd5 ffff ffe4     ................
   170d8:	0028 0030 0002 0043 001e 0019 000a ffe7     (.0...C.........
   170e8:	ffd2 ffcb ffdb ffe5 ffd1 fff7 0001 ffd7     ................
   170f8:	ffdd ffdf ffd7 ffde 0008 ffb9 ffba 0005     ................
   17108:	ffea 0002 ffe2 0021 005c 003c 0016 002e     ......!.\.<.....
   17118:	0006 0003 ffe8 ffd3 ffdb ffa4 0021 0019     ............!...
   17128:	fff2 ffe4 000d 001b fff7 ffc5 fff0 ffc8     ................
   17138:	ffc4 fffb ff83 ff8d fffd ffd7 ffba 0003     ................
   17148:	0050 0065 004d 0092 00be 0058 00a1 006c     P.e.M.....X...l.
   17158:	00c0 00c2 004c 0016 002e 0069 0026 0006     ....L.....i.&...
   17168:	0032 003d ffdd ffd6 fff1 ffdc ff7d ff4e     2.=.........}.N.
   17178:	ff8b ffba ff83 ff90 ff91 ffb6 ffec ffc8     ................
   17188:	ffae ffb7 ffca ffe5 0018 fff3 ffe2 fff1     ................
   17198:	0025 ffd3 0002 000a ffef ffe5 0025 0023     %...........%.#.
   171a8:	ffec ffd9 000a 001a fffc ffc8 fff5 ffe6     ................
   171b8:	ffd9 ffed ffe7 fff3 ffe4 ffeb 002a 0031     ............*.1.
   171c8:	0030 0046 006c 0084 0030 002b 0033 004e     0.F.l...0.+.3.N.
   171d8:	002c 001d 0063 0069 000b 005a 009a 0027     ,...c.i...Z...'.
   171e8:	fff5 002a 003d ffe2 ffe6 001b ffe0 ffc7     ..*.=...........
   171f8:	0016 0013 ffe0 ffc3 ffb3 ffd1 ffd2 ff91     ................
   17208:	ffdf ffb1 ffa3 ffcc ffc9 fff8 ffd5 ffd8     ................
   17218:	ffd5 ffde fff9 fff4 fff8 fff0 fff8 000a     ................
   17228:	002e 002e 000a 004b 008e 0042 003b 0091     ......K...B.;...
   17238:	007d 0046 005d 003e 0005 000b 001a ffe3     }.F.].>.........
   17248:	ffe4 fff6 ffcb ffb8 ffb2 ffd3 ffca ff92     ................
   17258:	ffce ffe5 ffc6 ffbe ffca ffc4 ffd6 0002     ................
   17268:	0006 ffcd ffbe fff6 0011 ffd4 ffbf fff8     ................
   17278:	0025 ffda ffb7 ffcf ffda ffe9 ffd8 ffce     %...............
   17288:	002f ffff ffc7 000f fff1 fffb ffef ffee     /...............
   17298:	0020 0048 0037 ffe3 ffde 0052 0071 0064      .H.7.....R.q.d.
   172a8:	003b 004d 0069 004f 003a 0037 0046 0043     ;.M.i.O.:.7.F.C.
   172b8:	0046 0039 0043 0039 000c 0048 0054 0039     F.9.C.9...H.T.9.
   172c8:	0043 0043 0021 003a 0029 000b 002f fffa     C.C.!.:.).../...
   172d8:	ffcc 0026 0005 ffb9 ffab ffd9 ffbb ff7a     ..&...........z.
   172e8:	ff85 ff90 ffad ff8c ff61 ff39 ff72 ff63     ........a.9.r.c.
   172f8:	ff4b ff31 ff4d ff8b ff85 ff70 ffa8 ffaa     K.1.M.....p.....
   17308:	ffb3 ffac fff6 0016 0018 0030 004b 008b     ..........0.K...
   17318:	005d 004a 0073 006b 0082 00ab 008a 0052     ].J.s.k.......R.
   17328:	00a9 00c3 00b6 0066 00b0 00b3 0074 0080     ......f.....t...
   17338:	00a3 0064 0038 0033 0043 003a fff6 002c     ..d.8.3.C.:...,.
   17348:	fff7 ffd4 ffd2 ffdd ffe2 ffc8 ff9d ffb4     ................
   17358:	ffcc ffc3 ffa2 ff8b ffc5 ffd7 ffa0 ff73     ..............s.
   17368:	ff88 ffa4 ff7f ff5e ff5f ffdb ffc6 ffa9     ......^._.......
   17378:	ffb7 ffe0 ffcf ffcd 0022 0015 001d 0043     ........".....C.
   17388:	006c 002f 0072 0007 0005 0010 0001 0017     l./.r...........
   17398:	ffb7 0052 0008 0008 ffcd ffef ffd9 ffbf     ..R.............
   173a8:	ffc3 ffdf fffd fff0 0035 002c 001b fffa     ........5.,.....
   173b8:	0075 0063 0051 005f 0071 0072 0060 006e     u.c.Q._.q.r.`.n.
   173c8:	0068 004a 0027 006d 0038 0010 0010 ffd5     h.J.'.m.8.......
   173d8:	ff92 ff8f ff78 ff68 ff61 ffa2 ff5d ff93     ....x.h.a...]...
   173e8:	000d ff9c ffba ffd0 0003 000a 004b 0023     ............K.#.
   173f8:	004e 0061 00a3 004c 0039 008e 0073 0060     N.a...L.9...s.`.
   17408:	0044 006b 002a 0022 fffc ffe0 fff8 fffa     D.k.*.".........
   17418:	fffb ffc0 0023 ffe8 0018 0000 ffe4 ffdc     ....#...........
   17428:	ffb2 ffec ffed ffdc ffc8 ffd8 ffa9 ffb9     ................
   17438:	ffd5 fff3 ffc1 ff9d ff51 ffd5 000a ffa1     ........Q.......
   17448:	ff77 ff9d ffe0 ffc0 ff94 ffbe ffc8 0008     w...............
   17458:	0021 0009 002b 0049 0089 0080 007c 0084     !...+.I.....|...
   17468:	0093 00a9 007e 0094 005a 002d 0033 000f     ....~...Z.-.3...
   17478:	0004 ffd3 ffc0 ff96 ffbd ff8b ff67 ff89     ............g...
   17488:	ff7d ff7b ff92 ff9b ffa1 ffa2 fff8 0020     }.{........... .
   17498:	001d 0007 fffa fffd 0037 0068 001b 0057     ........7.h...W.
   174a8:	008c 008d 0065 0061 004f 0026 0033 005d     ....e.a.O.&.3.].
   174b8:	0055 0034 0039 000e ffd5 ffac ff6c ff92     U.4.9.......l...
   174c8:	ff9e ffed fff0 0010 0039 002f 0051 0034     ........9./.Q.4.
   174d8:	0025 0004 000c fff1 001c ff90 ffc5 0007     %...............
   174e8:	ffa3 ffe1 ff46 ffba ff75 ff9c ff9d ffd8     ....F...u.......
   174f8:	ffd7 ffcd fff2 fffb 0018 fffe 0024 004d     ............$.M.
   17508:	00c0 009f 008a 006b 009b 00b2 0062 0098     ......k.....b...
   17518:	00e3 0098 0022 0080 0020 001e ffe7 ffc0     ...."... .......
   17528:	ff92 ff73 ffd8 ffa0 ff9e ff82 ff8b ffa9     ..s.............
   17538:	ffa3 ffb1 ffde ffec ffc3 ffcb ff97 ffda     ................
   17548:	0005 fff9 ffb6 ffe2 ffd4 ffe3 ff90 ffa1     ................
   17558:	ffd4 ffa0 ff4b ff6f ff9f ff49 ff34 ffb6     ....K.o...I.4...
   17568:	ffc0 ff38 ff63 ffe7 ffd7 0002 ffdf fffc     ..8.c...........
   17578:	000e 0092 00e6 00eb 00e5 0082 00bf 00e5     ................
   17588:	00ff 008c 0079 00bc 00cf 0093 004c 007f     ....y.......L...
   17598:	0095 002a ffff 000a 0030 fffd ffe9 0022     ..*.....0.....".
   175a8:	000a ffd6 0019 001f ffe4 fffa fff3 fffe     ................
   175b8:	0020 ffe0 ffe4 fffc 0016 0004 ffbf ffd3      ...............
   175c8:	fffc ffcd ffa5 ff93 ff8c ff8f ffc0 ffd7     ................
   175d8:	ffcb ffdb ffeb ffaa ff7e ffa0 fff5 ff60     ........~.....`.
   175e8:	ffc4 ffbb ff7c ff92 ffab ff8c ff7b ffe1     ....|.......{...
   175f8:	ff9c ffb6 ffcf fffe ff9e ff55 ffd1 000e     ..........U.....
   17608:	ffbf ffc6 001a 0021 0025 0035 0064 004d     ......!.%.5.d.M.
   17618:	00bb 0091 009b 00e3 00fa 00e4 00d2 010c     ................
   17628:	00dd 00bd 00b6 00be 00b2 0097 0091 00c7     ................
   17638:	0075 008d ffdb 0083 00f5 ff5b ffd4 fff9     u.........[.....
   17648:	ffc5 ffaf ffa1 ffa2 ff9f ffc9 ffeb ff98     ................
   17658:	000c 0005 ffd5 ff88 ffd1 ff98 ff72 ffab     ............r...
   17668:	ff83 ff9a ffa8 ffcb ff46 ff30 ff36 ff05     ........F.0.6...
   17678:	fee5 fedc fee6 fe95 fee1 fee2 fefe ff1d     ................
   17688:	ff29 ff27 ff4b ffb4 fffd ffbb 0022 0040     ).'.K.......".@.
   17698:	0001 0012 ffff 0051 004b 0061 007b 009a     ......Q.K.a.{...
   176a8:	0038 005e 00aa 00cb 0094 0053 00b4 008f     8.^.......S.....
   176b8:	0060 008c 00a8 00ac 00c1 00da 00b7 00af     `...............
   176c8:	00f5 0133 0148 012f 0145 01b7 014d 012f     ..3.H./.E...M./.
   176d8:	0144 012b 00e4 00a2 008f 0095 0060 ffb7     D.+.........`...
   176e8:	ff54 ff95 ff8f ff35 ff99 000c fffa 0002     T.....5.........
   176f8:	fffe 0002 fffd 0000                         ........

00017700 <close_pcm>:
	...
   17718:	0001 0000 0000 0000 0000 0000 0000 0000     ................
   17728:	0000 0000 0001 0001 0000 0000 0000 0000     ................
	...
   17740:	ffff 0000 0000 0000 0001 0000 0000 0001     ................
   17750:	0001 0001 0000 0000 0000 0000 0001 0000     ................
   17760:	0000 0000 0000 0001 0000 ffff 0000 0000     ................
   17770:	0000 ffff ffff 0000 0000 0000 ffff ffff     ................
   17780:	ffff 0000 0000 0000 0000 0000 0000 0000     ................
   17790:	0000 0000 0000 0001 0001 0001 0001 0001     ................
   177a0:	0001 0001 0001 0001 0001 0001 0001 0001     ................
   177b0:	0001 0001 0001 0002 0002 0002 0002 0003     ................
   177c0:	0004 0002 ffff ffff ffff ffff fffd fffa     ................
   177d0:	fff9 fff9 fff9 fffa fffa fffa fff8 fff8     ................
   177e0:	fff6 fff5 fff6 fff7 fff6 fff5 fff3 fff0     ................
   177f0:	fff1 fff2 fff2 fff0 ffef ffec ffeb ffeb     ................
   17800:	ffee fff0 fff1 ffee ffee ffee fff0 fff5     ................
   17810:	fff4 fff0 fff1 fff6 fff8 fff9 fff8 fffa     ................
   17820:	fff9 fffa fffd 0002 0005 0005 0002 0002     ................
   17830:	0005 0001 0000 0003 0005 0006 0006 0009     ................
   17840:	000b 000f 0012 0014 0011 000f 0013 0012     ................
   17850:	0013 0014 0013 0012 0013 0012 0014 0017     ................
   17860:	001a 001a 0016 0011 0011 0012 0016 0014     ................
   17870:	0011 0013 0012 000e 0012 0015 0014 0012     ................
   17880:	000c 000c 0010 0014 0013 0010 000f 000c     ................
   17890:	000c 0010 0010 000e 000b 0009 0006 ffff     ................
   178a0:	0000 0008 000b 0004 ffff fff9 fff8 ffff     ................
   178b0:	0006 0003 fff6 fff6 fff7 fff7 fff6 fff7     ................
   178c0:	fff6 fff8 fff6 fffa 0002 0003 0002 fffd     ................
   178d0:	fffa fff8 fff6 fff5 fff9 fff9 fff5 fff6     ................
   178e0:	fff4 fff2 fff5 fff8 fff7 fff7 fff1 ffef     ................
   178f0:	fff1 fff1 fff6 fff9 fffe fffd fff8 fff6     ................
   17900:	fff1 fff8 fff9 fff5 fff8 fff6 fff5 fff7     ................
   17910:	fff9 fffb fffa fff7 fff8 fffb 0002 0007     ................
   17920:	0002 fff8 fff1 fff5 ffff ffff fff7 fff4     ................
   17930:	fff7 0004 0007 0003 fffd ffff 0002 ffff     ................
   17940:	fff8 fff4 fffd 0007 0005 fffa fff5 fff8     ................
   17950:	fffb fff6 fffa fff8 fff5 fff9 0000 fff9     ................
   17960:	fff5 fffb fff8 fff5 fff6 fff5 fff2 fff1     ................
   17970:	fff1 fff6 fff1 fff0 fff2 ffed ffe4 ffe9     ................
   17980:	fff5 fff7 fff2 fff4 fffa fffa fffc fff9     ................
   17990:	fff9 fff7 fff4 fff3 fff3 fffb fffd fff9     ................
   179a0:	fffc ffff 0009 000e 000b 0007 0003 0000     ................
   179b0:	0005 000b 000b 0007 0002 fff8 fff2 fff3     ................
   179c0:	fffa 0004 0000 fffb 0000 0004 000c 0003     ................
   179d0:	0010 000d 0003 0004 0005 fffc fffc 0001     ................
   179e0:	0000 0008 0003 000b 000d 0001 0003 0013     ................
   179f0:	0012 000e 0012 0011 0013 0010 0009 000b     ................
   17a00:	000c 0012 001a 001e 001d 0010 000e 0012     ................
   17a10:	0011 000f 0011 0013 0011 000b 0006 0009     ................
   17a20:	0006 fffe fff3 fff6 fffc 0001 fff8 fff9     ................
   17a30:	fffe fffa fff1 fff0 ffff 0000 0001 fffb     ................
   17a40:	fffa fffa fff8 fffe fffd fffc 0000 fffe     ................
   17a50:	fff7 fff4 fff6 fffa fffa fff9 ffef ffe9     ................
   17a60:	fff8 fff8 fff7 fff3 ffe4 ffeb fffa fff7     ................
   17a70:	fff5 fff5 fff4 ffed fff5 0002 fffb fff4     ................
   17a80:	fffc 0003 fffb fff6 fff8 0004 000c 0000     ................
   17a90:	0008 0005 fffc fffb fff6 fffb fffb fffb     ................
   17aa0:	fffa fff6 fff9 fffc fff5 fff2 fff6 fff4     ................
   17ab0:	fff6 0000 0002 fffa fffe fffd 0000 0004     ................
   17ac0:	0010 001d 001c 0011 0004 0014 0019 0014     ................
   17ad0:	0017 0017 001b 0016 0017 0019 001b 000f     ................
   17ae0:	000d 000b 0006 000c 0013 0012 000b 0006     ................
   17af0:	0008 000f 000c 0009 0006 0014 0014 0014     ................
   17b00:	0009 0010 0016 0010 0018 001b 0026 002a     ............&.*.
   17b10:	0024 0022 0016 0011 0016 001f 001f 0020     $."........... .
   17b20:	001d 001a 001d 0019 0023 0029 0021 0024     ........#.).!.$.
   17b30:	0011 000d 0009 fffe fffb fff7 fff8 fffa     ................
   17b40:	0001 fff6 fff1 ffe9 ffe8 ffed fff1 fff0     ................
   17b50:	fff4 fff6 fff6 ffee ffed ffef fff0 ffe4     ................
   17b60:	ffe6 ffe2 ffe3 ffe6 ffe3 ffde ffdc ffdd     ................
   17b70:	ffe6 fff3 ffe9 ffe5 ffe6 ffdf ffd9 ffe3     ................
   17b80:	ffe7 ffe5 fff1 fff5 ffeb ffeb ffef 0000     ................
   17b90:	0005 0005 fff7 fffc 0010 0029 0036 002e     ..........).6...
   17ba0:	0028 0014 0015 001a 0019 000d 000d 0006     (...............
   17bb0:	000b 000b 0009 0015 000f 0014 0017 0011     ................
   17bc0:	000f 000e 0010 000d 001c 001b 0009 0004     ................
   17bd0:	fffe 0009 0014 0012 0008 0011 001c 0008     ................
   17be0:	fffc fffb ffff 0006 0001 fffd ffed fff2     ................
   17bf0:	ffec ffea ffec ffdf ffeb ffe9 fff6 ffec     ................
   17c00:	ffe3 ffe9 ffe5 ffe8 fff3 0000 ffff ffeb     ................
   17c10:	ffe8 ffe4 ffea fff8 fffd fffc ffee ffe4     ................
   17c20:	ffea fff1 ffe0 ffe6 ffe8 ffe3 ffe3 ffe6     ................
   17c30:	ffdf ffe9 fff8 ffe6 ffd3 ffd9 ffd7 ffd5     ................
   17c40:	ffdf ffe6 ffe2 fff3 ffe9 ffd6 ffd3 ffe4     ................
   17c50:	ffe8 ffdc ffe5 ffea fff2 fff3 ffec ffe4     ................
   17c60:	ffe6 ffe7 fff5 0002 fff8 fff2 ffef fff0     ................
   17c70:	fffd ffee ffda ffe3 ffef fff4 fffd 0006     ................
   17c80:	000a 000a fffd fff8 fffb 0010 0018 0019     ................
   17c90:	000c 0006 0014 0011 0014 001a 0024 001a     ............$...
   17ca0:	0000 000d 001a 001d 001c 0021 0016 001d     ..........!.....
   17cb0:	001a 0015 0017 0016 000e 0001 fffc ffe8     ................
   17cc0:	ffe8 ffe5 ffee fff6 fff4 fff4 fff5 fff2     ................
   17cd0:	ffff 000a 0000 fff3 0001 0000 ffe8 ffe1     ................
   17ce0:	fff2 0002 fff7 ffe6 ffe6 ffed ffea fff3     ................
   17cf0:	ffff fff5 0008 001b 0025 0011 0011 0019     ........%.......
   17d00:	0014 0012 001f 001e 0013 0000 0000 0006     ................
   17d10:	0004 0002 ffff 0001 000e 0017 0018 0009     ................
   17d20:	fffb 0022 0042 004d 002d 0012 0007 fff8     ..".B.M.-.......
   17d30:	0001 0012 0010 fffe ffed ffee fffb 0000     ................
   17d40:	0014 0008 fffb fff6 000b 001c 0021 001a     ............!...
   17d50:	0003 fffd 0001 fff6 fff5 0000 fff7 fff2     ................
   17d60:	ffe9 ffe5 ffef 0006 000e 0004 fffc fffa     ................
   17d70:	0010 001e 0012 0010 000e 0011 000f 0006     ................
   17d80:	0010 0012 0015 000e 0014 0010 0022 0035     ............".5.
   17d90:	002d 0026 0019 001c 001e 001f 0020 002b     -.&......... .+.
   17da0:	003d 003f 0031 0027 003d 0030 0026 0029     =.?.1.'.=.0.&.).
   17db0:	001b 0007 fffc 0008 0004 0008 000e 0007     ................
   17dc0:	0023 0022 0025 0027 0030 001d 0009 0019     #.".%.'.0.......
   17dd0:	0015 0038 0035 0021 0002 fff5 ffe9 fff4     ..8.5.!.........
   17de0:	0010 0012 0004 000a 0010 000c 001c 0016     ................
   17df0:	0000 fff3 fff0 0002 0005 0007 fff5 ffe6     ................
   17e00:	ffd9 ffd5 ffdb ffee 0001 fff7 fff2 0000     ................
   17e10:	fffb ffff fffb fff4 fff9 fffd fffe ffed     ................
   17e20:	ffde ffdb fffe 0001 ffeb ffd6 ffdc ffe0     ................
   17e30:	fff3 000a 0016 0018 000d 000d 0010 fff6     ................
   17e40:	fffc 001a 001d fffb ffe6 fffa fffd ffe7     ................
   17e50:	fff0 fff8 ffe4 ffe8 ffef ffe8 ffea ffde     ................
   17e60:	ffdb ffed fff2 ffee fff1 ffe1 ffdb ffdf     ................
   17e70:	ffd5 ffdf ffe3 ffe6 ffc9 ffdd fff5 fff9     ................
   17e80:	fff5 ffe6 ffd8 ffe1 ffd8 ffd8 ffee ffe4     ................
   17e90:	ffdb ffcd ffbd ffc4 ffcd ffd0 ffd6 ffd3     ................
   17ea0:	ffd3 ffd7 ffcd ffcb ffcc ffdc ffe5 fff5     ................
   17eb0:	0003 fffe ffe6 ffd4 fff4 0002 fffc fffa     ................
   17ec0:	fffe fff3 fff0 0006 0015 0011 000b fffe     ................
   17ed0:	fff4 fff0 0002 0002 0003 000d 000b 0016     ................
   17ee0:	0016 000e 0024 0022 0003 fffa 000d 0012     ....$.".........
   17ef0:	000a 0014 0003 fffd 0009 0000 0000 ffff     ................
   17f00:	ffeb fff9 fffe ffef fff1 fffd fff6 fffd     ................
   17f10:	fff5 fff0 ffee ffef fff9 fff0 ffec ffe9     ................
   17f20:	ffea fff2 0000 000f 000c 0002 0006 fff7     ................
   17f30:	fffa 0005 0004 fffd fff7 fffb 0003 000b     ................
   17f40:	0000 fff8 0001 0004 0002 0002 0018 002a     ..............*.
   17f50:	001f 0010 0011 0024 003e 003c 0019 000c     ......$.>.<.....
   17f60:	0007 0012 000c 0010 0018 0017 0008 fff8     ................
   17f70:	0009 000a 000d 000d 0019 0011 0015 0016     ................
   17f80:	0004 fff1 ffd2 fff1 fff7 0000 0003 fff0     ................
   17f90:	ffed fff7 000a 0004 fffd fff1 ffef 0003     ................
   17fa0:	0003 fff9 fffd ffe4 ffcf ffdd ffd8 ffc1     ................
   17fb0:	ffc0 ffd1 ffcd ffd7 ffd7 ffe3 ffed ffee     ................
   17fc0:	fff6 0002 fffb fff4 fffe ffff fffe fffb     ................
   17fd0:	0009 001b 0022 001d 0017 0019 001d 002d     ....".........-.
   17fe0:	0022 001b 000f 0002 0008 0002 0008 0007     "...............
   17ff0:	fffd 0007 0011 0018 0022 0014 0018 0018     ........".......
   18000:	002d 0030 0031 002f 0028 002d 0034 0033     -.0.1./.(.-.4.3.
   18010:	002b 002f 002e 0034 0032 0038 003d 0029     +./...4.2.8.=.).
   18020:	0032 003d 003b 0038 0036 0031 001f 0027     2.=.;.8.6.1...'.
   18030:	002c 0023 0023 0021 0017 001f 001c 0018     ,.#.#.!.........
   18040:	0016 0019 000a 0014 001e 0017 001a 0004     ................
   18050:	fff6 fff9 0005 000e fff9 fff5 0006 fffa     ................
   18060:	ffd6 ffd3 ffe7 fffd 0000 fff8 fff9 fff1     ................
   18070:	fffc fff2 ffec ffeb fffb fffc ffec ffdb     ................
   18080:	ffe9 ffee ffdf ffdf ffe4 fff7 0003 fffb     ................
   18090:	ffef ffe5 ffe3 ffef fff0 ffdf ffe4 ffe9     ................
   180a0:	fff4 fff9 ffea ffef fff0 fffa 0001 0013     ................
   180b0:	001a 0018 0015 0010 0017 0033 0031 0013     ..........3.1...
   180c0:	0004 0015 001d 0018 0018 0022 0032 002d     ..........".2.-.
   180d0:	0023 002b 002a 0028 001a 0014 0025 0020     #.+.*.(.....%. .
   180e0:	0017 001b 000c 000c 0004 fffd fffb fffd     ................
   180f0:	fff2 ffe7 ffd8 ffcb ffca ffcc ffd3 ffe4     ................
   18100:	ffeb ffdf ffd8 ffd8 ffdb ffed ffef ffee     ................
   18110:	ffec ffe2 ffe7 ffdc ffe5 fff4 ffe5 ffdc     ................
   18120:	ffd6 ffe2 ffea ffe1 ffdd ffde ffdb ffdc     ................
   18130:	ffe3 ffe7 ffec fff2 fff0 ffe7 ffe0 ffe5     ................
   18140:	ffef fff7 fffa ffea ffe2 fff8 fff5 fff3     ................
   18150:	ffe6 ffda ffd5 ffdb ffdf ffe9 ffeb ffd8     ................
   18160:	ffd9 ffed fff3 ffe8 ffed ffe9 fff2 fff8     ................
   18170:	0004 0009 fff2 fff1 ffec fff2 ffe8 ffe5     ................
   18180:	fff1 fffa fffd fff3 fff1 ffee fff4 fff2     ................
   18190:	fffb fffc ffea ffea ffd7 ffca ffc3 ffc1     ................
   181a0:	ffd6 ffde ffdd ffd8 ffdd ffe7 ffdb ffe0     ................
   181b0:	fffd fff8 0007 0009 0004 ffed fff1 fff5     ................
   181c0:	ffff 0001 fff2 0006 000f 0011 fffe fffe     ................
   181d0:	000e 001b 001a fff9 0006 000e 0006 0008     ................
   181e0:	0001 fff8 ffff 0005 0008 0002 0002 0006     ................
   181f0:	0012 001a 0018 0016 0018 000c 001d 0024     ..............$.
   18200:	0031 0028 0011 0004 fffb 000e 0015 0013     1.(.............
   18210:	000f 0007 000c 0004 fff8 fff7 ffe3 ffe4     ................
   18220:	ffe9 ffec ffdf ffec fff6 fff1 ffe4 ffec     ................
   18230:	0005 fffe fff1 ffeb ffe7 fff1 ffe1 ffda     ................
   18240:	ffe5 ffed fffd ffef fff6 fff9 ffe6 ffe2     ................
   18250:	ffdf ffeb fff1 ffe9 fff5 fffb fff9 ffdf     ................
   18260:	ffd2 fff2 000f 001d 001b 0017 000a 0012     ................
   18270:	0014 0024 0028 0031 002e 0023 000c 000a     ..$.(.1...#.....
   18280:	001e 0025 0021 0018 0028 0021 0028 001b     ..%.!...(.!.(...
   18290:	000e 0015 002b 0030 0026 0023 001f 0028     ....+.0.&.#...(.
   182a0:	0027 002b 003b 0035 0026 0022 0027 002f     '.+.;.5.&.".'./.
   182b0:	002d 0021 0018 0011 0004 0000 0015 0030     -.!...........0.
   182c0:	002d 0021 0013 0009 000c 0026 0044 0041     -.!.......&.D.A.
   182d0:	0020 0009 0015 0022 0019 0025 0023 002b      ....."...%.#.+.
   182e0:	0022 002e 003a 0040 003b 0042 003f 003d     "...:.@.;.B.?.=.
   182f0:	003a 002b 001f 0020 0013 001b 0028 001f     :.+... .....(...
   18300:	0004 fff7 fff0 fffd 0016 0017 0020 001c     ............ ...
   18310:	001a 000f 0015 0017 001e 0032 0024 0010     ..........2.$...
   18320:	fffd fffc 0007 0008 0000 0005 0008 0003     ................
   18330:	000a 0008 ffef ffdf ffe7 fffb fff4 ffdc     ................
   18340:	ffe6 000a 000e 0005 fffe ffde ffe4 ffe7     ................
   18350:	fffa fffd ffe4 ffd6 ffd1 ffdc ffd1 ffde     ................
   18360:	fff6 fffe fff4 ffe1 ffd3 ffe8 fffb fffc     ................
   18370:	fffc fff9 fff8 ffef ffe9 0000 000a fff0     ................
   18380:	fff0 fff9 fffe fff5 fff0 ffeb ffe6 ffde     ................
   18390:	fff3 fffe ffec fff3 ffe9 ffef ffe8 ffec     ................
   183a0:	fff0 ffe3 ffdb ffd4 ffdd ffed ffea ffde     ................
   183b0:	ffe1 ffe5 fff2 ffef ffdf ffe0 ffdb ffd7     ................
   183c0:	ffcd ffd3 ffe4 ffe1 ffe0 ffdc ffe4 ffda     ................
   183d0:	ffda ffe7 fff2 fff4 fffc fff7 fff6 fffb     ................
   183e0:	fff0 ffec fff5 ffe5 fffb 0004 fff1 ffe2     ................
   183f0:	ffd4 ffdd fff2 ffe2 ffe9 ffe4 ffea fffb     ................
   18400:	ffe5 ffe8 ffe8 fffa fffe 0006 000a 0009     ................
   18410:	000d 000d 000f 0001 fffe 0006 0003 fffc     ................
   18420:	fff8 fff4 fff6 0008 ffeb ffe2 fff3 fffa     ................
   18430:	ffec ffea fff1 fff6 ffea ffe6 ffe9 ffe9     ................
   18440:	ffed ffe1 ffd9 ffe2 fffe 000d fffc ffef     ................
   18450:	fff9 000d 001e 001c 0017 001a 000e 0007     ................
   18460:	0003 0010 000e 000c 0011 000f 0005 fff7     ................
   18470:	fff5 fff7 fff6 ffea ffe5 ffe3 fff8 0001     ................
   18480:	fff1 fff5 0004 0013 0004 fff4 ffea fffc     ................
   18490:	fff6 fffb 0019 0019 0002 fffe ffee ffed     ................
   184a0:	fffb 0006 0014 0003 000b 000f 000b fffb     ................
   184b0:	ffe5 ffeb fffb fff9 fff3 ffef 0002 0005     ................
   184c0:	0005 0009 ffff 0003 0005 0015 000a fff4     ................
   184d0:	ffec fffe 0009 0012 0013 fff7 fff5 0006     ................
   184e0:	fffd ffee ffe9 fff6 fff9 fff9 0011 0017     ................
   184f0:	ffff 0008 000a 0013 0022 0025 0025 002b     ........".%.%.+.
   18500:	0028 0020 001b 0008 000f 002c 0022 000e     (. .......,."...
   18510:	000c 0009 0013 001d 0023 001c 0021 002b     ........#...!.+.
   18520:	0030 002e 002c 002d 0038 0031 0028 0037     0...,.-.8.1.(.7.
   18530:	0039 0032 001d 0014 0026 0047 0040 001e     9.2.....&.G.@...
   18540:	000e 0014 0026 002b 002b 0026 001b 0019     ....&.+.+.&.....
   18550:	001f 001e 0020 0013 0009 0007 0001 ffff     .... ...........
   18560:	001c 000d 0009 0011 0004 0001 0006 0014     ................
   18570:	001d 0007 0005 0014 0014 0002 0009 0008     ................
   18580:	fff7 fffa 0004 000a 000e fffe ffe7 fffd     ................
   18590:	0014 001d 0000 ffe9 fff0 0000 fff4 fff4     ................
   185a0:	fff1 ffde ffdb ffe9 fff0 fff3 fffc fff8     ................
   185b0:	fff8 ffeb ffe4 fff2 fff7 0002 000b 0010     ................
   185c0:	000f 0009 0007 0010 0005 fffd 000f 0003     ................
   185d0:	0005 0003 fffd 0004 0006 fff9 fffc fffe     ................
   185e0:	ffec ffe5 ffea 0007 0012 0014 000a fff7     ................
   185f0:	fff6 0003 001a 0011 000c 0000 fffc fffa     ................
   18600:	0009 0000 fffd fffa fff2 ffec fff4 fff5     ................
   18610:	ffe8 ffde ffdc ffcc ffda ffed ffed ffe4     ................
   18620:	ffd6 ffce ffd4 ffc9 ffc5 ffc9 ffc6 ffc4     ................
   18630:	ffd0 ffdc ffda ffcd ffd1 ffce ffd9 ffec     ................
   18640:	ffe8 ffda ffd8 ffd5 ffe3 ffdc ffdd ffdf     ................
   18650:	ffdf fff1 ffe8 ffde ffd1 ffce ffe4 fff5     ................
   18660:	ffee 0001 0007 0006 0001 fff2 0001 0010     ................
   18670:	0003 0016 0015 ffff fff3 ffe5 fff7 fffa     ................
   18680:	fffb fff8 ffe2 ffe3 fff2 fffa fff9 ffeb     ................
   18690:	ffe5 ffdd ffe4 fff0 fff2 fff5 fff8 ffe5     ................
   186a0:	ffd4 ffed ffed fff3 0002 0010 0014 0008     ................
   186b0:	0012 0009 0000 000e 0023 002c 001f 0017     ........#.,.....
   186c0:	0012 0009 0019 0029 0029 0026 0024 0027     ......).).&.$.'.
   186d0:	002a 001b 002d 0035 0021 0026 0028 0016     *...-.5.!.&.(...
   186e0:	0016 002a 0028 001e 000a fff7 0002 0019     ..*.(...........
   186f0:	0015 0002 fffa ffed ffe5 fff8 fff7 ffef     ................
   18700:	ffe4 ffe5 ffe0 ffde ffee ffdb ffc8 ffd0     ................
   18710:	ffe2 ffe6 ffe3 ffda ffcf ffe1 fff9 fff9     ................
   18720:	ffec ffe4 ffe4 fff4 fffe fff9 ffff fff7     ................
   18730:	ffeb ffe5 ffed fff1 ffee fff2 fff2 ffef     ................
   18740:	fff3 fff6 0005 0009 000c 0015 0013 0017     ................
   18750:	001b 0025 002b 0026 0016 0008 0017 0023     ..%.+.&.......#.
   18760:	001e 0021 0023 001a 0026 001c 0014 001f     ..!.#...&.......
   18770:	0008 0003 0004 000a 0007 ffff 0001 fff9     ................
   18780:	0003 0013 0016 fffc fff4 fffe 000f 000d     ................
   18790:	0002 0005 0000 0020 0013 0004 0008 fffa     ...... .........
   187a0:	0001 0019 0038 0042 0039 0016 000d 0021     ....8.B.9.....!.
   187b0:	0028 003e 0042 0038 0027 0023 0038 003d     (.>.B.8.'.#.8.=.
   187c0:	0039 0029 0023 0029 002b 002f 0039 0039     9.).#.).+./.9.9.
   187d0:	0038 0040 0030 002b 003d 0048 0044 003c     8.@.0.+.=.H.D.<.
   187e0:	002b 0021 0030 0042 0038 0027 001b 0010     +.!.0.B.8.'.....
   187f0:	0005 fff5 fffb 0001 0002 000f 001a 0005     ................
   18800:	ffeb ffdd ffdc ffec ffe4 ffeb ffe6 ffde     ................
   18810:	ffdd ffd7 ffdc ffce ffca ffda ffe0 ffe7     ................
   18820:	ffec ffe7 ffea ffe6 ffe7 fffa 0003 fffa     ................
   18830:	fff2 ffef ffe1 ffe4 fff3 fffc ffe9 ffd4     ................
   18840:	ffd4 ffd8 ffc7 ffd2 ffe3 ffef ffd9 ffe0     ................
   18850:	ffef fff7 0006 fff8 ffee ffeb 0002 000e     ................
   18860:	001b 0012 0005 0005 0008 0015 0018 0012     ................
   18870:	0010 000c 000f 001d 0019 0019 0014 0011     ................
   18880:	000d fff9 0006 000b 0009 0011 000d 0006     ................
   18890:	ffee ffe9 ffe4 ffee ffe9 ffee fff2 ffe4     ................
   188a0:	ffdd ffd6 ffdb ffe8 fff8 fff5 ffec ffec     ................
   188b0:	ffeb fff5 fff9 ffff fff5 ffe9 fff1 fff1     ................
   188c0:	ffe9 fffb 0007 fffe fff5 fff8 fffd fff1     ................
   188d0:	fff4 fff6 ffef ffee fff9 fff6 fff8 0004     ................
   188e0:	0008 000b 000d 0002 0004 0015 002b 0011     ............+...
   188f0:	0006 fff6 ffd2 ffdb fff2 fffd fff3 ffe0     ................
   18900:	ffd5 ffe0 ffea ffdc ffd6 ffcd ffc5 ffc9     ................
   18910:	ffcf ffc5 ffc6 ffd8 ffef fff6 ffee ffed     ................
   18920:	ffe8 ffd0 ffe1 fffd 000a 000c fffa ffe1     ................
   18930:	ffdd ffda ffd6 ffdf ffe6 ffe9 fff5 fff1     ................
   18940:	ffdc ffda ffd5 ffdf ffed ffdf ffd1 ffd3     ................
   18950:	ffd4 ffe4 ffe5 ffd4 ffe3 fff7 ffe8 ffe1     ................
   18960:	fffa 000c fffb 0009 0007 0008 0014 0010     ................
   18970:	0011 0009 0014 001b 0007 fffc fffc 0008     ................
   18980:	000f 000d fffe fff6 fff7 0008 002d 002b     ............-.+.
   18990:	0012 0018 0026 001b 0015 001b 0010 000b     ....&...........
   189a0:	000f 000d 001c 000f 0007 0022 0017 fffe     ..........".....
   189b0:	000d 002b 001e 0005 000f 0008 0005 000f     ..+.............
   189c0:	001e 0025 0021 002e 0033 0020 000d 0000     ..%.!...3. .....
   189d0:	fff0 0002 001f 0019 0013 001e 0006 000b     ................
   189e0:	0017 000e 001b 0015 0013 0022 0024 001a     ..........".$...
   189f0:	001f 0022 001f 001b 0011 001f 000e 0019     ..".............
   18a00:	0020 0006 0009 001c 0004 fffe 0004 0002      ...............
   18a10:	0009 0006 0006 0007 0003 000a fff6 fff5     ................
   18a20:	fffb 0004 000d 0006 ffef ffcf ffd9 fff4     ................
   18a30:	0004 0005 0003 0008 0008 0015 0009 fffd     ................
   18a40:	000f 000b 0007 0001 0011 001d 0003 ffef     ................
   18a50:	ffff 0009 fffe 0001 0011 ffff 0007 000c     ................
   18a60:	0001 fff7 fff4 fff6 000c 0013 0010 001e     ................
   18a70:	0012 0001 000b 0003 0002 0004 ffff fffe     ................
   18a80:	fff5 fff0 ffee ffed ffef fffa 0004 0014     ................
   18a90:	0012 0005 0013 000f 0001 fff3 fff6 fffd     ................
   18aa0:	0008 0006 0005 0014 0019 0020 0018 0008     .......... .....
   18ab0:	000d 0019 0023 002d 001f 000e 0008 000d     ....#.-.........
   18ac0:	0018 0023 0022 000d 0005 0008 0016 0011     ..#."...........
   18ad0:	0013 001e 001d 001b 0015 0022 0031 002c     ..........".1.,.
   18ae0:	0022 0018 0017 001b 001d 0029 0034 0032     ".........).4.2.
   18af0:	0020 0003 0008 ffff 0000 001e 0016 000d      ...............
   18b00:	fffa ffed ffd0 ffdb fff6 0007 fffa ffea     ................
   18b10:	ffe2 ffe0 fff0 fffb fffa fff7 fff2 ffe0     ................
   18b20:	ffd7 ffea fff4 ffee ffd7 ffcc ffc6 ffd6     ................
   18b30:	ffdb ffe2 ffde ffd1 ffd1 ffd6 ffe0 ffcc     ................
   18b40:	ffcb ffdf ffe4 ffdf ffd1 ffd4 ffe9 fffb     ................
   18b50:	0009 000c fff7 ffe4 ffde ffe4 0006 ffe7     ................
   18b60:	ffca ffd3 ffd4 ffdf ffec ffe1 ffc5 ffc2     ................
   18b70:	ffc4 ffc5 ffc0 ffca ffd3 ffd8 ffcb ffdb     ................
   18b80:	ffdc ffd6 fff3 fff8 0004 fff6 ffe6 ffeb     ................
   18b90:	fff7 0006 0000 ffe2 ffe2 ffdd ffed ffea     ................
   18ba0:	fff8 fff2 ffe3 ffea ffe9 ffea fffd fffd     ................
   18bb0:	ffe4 fff8 fffe 0003 fffc 0012 0004 fff2     ................
   18bc0:	fff3 0005 0008 fff7 fff9 fffe fffb ffec     ................
   18bd0:	ffef fff4 0000 0017 0023 0009 fff4 fffe     ........#.......
   18be0:	fffb fff5 fff8 fff4 0006 0008 0019 fffc     ................
   18bf0:	ffd6 ffec 0012 0021 0022 0013 fffc 0010     ......!.".......
   18c00:	0019 0013 0017 0012 001f 001f 001b 000d     ................
   18c10:	0015 0022 0014 0000 fff7 0006 0008 0009     ..".............
   18c20:	000a fff1 ffe1 ffef fffd fffb fff1 fff8     ................
   18c30:	fffb fffa ffed ffe6 ffcd ffd2 fff7 fff9     ................
   18c40:	fff6 ffed ffde ffd6 fff1 fff5 ffe6 fff4     ................
   18c50:	0003 000b 0011 0005 fff8 0007 0017 000e     ................
   18c60:	0012 001f 001f 001d 001c 001b 0019 0024     ..............$.
   18c70:	002c 001d 0007 0006 0009 001d 0025 0019     ,...........%...
   18c80:	0008 0000 fff2 ffff 0016 0015 0010 0008     ................
   18c90:	ffff 0008 fff5 0011 0023 002b 0029 0022     ........#.+.).".
   18ca0:	0018 0008 0014 001b 0024 0013 0011 0012     ........$.......
   18cb0:	0005 ffff 0001 0006 0006 0018 0021 0007     ............!...
   18cc0:	ffee 0001 000b 001b 0026 000d fffd 0000     ........&.......
   18cd0:	0007 0005 000e 0020 0030 0036 0030 002e     ...... .0.6.0...
   18ce0:	003f 003b 0045 0032 0027 0018 002f 003e     ?.;.E.2.'.../.>.
   18cf0:	001e 0015 0018 0008 000a 0014 0008 0001     ................
   18d00:	000f 0019 001f 0017 001c 0010 000c 0006     ................
   18d10:	0001 000f fffd fff6 0010 000d fffc fffc     ................
   18d20:	0006 fff9 ffec ffe2 ffe1 fff0 fffa ffef     ................
   18d30:	ffe3 ffd5 ffcd ffdf ffe2 ffe9 ffe2 fff0     ................
   18d40:	fffe ffdf ffc1 ffd7 ffec ffff 0006 ffff     ................
   18d50:	0006 000b 0002 0003 0016 001f 001e 000d     ................
   18d60:	fff8 fff1 000e 0010 0003 000e 001d 000e     ................
   18d70:	fffd 0002 001a 001f 001f 0014 0011 0004     ................
   18d80:	000b 0012 000b 000e 0016 0010 0007 001c     ................
   18d90:	0028 001f 0012 0003 0000 0002 0002 0004     (...............
   18da0:	fffd 0001 0001 0006 000a 0006 0000 fff9     ................
   18db0:	fffa 0002 fff1 ffeb fff9 0004 000a ffff     ................
   18dc0:	fff7 0009 0003 fffd 0002 0006 fff6 fff9     ................
   18dd0:	0006 fff8 ffdf ffdf ffe5 ffe4 ffdf ffd1     ................
   18de0:	ffd2 ffe3 ffde ffda ffc8 ffc9 ffd3 ffdf     ................
   18df0:	ffe9 ffe5 ffe8 ffe8 ffe4 ffef fff0 ffef     ................
   18e00:	ffea ffce ffcc ffce ffd2 ffce ffd2 ffd6     ................
   18e10:	ffc4 ffab ffab ffbb ffd9 ffdc ffd3 ffc8     ................
   18e20:	ffd5 ffdd ffee ffe3 ffdd ffe8 fff6 ffeb     ................
   18e30:	ffe4 ffef fff7 ffef fff3 ffee ffdf ffd9     ................
   18e40:	ffd9 ffdd ffd4 ffb3 ffb9 ffc1 ffcb ffd1     ................
   18e50:	ffd4 ffe6 ffd7 ffd0 ffc7 ffd8 ffe7 fff4     ................
   18e60:	fff8 fff9 fff2 fff2 0006 0000 fffc 0007     ................
   18e70:	0013 0017 0014 0013 0010 0001 000b 001c     ................
   18e80:	0018 0016 001e 001e 0016 0012 ffff 0005     ................
   18e90:	0012 001d 0021 0023 001c 000c 001d 0031     ....!.#.......1.
   18ea0:	0035 0034 002a 0023 0020 001b 0028 0036     5.4.*.#. ...(.6.
   18eb0:	002f 002c 0023 001f 001e 001c 0011 000e     /.,.#...........
   18ec0:	0016 0020 0016 000a 0017 0015 0012 0018     .. .............
   18ed0:	fffd fffb 0007 0012 0011 0018 0008 fff5     ................
   18ee0:	fffc 0003 fffa 000a 0006 fffe 0000 fffe     ................
   18ef0:	0003 ffff ffea ffe5 fffb 0003 0007 fffd     ................
   18f00:	fff8 fff6 fffd 0003 000d fff6 ffee fff5     ................
   18f10:	0000 fffe 0006 0006 000a 0013 0002 fff1     ................
   18f20:	ffe6 ffec fff8 fff5 fff6 fff2 fff6 ffff     ................
   18f30:	0008 000f fffc fffa 0004 0010 fffd 0008     ................
   18f40:	0008 000d 0012 000b 0005 0000 0013 0026     ..............&.
   18f50:	0025 0008 ffeb ffdb fff9 001c 001f 0023     %.............#.
   18f60:	0031 001c 000a 0020 0028 000c 000d 002b     1..... .(.....+.
   18f70:	0042 0035 0026 0024 001e 0020 0030 003d     B.5.&.$... .0.=.
   18f80:	0049 0042 003c 0047 0050 0047 002a 002d     I.B.<.G.P.G.*.-.
   18f90:	0037 0044 0039 0031 0029 000c 000c 0028     7.D.9.1.).....(.
   18fa0:	0033 002f 002b 0039 0032 002e 003b 0031     3./.+.9.2...;.1.
   18fb0:	0025 0027 001d 0023 0029 002c 0026 0000     %.'...#.).,.&...
   18fc0:	0013 0021 003d 0021 000c 001a 0017 001e     ..!.=.!.........
   18fd0:	000f fff7 ffea ffe6 ffff 0003 ffef ffdb     ................
   18fe0:	ffd6 ffdc ffd3 ffcf ffcc ffe9 fffb fffe     ................
   18ff0:	ffe0 ffcd ffd0 ffcc ffd7 ffe4 ffe3 ffd2     ................
   19000:	ffd7 ffda ffd8 ffd0 ffc7 ffc6 ffc1 ffc5     ................
   19010:	ffc1 ffbc ffb3 ffb8 ffbe ffc1 ffcf ffc5     ................
   19020:	ffc4 ffc7 ffd2 ffdf ffd9 ffe6 ffe8 fff4     ................
   19030:	fff1 ffef 0000 fffc 000b 0010 0003 0001     ................
   19040:	fff9 ffff fff8 fff9 fff3 ffda ffc7 ffc7     ................
   19050:	ffd0 ffd3 ffd9 ffd3 ffce ffce ffe9 fff9     ................
   19060:	0001 fff9 fff3 fff3 ffeb fffa ffff fff2     ................
   19070:	ffe7 ffe4 fff7 0006 fff8 ffeb fff9 fff5     ................
   19080:	0001 0007 fff1 ffe3 ffe2 fffa 000a 000e     ................
   19090:	0004 000a 0006 0002 0006 0006 000a 0023     ..............#.
   190a0:	0027 0021 0024 0017 0011 002b 0039 0017     '.!.$.....+.9...
   190b0:	000f 0018 0020 0014 000e 0023 0033 0037     .... .....#.3.7.
   190c0:	002d 0027 001f 0025 0022 0029 002f 0028     -.'...%.".)./.(.
   190d0:	0024 0025 0022 0027 0027 0014 0006 0002     $.%.".'.'.......
   190e0:	fffd 0009 0009 0002 0002 0000 fffc fffe     ................
   190f0:	fff6 ffe2 ffd5 ffcb ffda ffd3 ffc9 ffc8     ................
   19100:	ffc0 ffc8 ffce ffcb ffc0 ffb0 ffae ffb5     ................
   19110:	ffc6 ffba ffa2 ffa1 ffb1 ffb6 ffb9 ffb5     ................
   19120:	ffb1 ffa8 ffb1 ffa7 ffad ffc4 ffd7 ffd8     ................
   19130:	ffd3 ffd1 ffce ffe9 fff5 fff7 fff4 fff4     ................
   19140:	ffee ffe7 fff5 fff9 fffe fff2 fff6 fff2     ................
   19150:	fff4 fffe fffa fffe ffef 000d 0021 000a     ............!...
   19160:	ffff 000b 000d ffff fffd 0008 0019 0015     ................
   19170:	001f 002c 0029 0023 001c 0018 001b 002a     ..,.).#.......*.
   19180:	0025 002f 0041 0046 002f 0029 0031 0036     %./.A.F./.).1.6.
   19190:	0036 0051 0052 0051 004a 0044 0055 005e     6.Q.R.Q.J.D.U.^.
   191a0:	0051 0048 0054 0068 0060 004a 003e 002d     Q.H.T.h.`.J.>.-.
   191b0:	002e 0035 0048 0048 0040 002a 0026 003c     ..5.H.H.@.*.&.<.
   191c0:	0042 0047 0029 001d 0026 0030 0034 0032     B.G.)...&.0.4.2.
   191d0:	002d 0032 001f 0011 0019 0025 004b 0057     -.2.......%.K.W.
   191e0:	0041 0022 0018 002c 002e 0035 003f 0025     A."...,...5.?.%.
   191f0:	000f 000f 000f 000f 0018 001d 0013 000f     ................
   19200:	0002 fffe fff6 fffd 0002 fffa fff3 fff1     ................
   19210:	ffeb ffe0 ffd7 ffbd ffc7 ffc3 ffcc ffd7     ................
   19220:	ffdd ffd6 ffca ffb7 ffc0 ffd0 ffce ffd3     ................
   19230:	ffca ffc4 ffbf ffb7 ffb3 ffb7 ffb1 ffc2     ................
   19240:	ffd2 ffd0 ffe0 ffef ffe2 ffdd fff1 fffe     ................
   19250:	fffa fff0 fff4 fff0 fff3 ffef ffec ffe9     ................
   19260:	fff6 0004 ffef ffee 000b 001c 0012 000c     ................
   19270:	0016 000a 0018 001c 000c 000c 0009 0015     ................
   19280:	001d 002b 002c 001b 0018 001a 0023 002e     ..+.,.......#...
   19290:	0037 0041 003c 003f 002f 002b 002d 0032     7.A.<.?./.+.-.2.
   192a0:	002f 0027 001c 001c 0032 0025 001c 001a     /.'.....2.%.....
   192b0:	001a 001e 001f 001b 0005 fff2 0000 0001     ................
   192c0:	fff4 0003 0004 0001 ffea ffec ffef ffff     ................
   192d0:	0000 fff7 0004 fff6 fffb fffc fff9 fff7     ................
   192e0:	fff7 fff7 ffea ffea fff2 ffef ffde ffd7     ................
   192f0:	ffdc ffd2 ffc6 ffe1 ffeb ffe3 ffda ffdc     ................
   19300:	ffd9 ffdb ffd9 ffce ffc4 ffb4 ffbd ffdf     ................
   19310:	ffd4 ffc3 ffc8 ffbf ffba ffb8 ffc4 ffc4     ................
   19320:	ffa4 ff9b ffa2 ffa6 ffa5 ffba ffd6 ffc1     ................
   19330:	ffaf ffb3 ffb8 ffbc ffbc ffba ffc6 ffca     ................
   19340:	ffbe ffbd ffc4 ffcb ffe7 ffea fff4 fffd     ................
   19350:	fff5 fff3 fff0 fff4 fff4 ffea ffe5 fff0     ................
   19360:	0005 0010 0014 0014 fffd ffff 000c 0037     ..............7.
   19370:	0025 001f 0014 000d 0025 001e 001a 0009     %.......%.......
   19380:	0003 0008 0018 0019 0005 0010 000c 0015     ................
   19390:	0018 001f 002f 001b 0019 002d 003c 0039     ..../.....-.<.9.
   193a0:	0035 003b 0030 0039 0032 0023 0023 0028     5.;.0.9.2.#.#.(.
   193b0:	0024 002c 0024 0015 001c 001f 0017 0013     $.,.$...........
   193c0:	0016 0012 0017 0027 001d 0009 fff2 fffb     ......'.........
   193d0:	0012 0011 0013 0008 fffa 0003 0010 0015     ................
   193e0:	0010 0002 fff1 ffe7 ffd5 ffe8 ffff fffd     ................
   193f0:	ffed fff0 0002 fffe fffc fffd ffff fffc     ................
   19400:	0000 0004 0011 0014 0013 0019 001f 0028     ..............(.
   19410:	001a 0010 0025 000e 000c 0006 fff1 0000     ....%...........
   19420:	0005 0003 0009 000b 0001 fff9 000a 000a     ................
   19430:	fffc fff7 fff2 fff1 0000 fff5 ffe8 ffe9     ................
   19440:	0000 fffa fffa ffff ffef ffe4 ffe5 000c     ................
   19450:	0022 0011 ffed ffe7 ffdc ffe3 fff5 0002     "...............
   19460:	0005 0015 fffd fffa fff8 fff7 0012 0011     ................
   19470:	0010 0004 0002 fffc fff8 000c 0018 001c     ................
   19480:	0018 0008 0009 0016 0029 0037 0031 0026     ........).7.1.&.
   19490:	0027 0017 0012 001e 0032 0035 0020 001b     '.......2.5. ...
   194a0:	0025 0024 002b 0034 001c 000e 0018 001c     %.$.+.4.........
   194b0:	001a 0013 0018 000f 0011 001c 0024 001f     ............$...
   194c0:	002f 0035 0037 002b 0019 0022 0029 0035     /.5.7.+...".).5.
   194d0:	0038 0038 0026 0018 0011 0005 000b 000a     8.8.&...........
   194e0:	0009 0016 0003 fff5 fff2 0008 0015 000c     ................
   194f0:	fffb 0003 001c 0017 0012 000f 0011 0005     ................
   19500:	0001 fffd 000d 0008 0002 fffc ffef fff3     ................
   19510:	fffc 0013 ffff fff1 ffe9 ffeb ffe6 ffd7     ................
   19520:	ffde ffda ffdb ffde ffea ffdd ffdf fff4     ................
   19530:	fff6 fff5 ffde ffdd ffd6 ffe3 fff4 ffe7     ................
   19540:	ffde ffda ffda ffd7 ffd6 ffd8 ffe8 ffe4     ................
   19550:	ffd4 ffd8 ffdf ffde ffdc ffe2 ffe8 ffe1     ................
   19560:	ffd8 ffc2 ffd0 ffe1 ffe9 ffe0 ffda ffc9     ................
   19570:	ffc7 ffd9 ffde ffd8 ffc1 ffc9 ffca ffc5     ................
   19580:	ffd5 ffe9 ffdc ffbd ffbf ffce ffe6 ffe4     ................
   19590:	ffe7 ffdf ffda ffd6 ffd2 fff0 fff5 fff2     ................
   195a0:	ffe0 ffeb 0002 0013 001c 0012 0008 fff9     ................
   195b0:	0007 001f 0029 001b 001c 0011 000d 0019     ....)...........
   195c0:	0016 002e 0029 0013 0011 0003 0002 0015     ....)...........
   195d0:	002f 0036 0025 000a 000c 001d 001e 0023     /.6.%.........#.
   195e0:	0020 000c fffd 0010 001a 0017 fff9 ffe6      ...............
   195f0:	ffdf ffed fff0 ffe8 ffff fffe fff6 fff6     ................
   19600:	fffb 0005 fffa fffb 0008 0007 0007 0001     ................
   19610:	0003 0015 0012 fffe fff5 ffe3 ffd2 ffd2     ................
   19620:	ffd5 ffdf ffe1 ffd2 ffc5 ffd5 ffdd ffef     ................
   19630:	ffed ffdf ffca ffd6 ffe2 ffed ffed ffec     ................
   19640:	fff3 ffef fff7 fffd fff8 0003 fffe ffec     ................
   19650:	ffeb ffdd fff5 fffa fffd 0001 ffed ffe6     ................
   19660:	fffc 0003 0000 0003 0008 000b 0004 000a     ................
   19670:	000b 0017 001b 0011 0024 0021 0010 0017     ........$.!.....
   19680:	0014 000d fffa ffff 0028 0034 001d 0017     ........(.4.....
   19690:	002a 0039 0023 001e 002a 0034 0025 0022     *.9.#...*.4.%.".
   196a0:	0029 0023 001c 001c 001d 001a 0023 0030     ).#.........#.0.
   196b0:	0034 0039 003b 0031 0027 0023 0028 002d     4.9.;.1.'.#.(.-.
   196c0:	002d 0019 0017 0009 0009 000e 0020 0025     -........... .%.
   196d0:	0021 002a 001e 0026 002d 002c 0037 0038     !.*...&.-.,.7.8.
   196e0:	001c fffc 0009 0022 0033 002f 0039 001d     ......".3./.9...
   196f0:	000c 0006 000b 0019 0004 000a 0009 0003     ................
   19700:	0013 001a 000b 000d 0005 0002 000c 0010     ................
   19710:	fffc fff2 000a 000a 000e 0002 fff2 fff1     ................
   19720:	0010 000b fffe 0000 fff9 0008 0011 0019     ................
   19730:	0019 0010 fffa ffef ffef 0002 0007 fffe     ................
   19740:	0001 ffff 0006 000a 0005 fff2 fff1 fff9     ................
   19750:	fff9 fff6 ffe3 ffde ffd8 fff4 0001 ffe2     ................
   19760:	ffe0 ffd5 ffea 0007 fff4 ffea fff2 ffed     ................
   19770:	0003 000c 0008 0013 0013 0018 000e 0009     ................
   19780:	0004 0011 0020 0011 0018 001c 0027 002d     .... .......'.-.
   19790:	0012 0006 fffe 0002 000a 000b 0015 001a     ................
   197a0:	0008 fffe fffd 0015 0021 0014 fffa ffde     ........!.......
   197b0:	fff4 fffc 0004 0009 ffee ffeb ffea ffe5     ................
   197c0:	ffdc ffe0 ffef ffee ffe0 ffe5 ffe3 fff7     ................
   197d0:	ffe7 ffdc ffe5 ffda ffe9 ffee ffe8 ffe7     ................
   197e0:	ffdd ffd6 ffcb ffcd ffd7 ffe5 ffe7 ffdc     ................
   197f0:	ffd1 ffd6 ffd6 ffd4 ffd7 ffdd ffec ffea     ................
   19800:	ffd0 ffc0 ffde ffd4 ffe1 ffeb ffea ffe3     ................
   19810:	ffc0 ffbc ffbe ffcf ffdf ffe5 ffd9 ffc5     ................
   19820:	ffbd ffb9 ffbc ffc0 ffc4 ffc8 ffbe ffbc     ................
   19830:	ffc1 ffc3 ffdc ffe0 ffef fff4 ffe7 ffeb     ................
   19840:	fff0 0001 0000 fff2 fff9 0008 0008 0011     ................
   19850:	0016 ffff ffed 0010 0025 001f 0017 000e     ........%.......
   19860:	fffe 0005 0021 001e 0024 0019 0018 002b     ....!...$.....+.
   19870:	0042 004c 0035 0021 001d 002c 0034 001f     B.L.5.!...,.4...
   19880:	0013 0034 0030 0024 0011 001c 0035 002b     ..4.0.$.....5.+.
   19890:	0018 0019 0018 0011 0019 0022 002d 0027     ..........".-.'.
   198a0:	0026 001c 0017 0016 001b 003d 0036 0013     &.........=.6...
   198b0:	0002 0001 0015 001e 001e 000b 0003 0013     ................
   198c0:	fffa ffe6 ffef ffef fff0 ffe8 ffeb fff5     ................
   198d0:	ffe6 ffeb fffa fff4 ffee ffeb fff5 fff9     ................
   198e0:	fffd ffea ffe5 fff8 0001 0004 fff7 ffea     ................
   198f0:	ffd3 ffdd fff7 ffe0 ffd7 ffe2 ffd9 ffd3     ................
   19900:	ffc3 ffbb ffc4 ffc1 ffd6 fff2 ffe6 ffed     ................
   19910:	ffe2 fff8 0009 0003 fffb ffe8 ffe7 ffea     ................
   19920:	ffdd ffd6 ffe1 0000 fff9 fff4 ffee fff2     ................
   19930:	0002 0016 0011 0000 fffc ffee fffc 0002     ................
   19940:	fffd 0002 000b 0008 000a 0013 001c 0028     ..............(.
   19950:	0032 0033 003d 003a 002f 0026 0022 0035     2.3.=.:./.&.".5.
   19960:	0035 0030 003c 0036 0036 0026 0023 002e     5.0.<.6.6.&.#...
   19970:	002a 0022 001d 0029 002a 002f 001e 000f     *."...).*./.....
   19980:	0015 000f 001d 0024 0029 0033 002c 0022     ......$.).3.,.".
   19990:	000f 0011 0028 0047 0039 0015 0010 0020     ....(.G.9..... .
   199a0:	0038 0039 001e 0024 001d 0028 0022 001d     8.9...$...(."...
   199b0:	0013 0001 0002 001d 0030 0049 003b 0020     ........0.I.;. .
   199c0:	0017 0020 002c 002f 0028 0023 001c 0018     .. .,./.(.#.....
   199d0:	0004 0002 000e 0019 0014 ffff fff4 ffe7     ................
   199e0:	fffa fff8 ffe8 ffe3 ffeb fffb 000b 0007     ................
   199f0:	0000 0008 ffeb ffda fff1 fff9 001a 0020     .............. .
   19a00:	0028 0010 fff0 ffec ffec fff1 fff3 ffdb     (...............
   19a10:	ffc4 ffbe ffca ffd6 ffd6 ffd6 ffc7 ffcf     ................
   19a20:	ffdb ffe4 ffce ffc5 ffd2 ffd6 ffce ffca     ................
   19a30:	ffc9 ffc6 ffcd ffd0 ffdf ffe8 ffe6 ffde     ................
   19a40:	ffce ffd3 ffe5 fff1 fff4 ffed ffe7 fff1     ................
   19a50:	fff5 fffb 0000 ffef ffeb fff2 0004 fffa     ................
   19a60:	fffa 0012 001f 0013 fff2 ffee ffff 0010     ................
   19a70:	0016 000c 0004 000a 0006 0008 fff9 ffe5     ................
   19a80:	ffea 0000 000f 0004 fff6 ffe4 ffe9 ffe1     ................
   19a90:	ffef 0000 fffe fff3 ffe0 ffdc fff1 0000     ................
   19aa0:	fffc fffa ffdb ffeb ffec fff9 0008 fff0     ................
   19ab0:	ffd9 ffda fff9 0006 0007 fff7 fff7 fff2     ................
   19ac0:	fff0 fff1 fff6 fffd 0005 fffe 000d 000c     ................
   19ad0:	fffb ffe4 ffe7 fffb 000e 000a fff9 0018     ................
   19ae0:	0015 fffc fff9 000f 0011 fff9 ffef fffe     ................
   19af0:	0012 0013 000c 000f 0014 000a 0009 0012     ................
   19b00:	0012 0014 000d fffb fff7 ffe7 ffd8 ffd4     ................
   19b10:	ffdb ffd9 ffd7 ffe9 ffff 0006 ffe9 ffde     ................
   19b20:	ffd4 ffd3 ffde ffdb ffda ffd8 ffd9 ffd6     ................
   19b30:	ffeb fffe fffc ffe7 ffde ffdd ffd4 ffce     ................
   19b40:	ffe5 fffd fff2 fff3 ffec ffe4 fffa ffee     ................
   19b50:	ffe4 fff1 ffee fffb fff5 ffeb ffe0 ffe6     ................
   19b60:	fff6 ffff fffa 0006 0018 0012 0011 0013     ................
   19b70:	001c 000e 0008 0017 0018 0015 0019 001d     ................
   19b80:	000a 0016 000f fff9 fffd 0015 0027 003a     ............'.:.
   19b90:	0037 0020 001b 001a 0025 0040 0024 0017     7. .....%.@.$...
   19ba0:	0010 0001 0010 0023 002c 0026 0015 0011     ......#.,.&.....
   19bb0:	0023 001b 0024 0038 0038 002d 002d 0035     #...$.8.8.-.-.5.
   19bc0:	002b 0018 0018 0028 0036 003d 0037 002a     +.....(.6.=.7.*.
   19bd0:	0024 0025 0023 0019 000d 0009 fff9 0006     $.%.#...........
   19be0:	0015 0021 001e 000d 0007 000a 0011 0000     ..!.............
   19bf0:	0008 0013 000e fff5 fffb 001c 0018 000d     ................
   19c00:	fff3 ffe8 0001 000b 0005 0003 0001 0014     ................
   19c10:	0017 000d 0013 000f 0011 0000 fffc ffe9     ................
   19c20:	ffdc ffde ffda ffea ffed ffe9 ffe7 fff4     ................
   19c30:	0007 0007 fff8 fff0 ffea fff2 0006 0012     ................
   19c40:	0019 0009 fff3 ffe9 ffe8 ffea fffb fffd     ................
   19c50:	fff9 fff3 fffe fff3 fff2 0003 0016 001e     ................
   19c60:	000b 0019 001a 0018 001b 0016 0012 0008     ................
   19c70:	000c 0021 001d 0016 001c 001c 001f 0018     ..!.............
   19c80:	0014 0015 0018 002b 002d 0019 0010 0012     ......+.-.......
   19c90:	0024 0021 001e 0027 0023 0024 001c 0019     $.!...'.#.$.....
   19ca0:	002b 0021 0028 0031 0033 0029 0012 000d     +.!.(.1.3.).....
   19cb0:	000c 0024 0019 0006 0011 002a 0022 0018     ..$.......*."...
   19cc0:	0012 0015 001d 0016 0014 0015 0008 ffed     ................
   19cd0:	fff7 0009 0018 000b ffef ffde ffe2 ffef     ................
   19ce0:	ffe1 ffdb ffe5 ffe2 ffe1 ffd5 ffc5 ffcc     ................
   19cf0:	ffc2 ffb2 ffb3 ffb7 ffa5 ffa4 ffb1 ffb1     ................
   19d00:	ffa7 ff9d ffa0 ff95 ff8e ffa1 ffb2 ffaa     ................
   19d10:	ff9f ff9f ffae ffba ffbb ffb1 ffb2 ffbc     ................
   19d20:	ffc6 ffb5 ffb0 ffc0 ffc4 ffbd ffd6 ffe8     ................
   19d30:	ffe2 ffde ffcf fff7 0010 000c 0002 fff6     ................
   19d40:	ffea ffe6 fff7 0005 0001 fff5 fff5 ffe7     ................
   19d50:	ffe4 ffea 000f 000e fffd fffc 0003 0003     ................
   19d60:	000c 0007 000f 0014 fffd 0007 0000 ffe7     ................
   19d70:	fff5 000b 000d 0002 000a 0017 000c 0001     ................
   19d80:	0007 000b 0008 fff9 0011 0016 0014 001a     ................
   19d90:	000b 0009 0016 0015 0025 002a 000e 0001     ........%.*.....
   19da0:	0002 0013 001d 000e ffed fff0 fffb 0010     ................
   19db0:	0017 001b 0012 0008 0008 0009 001c 002a     ..............*.
   19dc0:	0036 0020 0011 0016 0014 0018 001c 0011     6. .............
   19dd0:	0012 0007 000b 0018 0016 0025 0027 0012     ..........%.'...
   19de0:	0005 fff3 fff3 0000 fffb fff4 ffeb fff9     ................
   19df0:	fff0 ffd7 ffe0 ffec ffec ffe4 ffe8 ffde     ................
   19e00:	ffd5 ffd4 ffdc ffe1 ffe2 ffd9 ffdc ffe7     ................
   19e10:	ffeb ffff 0004 0001 0001 0010 000b 0009     ................
   19e20:	0006 fffe 0004 0015 001e 000e 001a 001b     ................
   19e30:	0002 000f 001d 0015 0007 fff4 0002 000b     ................
   19e40:	0012 000f 0013 0019 0015 0010 fffc ffff     ................
   19e50:	0004 fffd fffe fffe fff3 fffa 0011 0017     ................
   19e60:	0019 0021 0017 0008 0015 0013 0024 0029     ..!.........$.).
   19e70:	0025 002a 0026 001d 001b 0024 0023 0019     %.*.&.....$.#...
   19e80:	0020 0036 0032 001f 001a 0010 0029 003b      .6.2.......).;.
   19e90:	003e 0030 0022 0036 003e 0032 002f 003c     >.0.".6.>.2./.<.
   19ea0:	0035 0032 0027 001a 001b 0018 0012 0005     5.2.'...........
   19eb0:	000a 0006 0004 0001 0013 001a 000b 0005     ................
   19ec0:	0004 000e 001c 0010 0002 000e 0016 0026     ..............&.
   19ed0:	001e 000a 0014 0014 000c 000f 0019 0013     ................
   19ee0:	0009 0006 fffc fff2 ffe1 ffef ffe3 ffdc     ................
   19ef0:	fff6 fff5 0006 fff8 ffef fff7 ffda ffd4     ................
   19f00:	ffe7 ffff 0013 000b 000c 0007 000e 000a     ................
   19f10:	0010 0010 fff8 ffec ffdd ffdc ffdf ffd4     ................
   19f20:	ffd0 ffd9 ffda ffdd ffe0 ffd1 ffd8 ffd4     ................
   19f30:	ffd3 ffdf ffeb ffe7 fff0 fff0 fffa fffa     ................
   19f40:	fffd 000b 0011 0022 0014 001a 0026 001d     ......".....&...
   19f50:	000d 0004 0012 0019 001d 0014 fff8 ffea     ................
   19f60:	ffdc ffee fffd 0003 0006 fffd fffa fffc     ................
   19f70:	0009 fffd fff7 ffff fff1 ffef fff5 fff2     ................
   19f80:	ffe2 ffe2 ffd7 ffe4 ffec ffe1 ffd6 ffd8     ................
   19f90:	ffe7 ffde ffe2 ffdf ffcd ffc8 ffdf ffde     ................
   19fa0:	ffe7 ffe3 ffd3 ffda ffce ffe3 ffff ffed     ................
   19fb0:	ffd9 ffe3 fff3 fff2 0009 0006 fff9 fff1     ................
   19fc0:	ffee ffe8 ffd8 ffc5 ffbc ffcd ffec fff4     ................
   19fd0:	ffe6 ffda ffe8 fff7 fffe fffb ffe5 ffec     ................
   19fe0:	0003 0001 fff6 ffea ffe6 ffe7 ffec ffee     ................
   19ff0:	ffeb fff4 0000 0012 000d fffc fff1 ffdc     ................
   1a000:	ffe8 0005 0010 0003 fffd fff1 fffd 000c     ................
   1a010:	0015 000a fff6 0002 0009 0007 000e 0012     ................
   1a020:	0011 000d 000e 0007 0005 fff5 fff7 fff2     ................
   1a030:	fff7 fffa 0004 fff8 fff4 fff1 ffef ffe2     ................
   1a040:	ffe3 fff0 ffe6 fff3 ffff 0002 fff8 fff6     ................
   1a050:	0001 fffb 0001 fff0 fff0 fff6 fffa ffef     ................
   1a060:	0002 0024 0025 001c 0001 fff8 fff9 000e     ..$.%...........
   1a070:	0010 0004 0004 0009 0006 ffef fffe 000f     ................
   1a080:	0015 0006 0007 0005 ffff fffa 0006 001a     ................
   1a090:	001e 0021 0023 0016 001e 0016 0029 0031     ..!.#.......).1.
   1a0a0:	0023 000d 0005 0009 0022 0029 002d 0022     #.......".).-.".
   1a0b0:	0018 000f 0005 0019 001c 0032 0036 0027     ..........2.6.'.
   1a0c0:	0014 0002 0012 0028 0030 002b 0027 002b     ......(.0.+.'.+.
   1a0d0:	003c 0032 003d 004d 003d 002b 001d 0017     <.2.=.M.=.+.....
   1a0e0:	000d 0007 0008 000b 0006 fffd 0005 000a     ................
   1a0f0:	0016 0010 fffe fffe 0000 0012 0009 0011     ................
   1a100:	001e 0017 0011 0007 fff8 0008 fffc 0000     ................
   1a110:	001a 0015 0000 fff1 fffe ffed ffdd fff0     ................
   1a120:	fff3 0006 ffff fff5 ffe6 ffd4 ffe2 ffee     ................
   1a130:	ffee ffe7 ffee ffec ffe8 ffce ffe3 fff3     ................
   1a140:	fff7 000e 0000 fff0 ffe2 ffde 0004 0015     ................
   1a150:	0027 0018 fffd 0002 000f 0003 fffe 000e     '...............
   1a160:	0015 0015 0016 000d ffff fffc 000c 0025     ..............%.
   1a170:	0021 001c 001c 000c 0014 0019 001f 0019     !...............
   1a180:	0014 000d 0006 0011 0012 fffe ffef 0005     ................
   1a190:	0001 ffe7 ffda ffd7 ffe2 ffeb fff6 fff7     ................
   1a1a0:	fff6 fff8 001d 0026 001f 001e 0020 0025     ......&..... .%.
   1a1b0:	001f 0023 001c 001e 001d 0013 000b 0004     ..#.............
   1a1c0:	000f 001f 001e 0001 fffb fff5 fff4 0001     ................
   1a1d0:	000c 0010 000a ffff 0003 0006 0005 fffa     ................
   1a1e0:	fff7 fffc 0011 001a 000f 0002 0012 000d     ................
   1a1f0:	0009 000a 0007 0007 fff9 fff6 ffe7 ffef     ................
   1a200:	ffda ffd8 ffe6 ffef ffde ffd0 ffdf ffda     ................
   1a210:	ffdc ffe2 ffdc ffdc ffe6 fff5 fff3 fff7     ................
   1a220:	ffea ffd2 ffcd ffe1 fff8 ffe8 ffd5 ffc4     ................
   1a230:	ffc2 ffca ffde ffd9 ffbe ffcc ffc6 ffb9     ................
   1a240:	ffbe ffb9 ffc5 ffba ffbe ffca ffd2 ffe6     ................
   1a250:	ffdd ffce ffc5 ffc9 ffd0 ffe9 ffdd ffd0     ................
   1a260:	ffde ffd0 ffd5 ffd4 ffdb ffe8 ffec fffc     ................
   1a270:	ffee ffe5 ffe6 ffe3 fffc 0008 0000 000d     ................
   1a280:	0015 000f 000d 0004 000c 000f 000a 0013     ................
   1a290:	000a 0000 fff6 fff6 0005 000e 001a 0016     ................
   1a2a0:	0007 0008 fffa 0003 0007 0000 0003 0006     ................
   1a2b0:	000c 000c 000a ffff 0009 0014 001c 0019     ................
   1a2c0:	0012 0020 0017 0026 0039 0030 0024 000f     .. ...&.9.0.$...
   1a2d0:	0011 001c 0021 0007 fff3 ffe7 ffeb fff6     ....!...........
   1a2e0:	000a 0013 000f ffed ffe7 ffff fffd 000d     ................
   1a2f0:	0015 0006 fff8 0014 0007 fff5 fffb 0004     ................
   1a300:	0004 0002 fffc fff3 fffa fffa ffe5 fff2     ................
   1a310:	0006 0002 fff2 ffe6 ffe7 ffeb fff8 0009     ................
   1a320:	0004 ffff 0010 0007 fff9 ffec fffd 0013     ................
   1a330:	0011 0013 000c fff9 fff1 fff8 fff6 0004     ................
   1a340:	0012 000d 000b 000d 000c 001e 002b 0026     ............+.&.
   1a350:	001e 0020 0028 001f 001e 0025 001d 001f     .. .(.....%.....
   1a360:	0012 000a 0012 0023 0025 002c 0035 002a     ......#.%.,.5.*.
   1a370:	0030 0030 0032 0036 0027 002c 0033 001d     0.0.2.6.'.,.3...
   1a380:	001e 002b 0020 002b 0027 0020 0030 0021     ..+. .+.'. .0.!.
   1a390:	001b 001e 0024 001d 002e 0025 001a 0024     ....$.....%...$.
   1a3a0:	001f 001e 001d 0016 0017 000e 0005 0014     ................
   1a3b0:	0010 000d 0006 000a 0018 0014 000b 0008     ................
   1a3c0:	0018 000e 000d fffb fff8 0003 ffe2 ffe9     ................
   1a3d0:	fffa 000f 001c 0024 0013 000a 0022 001c     ......$....."...
   1a3e0:	0022 0019 001e 0016 0017 fffd ffea ffe5     "...............
   1a3f0:	ffef 0006 0000 ffe3 ffe1 fff4 ffee ffe9     ................
   1a400:	fff6 fffa fffe 000e 000e fffb ffe6 ffeb     ................
   1a410:	ffeb ffeb fff2 fff3 ffe3 ffd3 ffe5 ffe2     ................
   1a420:	ffea fff4 ffeb ffec ffe7 ffef fffa ffee     ................
   1a430:	ffe9 fff0 fff5 fff4 fff1 fffa fffc fffc     ................
   1a440:	fff4 0001 0009 fff7 fff8 0000 fffa fff5     ................
   1a450:	0005 0006 fffa ffdc ffc8 ffe2 0000 0003     ................
   1a460:	0015 000e 0007 fff9 fff9 0026 0023 000e     ..........&.#...
   1a470:	fff3 fffa fffc fff5 0001 0009 fff5 ffde     ................
   1a480:	ffe7 ffeb fff3 ffe8 ffd0 ffcd ffd9 ffda     ................
   1a490:	ffe8 fffe fff7 fff5 fff3 fff4 ffec ffe3     ................
   1a4a0:	ffdb ffcc ffe2 fff7 fff3 ffed ffd9 ffcd     ................
   1a4b0:	ffe4 fff7 ffec ffdf fff0 0006 ffed ffc2     ................
   1a4c0:	ffbc ffce ffd0 ffda ffcb ffbd ffbc ffb9     ................
   1a4d0:	ffc5 ffbb ffb9 ffc3 ffdc fffb fff5 ffdf     ................
   1a4e0:	ffdc ffe0 ffe5 fffa 0001 fff4 fff1 ffe5     ................
   1a4f0:	ffdd fff2 ffdc ffd2 ffdf ffe3 fff3 000a     ................
   1a500:	fffa ffd6 ffd3 ffd8 ffde ffea ffea ffe3     ................
   1a510:	ffd5 ffdc fff7 000c ffff fff0 fffd 0005     ................
   1a520:	0020 0014 0005 0008 0007 0006 0024 0031      ...........$.1.
   1a530:	002d 0018 0011 0015 0006 0010 0022 001a     -..........."...
   1a540:	0026 0020 000b ffec ffe3 0006 0027 001f     &. .........'...
   1a550:	fffd 0002 fff2 ffef 000a 000d 001b 0027     ..............'.
   1a560:	0031 001f 001e 002a 002e 002e 001d 0009     1.....*.........
   1a570:	0008 fff4 fff5 fffc ffe8 fff6 0005 fffc     ................
   1a580:	fffa 0009 0028 0020 000c 000c 0010 0012     ....(. .........
   1a590:	0020 0029 0029 0020 0026 0036 002d 002b      .).). .&.6.-.+.
   1a5a0:	003b 0042 003b 003b 0040 0039 002c 0016     ;.B.;.;.@.9.,...
   1a5b0:	0016 000e ffff 000c fff9 fff5 fff3 fff0     ................
   1a5c0:	ffe8 fff3 0002 0010 0009 0001 0012 001d     ................
   1a5d0:	0025 002b 0023 0022 0013 000c 001b 002b     %.+.#.".......+.
   1a5e0:	0015 0002 0004 0001 fffc 0004 000c 0013     ................
   1a5f0:	0004 ffed ffe9 fff1 ffff 0006 0002 fff9     ................
   1a600:	fff1 ffef fffd 0006 0009 fffb 0000 0009     ................
   1a610:	0013 0014 0007 fffc fff2 ffef ffed ffef     ................
   1a620:	ffe7 fff5 fffd 0002 000f 000d 000c fffd     ................
   1a630:	000b 001c 0015 0008 0005 0007 0016 0015     ................
   1a640:	000a 0009 000e 0013 0008 000c fffe fff2     ................
   1a650:	ffe3 ffe7 0006 001d 000e 0006 0010 ffed     ................
   1a660:	fffc 0012 000b 001a 0018 000e 0012 0003     ................
   1a670:	fffc 0003 0012 0023 001b 0017 000b 0013     ......#.........
   1a680:	0012 0027 0030 002d 0015 000f 0006 fff6     ..'.0.-.........
   1a690:	000f 001a 001f 000c 0003 fff8 0007 0001     ................
   1a6a0:	ffff 0007 0018 001d 0003 0000 fffd ffff     ................
   1a6b0:	000b 0005 fff3 fff3 fff1 fffb fff5 ffe5     ................
   1a6c0:	ffed ffef ffe2 ffee ffef ffdd ffe1 ffe1     ................
   1a6d0:	ffdb ffde ffe5 ffeb ffef ffe8 fff9 fff3     ................
   1a6e0:	ffe2 ffe2 0000 fffb fffa 000b 0000 fff2     ................
   1a6f0:	ffd2 ffd6 ffde fffa 000b fffb ffe6 ffe2     ................
   1a700:	ffdd ffd2 ffc6 ffca ffc6 ffe7 000c 0009     ................
   1a710:	ffec ffe2 ffd1 ffcc ffcd ffd8 ffe0 ffd6     ................
   1a720:	ffcd ffbd ffc4 ffd2 ffdf ffe6 ffee ffe2     ................
   1a730:	ffc1 ffca ffdf ffe0 ffe0 ffe4 ffd7 ffd5     ................
   1a740:	ffdd ffd9 fff7 0000 fff5 ffe6 fffa 0005     ................
   1a750:	fff9 000e 000d fffc fff1 fff6 0003 0008     ................
   1a760:	000e 000a 0009 fffc ffee fffc fff9 000a     ................
   1a770:	001b 0023 0010 fff2 fffc fffe fff8 0000     ..#.............
   1a780:	000c 0007 0003 0005 0002 fff8 fff8 fffb     ................
   1a790:	ffff fffa 000a 0014 0016 000f 0011 001e     ................
   1a7a0:	001d 0012 0009 000b fff9 fffc 000e fffb     ................
   1a7b0:	fff8 0008 0005 fffb 0006 fffa fffa fff1     ................
   1a7c0:	ffef 0001 ffff 0003 fffe fffb 0005 000c     ................
   1a7d0:	001b 0007 fff7 0004 0008 0014 0010 0014     ................
   1a7e0:	0017 0000 ffff 0005 000a 0017 0019 000e     ................
   1a7f0:	0006 fffc fffe fff1 ffe9 fff2 fff8 fffa     ................
   1a800:	ffef ffef fff2 fffc 000a 0000 fff4 ffe7     ................
   1a810:	ffda fff5 000b fff5 fffb fffa 0001 fff3     ................
   1a820:	ffff 0013 0016 0011 001c 0021 0019 0018     ..........!.....
   1a830:	0007 001e 000a 0013 0020 0018 0014 0012     ........ .......
   1a840:	000e 000c 000b 0020 0019 0006 001d 002a     ...... .......*.
   1a850:	0025 001b 0020 0021 0014 0021 0021 001e     %... .!...!.!...
   1a860:	0016 0014 001d 002f 0033 0035 002d 0022     ....../.3.5.-.".
   1a870:	002e 003a 001f 0011 0011 001e 0035 0035     ..:.........5.5.
   1a880:	000c ffef 0001 0004 0013 0014 0011 0000     ................
   1a890:	0010 0004 fff6 000e 0019 0015 ffff fff7     ................
   1a8a0:	fff7 fff6 fffa fff5 fffc fffa fffb 0001     ................
   1a8b0:	ffff fff7 ffef fffc fff6 ffff 000b fff4     ................
   1a8c0:	fff7 0008 fff6 ffe9 ffe8 fff6 0005 0007     ................
   1a8d0:	fff2 ffea ffe0 ffd6 ffde ffef fffc fff6     ................
   1a8e0:	ffeb ffea ffe1 ffff 001e 0003 fff4 0004     ................
   1a8f0:	0012 0007 fff9 0001 000d 001b 0015 000d     ................
   1a900:	fff7 fff0 fff8 ffff 000d 001f 000f 000b     ................
   1a910:	0009 ffe1 ffdf fff2 fffa fffb fffd 0008     ................
   1a920:	0012 000c 0002 fff1 fff7 000a 0016 0014     ................
   1a930:	fff9 ffff 000e fff0 ffef 0002 0007 0007     ................
   1a940:	fff5 fffb 0001 0002 fff1 0002 000e 000b     ................
   1a950:	0007 0013 001a 0000 fff7 fff2 fff1 ffea     ................
   1a960:	ffeb fff8 fffb fff9 fffb fff1 fff0 fffc     ................
   1a970:	fffd fff3 ffee fff9 ffe3 ffd3 ffdc fff4     ................
   1a980:	fffd 0002 000f fff6 fff5 000f 0020 001e     ............ ...
   1a990:	0014 001e 001d 0020 0011 0005 0008 0009     ...... .........
   1a9a0:	0005 fff9 ffdc ffe0 fff5 fffd 0005 0001     ................
   1a9b0:	fff8 fff6 fff7 0004 000c 0005 fff6 ffe8     ................
   1a9c0:	ffdd ffe5 ffe4 0001 0000 0009 000c fffa     ................
   1a9d0:	fffa 0000 fffe ffef ffdf ffe1 ffe2 ffd8     ................
   1a9e0:	ffd9 ffd3 ffe4 ffe1 ffd9 ffdf ffdd ffd9     ................
   1a9f0:	ffd3 ffe1 ffe3 ffdc ffdd ffe2 ffec ffee     ................
   1aa00:	ffee fff1 fff5 fff1 fff0 ffdc ffd4 ffd4     ................
   1aa10:	ffcb ffd8 ffe1 ffda ffce ffd8 ffd9 ffce     ................
   1aa20:	ffd8 ffd9 ffea 0006 ffee ffdf ffe0 ffe2     ................
   1aa30:	fff8 ffff fff1 fff0 0007 fffe 0002 0017     ................
   1aa40:	0016 0009 ffff fffa 0000 000e fffd fff3     ................
   1aa50:	ffff 0003 000f fff9 ffff fff8 ffee fffc     ................
   1aa60:	fffa 0005 0012 0016 ffff ffe5 ffe6 fff2     ................
   1aa70:	0002 000d 0012 ffff fff3 fff2 0003 001b     ................
   1aa80:	001a 0012 0019 0016 000b 001d 001f 0021     ..............!.
   1aa90:	0025 0020 001e 0026 0035 0024 000f 0003     %. ...&.5.$.....
   1aaa0:	0001 001b 0025 0039 003f 0024 0009 000d     ....%.9.?.$.....
   1aab0:	0012 000d 0028 0022 000f 000d 000b 0014     ....(.".........
   1aac0:	0014 001d 001d 0016 001c 0029 002e 0023     ..........)...#.
   1aad0:	001e 001a 0025 0030 0037 0042 003d 003e     ....%.0.7.B.=.>.
   1aae0:	0025 0018 0008 000e 0013 0013 0010 0004     %...............
   1aaf0:	0008 fffd fff0 ffec fff7 fffb ffe8 ffe5     ................
   1ab00:	ffe5 ffe2 ffe6 fff8 000d 0004 fffd 000c     ................
   1ab10:	002f 0032 001e 0028 0018 0000 0002 001f     /.2...(.........
   1ab20:	0015 fff8 ffe1 fff5 0007 fff4 ffe9 fff0     ................
   1ab30:	ffe5 ffec ffee ffde ffe9 fff7 ffff 0003     ................
   1ab40:	fff8 ffef fffe fffc fff8 ffff fffa ffff     ................
   1ab50:	ffee ffec fff2 0008 0018 0013 0003 0006     ................
   1ab60:	0004 0000 0004 fffb 0005 0002 fff7 fff2     ................
   1ab70:	fff0 0003 0009 001c 0012 fff5 fffc 0007     ................
   1ab80:	0017 0016 0010 0004 fff9 0006 0009 000b     ................
   1ab90:	0003 0000 0018 0001 fffd 000a 001c 001a     ................
   1aba0:	0010 0015 0018 001e 001c 0015 0005 fffe     ................
   1abb0:	0011 0022 0017 000f 0003 000e 0006 000a     ..".............
   1abc0:	0013 0018 0026 001b 000a 0007 0009 0018     ....&...........
   1abd0:	001c 0003 0003 000d 0001 fff8 fffa 000d     ................
   1abe0:	0024 001a 0011 0003 000d 000e 0011 0010     $...............
   1abf0:	ffff ffff fff5 ffe4 ffd9 ffe1 ffe6 ffe3     ................
   1ac00:	ffe5 ffe7 ffec ffd9 ffe0 ffeb ffe2 ffd9     ................
   1ac10:	ffd0 ffe1 ffe6 fff8 fff3 ffd5 ffc9 ffd2     ................
   1ac20:	ffe5 fff6 fff7 fffb fff5 ffdf ffe5 ffec     ................
   1ac30:	ffeb ffe2 ffd8 ffd3 ffbb ffbf ffc3 ffc5     ................
   1ac40:	ffc6 ffb2 ffa2 ffa7 ffcf ffd4 ffd2 ffcd     ................
   1ac50:	ffd1 ffe9 fff1 ffe4 ffde ffe7 ffdd fffa     ................
   1ac60:	ffee ffe2 ffea ffed ffff fffa ffec ffe4     ................
   1ac70:	fffe 000b 0008 000b 0013 0017 0009 0009     ................
   1ac80:	0011 0012 001b 0015 0002 fff2 0000 000e     ................
   1ac90:	0013 000c 0003 0000 0006 0004 0018 0029     ..............).
   1aca0:	000f 000c 001b 000d fffc fffb 000e 000e     ................
   1acb0:	0001 0003 ffef fff7 0000 fff6 ffeb ffec     ................
   1acc0:	fffd 0009 0014 0007 fff7 ffea ffe7 ffe8     ................
   1acd0:	ffeb ffe9 fff5 fff0 ffe7 ffe3 fff3 fff8     ................
   1ace0:	fff4 ffec fff4 0000 ffff fff6 fff6 0009     ................
   1acf0:	000e 0001 ffeb ffe8 ffea fffc fffa fff8     ................
   1ad00:	fff5 0002 0008 0004 fff6 0004 fffb fff4     ................
   1ad10:	fffd ffea ffe6 ffe1 fff8 0006 fff5 ffee     ................
   1ad20:	fff2 fffb 0004 0004 0017 0011 000d 0019     ................
   1ad30:	001d ffff ffee fff9 0006 0009 000c 0016     ................
   1ad40:	000c 000b 0015 0010 0011 001e 0034 0027     ............4.'.
   1ad50:	0027 0020 001d 0010 000e 0019 002e 0030     '. ...........0.
   1ad60:	0025 0028 0027 0028 0028 0037 002d 002f     %.(.'.(.(.7.-./.
   1ad70:	0033 0024 000e 000e 000c 000c 001b 0013     3.$.............
   1ad80:	0016 0010 0001 ffff 0015 000f 0004 fffc     ................
   1ad90:	0007 0012 ffff fffe 0005 0004 fff2 fff8     ................
   1ada0:	000b 0007 fff0 ffee fff7 0005 0002 0008     ................
   1adb0:	000c 000b 0000 000e 0029 0034 0020 001e     ........).4. ...
   1adc0:	0024 0029 002e 001f 001d 0013 000b 001a     $.).............
   1add0:	001c 001c 001f 001c 0012 0000 fff3 fffa     ................
   1ade0:	0012 0018 000e 0012 001a 0013 0004 0004     ................
   1adf0:	0026 0028 0020 0016 0013 000c 0005 0018     &.(. ...........
   1ae00:	0022 0012 0015 000e 0003 fff9 fffb fffc     "...............
   1ae10:	ffef fff4 fff8 0004 0004 0009 ffed ffda     ................
   1ae20:	fff0 ffe2 ffe2 fff9 0004 0001 0001 0016     ................
   1ae30:	0019 0015 fff9 fffc 0011 0016 0031 002b     ............1.+.
   1ae40:	0017 000a 000e 0014 000d 000d 0010 ffff     ................
   1ae50:	fff5 ffe9 fff7 fff2 ffed fff2 fff9 ffff     ................
   1ae60:	fffd 000a 0019 0025 0029 0037 0039 001d     ......%.).7.9...
   1ae70:	0013 0022 0026 0027 000c 0003 0006 000a     ..".&.'.........
   1ae80:	0019 001f 000d fff4 ffea ffe4 ffe1 fff3     ................
   1ae90:	fff9 ffea ffee fff2 ffe5 ffe0 ffcb ffd3     ................
   1aea0:	ffe6 fff9 ffea ffda ffdc fff4 fffd ffee     ................
   1aeb0:	ffe2 ffcb ffd4 ffe3 ffe8 ffe5 ffc8 ffaf     ................
   1aec0:	ffb3 ffc6 ffbd ffc9 ffdf ffcf ffc4 ffc0     ................
   1aed0:	ffc8 ffcd ffc9 ffcb ffdd ffca ffc8 ffd8     ................
   1aee0:	ffd3 ffde ffe9 ffe8 ffdf ffd5 ffd9 ffdf     ................
   1aef0:	ffd5 ffc8 ffce ffd4 ffc1 ffc2 ffd6 ffd7     ................
   1af00:	ffc6 ffd8 ffe2 ffdb ffec 000b 0000 ffe1     ................
   1af10:	ffe0 ffeb ffec fff6 fff9 ffe6 ffe6 ffdc     ................
   1af20:	ffe0 ffe2 ffe9 ffee fff5 ffdd ffc5 ffcf     ................
   1af30:	ffca ffd8 ffe8 ffef ffec ffe9 ffe6 ffe3     ................
   1af40:	fff8 0002 0014 0012 fffc 000b fffd 000b     ................
   1af50:	0020 002b 0025 001b 002b 0028 0032 0030      .+.%...+.(.2.0.
   1af60:	002f 002b 002a 0031 0027 0017 0010 0017     /.+.*.1.'.......
   1af70:	0026 0020 001a 001b 0024 0024 0028 0025     &. .....$.$.(.%.
   1af80:	001c 001e 0022 002a 0027 001e 0027 001f     ....".*.'...'...
   1af90:	002a 001f 0005 0001 0003 0015 0029 003d     *...........).=.
   1afa0:	0046 0032 0012 000a 0007 0017 0026 0020     F.2.........&. .
   1afb0:	001d 0011 fff3 ffec ffff 000c 0010 000b     ................
   1afc0:	fff9 0007 0006 fff5 0009 0015 0011 000d     ................
   1afd0:	0013 000a 001c 0026 0020 0011 000b 000d     ......&. .......
   1afe0:	0018 002d 0021 0008 0008 0006 0012 0014     ..-.!...........
   1aff0:	001a 0020 001b 000a 000b fffc ffef ffef     .. .............
   1b000:	fffa 0013 0028 0028 0013 0006 0006 000c     ....(.(.........
   1b010:	0012 fffe fffc fff4 fff4 fff5 fff0 fff4     ................
   1b020:	0001 fff6 fff1 fffc fff3 0006 fffa fff2     ................
   1b030:	0006 0002 fffb ffec ffeb fff3 000d 001a     ................
   1b040:	0015 0003 fff4 fffa 000c 0008 ffff fff9     ................
   1b050:	fff8 0006 001b 001d 0015 0003 fffe 000a     ................
   1b060:	001e 0014 fff8 fffa 0006 fffd 0000 0009     ................
   1b070:	001e 0023 0032 0029 0031 001c 000a 001f     ..#.2.).1.......
   1b080:	0039 0041 002b 0012 001e 0020 0014 001a     9.A.+..... .....
   1b090:	000c 0006 0005 000b 0018 0008 ffeb ffe9     ................
   1b0a0:	fffb 0020 0019 0015 0012 0018 001b 000b     .. .............
   1b0b0:	0009 0007 001a 001f ffff fffa ffec fff3     ................
   1b0c0:	ffe8 fff3 fff0 ffe5 fff3 ffe2 ffe9 ffe0     ................
   1b0d0:	ffd6 ffc9 ffd5 ffdb ffd8 ffdd ffe4 ffff     ................
   1b0e0:	fffe ffec fff7 ffdb ffce ffd1 ffdd ffe0     ................
   1b0f0:	ffdf ffc2 ffce ffde ffd2 ffc8 ffd1 ffd6     ................
   1b100:	ffdf ffe9 ffe7 ffde ffdf ffdf ffe7 fff6     ................
   1b110:	fffd fff5 fff4 ffff fff1 fff0 0002 0007     ................
   1b120:	fff2 ffe7 fffa 0006 000e 0008 0003 0009     ................
   1b130:	000a fff2 ffeb 0000 000d fffe fffc fffe     ................
   1b140:	fff9 fff9 0000 000c 0007 0005 0003 0004     ................
   1b150:	000c 000b 0000 fff4 0004 0001 fffd 0003     ................
   1b160:	fffd fff8 fff9 0003 000b 0003 fffd 0000     ................
   1b170:	001c 000d fffd 0008 0000 0009 0019 0012     ................
   1b180:	fff8 ffe8 fffb 0015 fffa ffed ffee fff8     ................
   1b190:	fffc 0001 fffb ffea ffea fff7 fff0 ffdd     ................
   1b1a0:	ffe3 ffde ffda ffd5 ffe4 ffe3 ffe0 ffd1     ................
   1b1b0:	ffd3 ffd7 ffe2 fff5 fff3 fff5 fff0 fff1     ................
   1b1c0:	ffdb ffcd ffd5 ffe2 ffdb ffbb ffc0 ffc3     ................
   1b1d0:	ffc1 ffd0 ffd0 ffd9 ffc0 ffc8 ffcf ffe2     ................
   1b1e0:	fff4 ffe9 ffe5 fffb 0009 fffd ffe4 fff3     ................
   1b1f0:	fffd ffff ffed fffa 0010 0017 0017 0024     ..............$.
   1b200:	0037 0030 0020 0015 0025 002e 002f 003e     7.0. ...%.../.>.
   1b210:	0037 0021 000c 0007 0010 002f 0034 002a     7.!......./.4.*.
   1b220:	0021 0025 0034 002d 002f 003f 0045 003f     !.%.4.-./.?.E.?.
   1b230:	002a 001b 0018 0022 0020 0032 0020 0010     *.....". .2. ...
   1b240:	0029 001b fffe 0005 0019 0025 001c 003b     ).........%...;.
   1b250:	0037 0032 000e fff4 0005 000c 0017 0014     7.2.............
   1b260:	0002 0006 000d 0015 0013 0012 001b 002f     ............../.
   1b270:	0027 0021 000d 000e 0017 0026 0037 0040     '.!.......&.7.@.
   1b280:	004b 003d 003b 0039 002b 0038 0045 0043     K.=.;.9.+.8.E.C.
   1b290:	0042 0024 0025 0032 0027 0019 0026 0024     B.$.%.2.'...&.$.
   1b2a0:	0017 fffe fffc 0019 0011 fff5 fff6 fff8     ................
   1b2b0:	000d 001a 0012 0001 ffe1 ffe6 fff8 0000     ................
   1b2c0:	fffe ffea ffd7 ffd7 ffd3 ffc1 ffcf ffe3     ................
   1b2d0:	ffe0 ffdb ffcf ffc6 ffdf ffe0 ffdb fff1     ................
   1b2e0:	ffef ffd4 ffe4 fff8 0001 fff2 ffe8 ffe8     ................
   1b2f0:	ffe7 ffe1 ffed ffe7 ffe7 ffed fff0 fff1     ................
   1b300:	fff9 0004 ffff 0003 fffa fff8 fff3 fff5     ................
   1b310:	fff5 fffe 0013 001e 0027 0015 fffb 000f     ........'.......
   1b320:	002a 002e 002d 0014 0000 0005 0011 0018     *...-...........
   1b330:	0015 0010 000c 0008 0009 0004 0006 0017     ................
   1b340:	0010 fff8 fff0 fffb 000c 001c 0022 0018     ............"...
   1b350:	fffa 000a 0020 0013 0012 0015 0024 0023     .... .......$.#.
   1b360:	000b 000a 000f 000f fff9 000d 0024 0017     ............$...
   1b370:	0006 fff2 ffe0 ffec fffd fff8 ffe9 ffdf     ................
   1b380:	ffe5 ffec 0005 0011 000e fffe 0003 0009     ................
   1b390:	fffc 0004 0004 000d 0004 fff8 ffed ffed     ................
   1b3a0:	fff9 fff8 ffef fffe 0008 fffa ffe0 ffd9     ................
   1b3b0:	ffe3 ffe1 ffe6 fff7 ffe5 ffcc ffd5 ffcf     ................
   1b3c0:	ffe3 fffb fffa ffe3 ffd4 ffe2 ffde ffea     ................
   1b3d0:	ffec ffe4 ffdf ffe5 ffd7 ffd3 ffcc ffb7     ................
   1b3e0:	ffc7 ffcb ffcc ffd2 ffbf ffac ffb2 ffca     ................
   1b3f0:	ffec fff8 fff2 fff3 ffe6 ffe1 0002 0002     ................
   1b400:	ffef ffe0 ffde ffdf ffe2 ffe9 ffea ffe5     ................
   1b410:	ffe4 ffe5 ffe0 ffd4 ffd1 ffce ffe4 fff7     ................
   1b420:	ffe4 ffdc ffea fff4 fff2 ffff 000c 000e     ................
   1b430:	000d fffd fff4 fffb 000c 0006 0009 0004     ................
   1b440:	000c 0007 fff7 fff5 fffc 000c 000d 000e     ................
   1b450:	fff1 ffe1 ffe6 fffc 0009 fffe 0006 0004     ................
   1b460:	000e 0015 0012 000e 0005 000a 0018 0012     ................
   1b470:	0001 0005 fff9 0003 0012 0019 0002 0002     ................
   1b480:	fffc ffe3 fff6 0003 0005 0007 0010 000c     ................
   1b490:	0013 0018 0029 0029 001c 002e 002e 0027     ....).).......'.
   1b4a0:	0012 0022 0025 001e 001e fffd fff4 0002     ..".%...........
   1b4b0:	0004 ffff ffe1 ffdf 0001 ffef 0002 0002     ................
   1b4c0:	ffee fffc 0001 ffe9 ffe4 ffef ffea ffe2     ................
   1b4d0:	ffe3 ffe9 ffe7 fff1 0019 0027 000b fff2     ..........'.....
   1b4e0:	fff4 fff3 fff4 ffe1 ffd9 ffde ffe3 ffe9     ................
   1b4f0:	ffd5 ffcb ffdd ffdd ffe1 ffed ffe7 ffed     ................
   1b500:	fff8 ffdc ffdc fffd 0018 0024 0025 0022     ..........$.%.".
   1b510:	002d 0021 0023 002b 0025 0035 0030 0022     -.!.#.+.%.5.0.".
   1b520:	001b 0017 0018 001e 0018 0028 0025 0018     ..........(.%...
   1b530:	002a 0019 001b 0034 002e 0015 0021 0047     *.....4.....!.G.
   1b540:	004b 002f 003c 0051 0050 004c 0044 003f     K./.<.Q.P.L.D.?.
   1b550:	004c 0044 0023 002b 0027 0027 002f 0026     L.D.#.+.'.'./.&.
   1b560:	002d 0026 0016 001c 002c 003e 0037 0014     -.&.....,.>.7...
   1b570:	0010 0022 002c 0035 0040 0029 000b 000c     ..".,.5.@.).....
   1b580:	0010 000c 000a 0013 fffc fffd fffe fff3     ................
   1b590:	000c 000e ffff ffed fffc ffeb ffde ffd0     ................
   1b5a0:	ffcd ffed ffef fff3 fffa fffb fff5 0001     ................
   1b5b0:	0003 fffc 0006 0012 0016 0006 fff9 0009     ................
   1b5c0:	0009 fffa fffb fff8 fffe fff0 ffee fffe     ................
   1b5d0:	0001 fffa 0008 002c 0011 0006 fff7 ffe0     ......,.........
   1b5e0:	ffea 0001 0011 0001 ffef fff3 fffb 0004     ................
   1b5f0:	fffe ffea fffa ffe5 ffe7 fffe 0003 ffee     ................
   1b600:	ffe2 fff1 ffed ffe2 ffdf 0011 0005 ffeb     ................
   1b610:	ffd7 ffd8 ffe7 ffe2 ffd6 ffdb ffd6 ffd9     ................
   1b620:	ffd9 ffda ffdc ffda ffd2 ffbf ffbf ffcc     ................
   1b630:	ffd9 ffc3 ffcf ffc9 ffc5 ffb4 ffc2 ffdd     ................
   1b640:	ffe4 ffde ffca ffd1 ffd6 ffdb ffe9 fffc     ................
   1b650:	fff7 fffd 000b 0012 000c ffe7 ffe8 fff9     ................
   1b660:	0001 fff7 000b 000e ffef ffe8 0003 000b     ................
   1b670:	fff8 0005 ffee ffe8 ffed ffe4 fffc 000d     ................
   1b680:	0005 0013 000a fff5 0001 0008 0001 fffd     ................
   1b690:	fffb ffeb ffe5 ffe7 fff9 fffa ffef ffeb     ................
   1b6a0:	ffdc ffdb ffec fffc ffe2 ffdb ffe8 0005     ................
   1b6b0:	fffb ffe4 ffe1 ffe8 fff0 ffe5 ffdd ffde     ................
   1b6c0:	fff8 fff0 ffef fff8 fffc fff1 fffa fffc     ................
   1b6d0:	fff9 0005 0024 0019 0009 0012 0010 0006     ....$...........
   1b6e0:	fffe 0010 fffb fff8 fff2 fff5 0005 fff3     ................
   1b6f0:	fff2 fffd fffc fff6 fff3 fff1 fffe 0007     ................
   1b700:	000f fff7 ffeb fffa 0019 0018 0017 0007     ................
   1b710:	0008 001b 001c 0020 0014 000d 0021 0015     ...... .....!...
   1b720:	0007 0010 0011 000f fffc fff9 0018 0027     ..............'.
   1b730:	0010 0015 0018 000c 000d 0008 0012 0012     ................
   1b740:	0010 001d 001a 0021 0013 0025 0009 fffe     ......!...%.....
   1b750:	0017 0017 000b 0014 0010 fff5 0007 0014     ................
   1b760:	0003 0003 0012 0009 0006 0015 0018 0022     ..............".
   1b770:	002b 001f 0029 0040 0032 0025 0023 0030     +...).@.2.%.#.0.
   1b780:	0032 0037 002b 002d 001e 001b 0020 0005     2.7.+.-..... ...
   1b790:	0000 000c 001e 0014 000f 001f 0023 000e     ............#...
   1b7a0:	0023 0034 002f 001a 001c 002a 0033 0024     #.4./.....*.3.$.
   1b7b0:	0018 0010 0029 0046 003e 003a 0020 002a     ....).F.>.:. .*.
   1b7c0:	0030 0030 0020 0025 0030 0032 0030 0029     0.0. .%.0.2.0.).
   1b7d0:	001a 0010 ffff 0003 0010 0007 0016 0003     ................
   1b7e0:	0010 000e 0019 0011 0009 000b 0002 0010     ................
   1b7f0:	0007 0001 0003 fffe fff2 ffd9 ffbf ffe0     ................
   1b800:	ffe4 ffdb ffd2 ffc8 ffcf ffd8 ffe1 ffd5     ................
   1b810:	ffcd ffd2 ffd0 ffdd ffe0 ffe0 0003 fff9     ................
   1b820:	ffdd ffdc ffde ffdd ffcf ffd4 ffe9 ffe8     ................
   1b830:	ffc7 ffa8 ffbb ffcd ffd2 ffc7 ffd1 ffc8     ................
   1b840:	ffcb ffec ffeb ffe0 ffe0 ffe9 000d 0018     ................
   1b850:	0011 001f 002b 0028 0033 0047 0052 0047     ....+.(.3.G.R.G.
   1b860:	003a 0039 0042 003a 001f 0010 002e 001d     :.9.B.:.........
   1b870:	0011 0017 0025 0027 0015 000b 000d 001b     ....%.'.........
   1b880:	001a 001f 001b 0012 001a 001a fffc 0004     ................
   1b890:	0027 0025 0007 fffb 000f 0015 fffd ffdb     '.%.............
   1b8a0:	ffd5 ffe3 ffd4 ffcb ffc4 ffc4 ffd1 ffc3     ................
   1b8b0:	ffbb ffb9 ffb6 ffb3 ffbd ffa5 ffa2 ffc0     ................
   1b8c0:	ffcb ffd8 ffe2 ffc1 ffd9 000c 0015 0008     ................
   1b8d0:	ffcd ffbb ffc0 ffcc ffd1 ffd6 ffe3 ffea     ................
   1b8e0:	ffe0 ffdc ffe0 ffe8 ffe6 0005 fff3 ffc9     ................
   1b8f0:	ffd1 ffdb ffe3 ffe5 ffe5 ffd9 ffdb ffce     ................
   1b900:	ffce ffd8 ffdc ffeb ffec fff0 ffe3 ffe2     ................
   1b910:	ffda ffd5 ffee ffe4 ffd1 ffdf ffe1 ffd8     ................
   1b920:	ffda fff4 fffe 0013 fff7 ffd9 ffea 0003     ................
   1b930:	0012 0007 fffe ffff 0001 0002 000a 0006     ................
   1b940:	0002 fff7 fffb 0006 fffa fff3 000f 0021     ..............!.
   1b950:	001f 0019 0003 0007 0008 000f 000f 000b     ................
   1b960:	fff4 0000 0009 000e 0030 0022 000f 0029     ........0."...).
   1b970:	002d 0018 000d 0010 0018 0041 004c 002d     -.........A.L.-.
   1b980:	0028 0008 fff5 fffc 0013 0028 001f 001a     (.........(.....
   1b990:	000e 0014 0020 0016 0011 0015 0011 0012     .... ...........
   1b9a0:	0008 ffef 0008 0009 000d 001c 000a ffec     ................
   1b9b0:	fff4 0005 0013 0016 0008 0004 fff1 fff3     ................
   1b9c0:	ffe1 ffe6 fff1 fffa 0009 0001 000c 0009     ................
   1b9d0:	000d 0015 0019 0023 0026 000f 0011 0031     ......#.&.....1.
   1b9e0:	003b 0038 0034 002a 0028 0021 0025 0025     ;.8.4.*.(.!.%.%.
   1b9f0:	0010 000d 0023 0032 0037 0028 0018 001b     ....#.2.7.(.....
   1ba00:	0025 0021 0021 0021 001b fffb fff9 0020     %.!.!.!....... .
   1ba10:	002d 0003 fff0 fff5 fff6 0004 ffff ffff     -...............
   1ba20:	fffc 0005 fff0 ffea 000a 0003 0002 000e     ................
   1ba30:	0002 ffe8 ffdb fffe 000a fffe ffe6 ffeb     ................
   1ba40:	ffe2 ffca 0000 002a 001c 0014 0005 fff3     ......*.........
   1ba50:	0004 0005 001b 001f 0013 0015 001f 0032     ..............2.
   1ba60:	003f 002c 0013 001b 0021 002c 0026 000c     ?.,.....!.,.&...
   1ba70:	000a 0008 000c 0007 0003 fff7 0001 0002     ................
   1ba80:	ffec ffe7 ffed 0006 0012 0013 0012 000c     ................
   1ba90:	0017 0026 0025 0032 001d 0015 002c 001c     ..&.%.2.....,...
   1baa0:	000c 0009 0013 0007 000e 000a ffff 000f     ................
   1bab0:	0020 001c fffc ffeb fffb fffa ffff 0011      ...............
   1bac0:	0001 ffe6 ffe1 fff6 000b 0010 0008 0008     ................
   1bad0:	ffeb ffe9 ffe9 ffda ffd1 ffde fff1 ffe7     ................
   1bae0:	ffdc ffd7 ffd0 ffd9 ffe5 ffe2 ffe7 ffe9     ................
   1baf0:	ffda ffe5 fff5 fff0 fff6 fff6 fff2 ffe8     ................
   1bb00:	ffe3 fff5 000d 0010 fff4 ffe2 ffe7 0004     ................
   1bb10:	0008 fffc fff6 ffe6 fff8 0008 0009 fff7     ................
   1bb20:	fffb 0000 fff6 fffe 0001 0014 0026 001d     ............&...
   1bb30:	003c 0046 001c 0023 0037 003b 000f 0016     <.F...#.7.;.....
   1bb40:	003e 002b 0028 0017 ffed ffee fff0 0005     >.+.(...........
   1bb50:	fff7 ffe2 ffe3 ffe8 fff3 fffa fffc ffe9     ................
   1bb60:	ffe1 ffed 0009 0003 ffef ffe3 fff5 fffc     ................
   1bb70:	000c 0002 fff7 ffea ffea 0001 ffeb 000c     ................
   1bb80:	0006 ffdb fff1 ffec ffde ffef fff8 0006     ................
   1bb90:	0016 ffea ffc8 ffd5 ffdf 0006 fffe ffed     ................
   1bba0:	fff4 ffd3 ffe5 ffe7 ffca ffcf fff6 ffd9     ................
   1bbb0:	ffb8 ffdc ffb5 ffb8 ffd4 ffc0 ffbf ffb6     ................
   1bbc0:	ffb7 ffd2 ffd0 ffbf ffc4 ffb1 ffae ffbe     ................
   1bbd0:	ffd6 ffce ffc9 ffc1 ffc0 ffce ffc4 ffcd     ................
   1bbe0:	ffdc ffd2 ffb4 ffd8 ffd3 ffc9 ffec ffe1     ................
   1bbf0:	ffe5 fffa ffdc ffdf ffe4 ffd0 ffeb 0009     ................
   1bc00:	fff7 000f 0018 0021 0021 0008 001c 0028     ......!.!.....(.
   1bc10:	002c 0030 0037 0046 0045 0040 0016 002c     ,.0.7.F.E.@...,.
   1bc20:	0020 0018 0045 002d 0015 000b 0000 0011      ...E.-.........
   1bc30:	001b 000e 000b 000d 0001 001d 002c 002f     ............,./.
   1bc40:	003d 003c 0028 001f 001a 002d 002c 0040     =.<.(.....-.,.@.
   1bc50:	0025 002d 0012 0032 0030 ffe4 0019 003f     %.-...2.0.....?.
   1bc60:	003c 0016 001f 001e 0002 0005 fff3 0005     <...............
   1bc70:	0008 000b 002a 003d 0046 0044 0032 0025     ....*.=.F.D.2.%.
   1bc80:	0023 0049 0055 002e 004d 005c 004e 0046     #.I.U...M.\.N.F.
   1bc90:	0027 0028 001f 0027 001c 0011 0010 000f     '.(...'.........
   1bca0:	001b 0015 0018 0020 0037 0021 0024 003f     ...... .7.!.$.?.
   1bcb0:	003f 002f 0045 003a 001b 0025 002c 002c     ?./.E.:...%.,.,.
   1bcc0:	0030 000d fffc 0008 ffde ffed fff1 ffd6     0...............
   1bcd0:	ffb9 ffc1 ffcf ffbd ffc1 ffb9 ffb2 ffb5     ................
   1bce0:	ff98 ffac ffc7 ffc9 ffc8 ffbf ffd8 fffc     ................
   1bcf0:	fff5 ffed fffa fffe ffe2 fff4 0001 000a     ................
   1bd00:	000e fffa fffc 0024 001a 0013 0023 0019     ......$.....#...
   1bd10:	002c 001e 0019 000a 0005 0021 0043 0023     ,.........!.C.#.
   1bd20:	0011 0016 001d 0013 0010 0011 0024 0028     ............$.(.
   1bd30:	0030 001c 001c 0037 0024 002b 0029 0016     0.....7.$.+.)...
   1bd40:	fffc fffe fffa 000a fffb ffee fffa 000e     ................
   1bd50:	000d fff6 ffca fffc 000c 0002 fff4 ffee     ................
   1bd60:	0010 0002 fffe 000f 0016 0014 000a fffb     ................
   1bd70:	0003 000d 0007 000e 000b ffdb ffd3 ffde     ................
   1bd80:	ffe1 ffe6 ffda ffd0 ffc6 ffc2 ffb6 ffc1     ................
   1bd90:	ffcb ffb1 ffaf ffb8 ffb0 ffc0 ffd5 ffe5     ................
   1bda0:	fff0 fffe fffb fff9 ffd8 ffda fff2 ffe1     ................
   1bdb0:	ffea fff0 fff1 fffa ffeb fff3 fff6 ffe6     ................
   1bdc0:	ffe9 fff6 ffdd ffd5 ffdc ffdf ffe8 ffdd     ................
   1bdd0:	ffd7 ffed fffe 0004 ffec ffea ffe9 ffdc     ................
   1bde0:	ffde ffe3 fff5 fffa fff4 ffe3 fff3 fffb     ................
   1bdf0:	0003 fff7 fff9 ffe8 ffd6 ffe7 ffe4 0001     ................
   1be00:	000d fffa 0004 0013 0014 001a 0010 ffe2     ................
   1be10:	ffe3 ffe4 fff2 0006 0000 fff6 fffa fffc     ................
   1be20:	fff7 fffc 0023 0026 000a 0000 fff9 fffc     ....#.&.........
   1be30:	0012 001a 000d fffa 001b 0031 0030 0027     ..........1.0.'.
   1be40:	0031 002a 0009 0015 0026 0023 000a 0007     1.*.....&.#.....
   1be50:	001c 000c 0003 ffe5 fff5 001f fffd fffb     ................
   1be60:	0004 fff0 fff7 0013 0001 0005 0019 fffd     ................
   1be70:	fffe fff4 ffdf fff9 fff8 ffeb fffa 0008     ................
   1be80:	0000 fff7 fff8 ffe4 ffe5 ffea ffd1 ffbb     ................
   1be90:	ffc9 ffdf ffee ffcf ffc1 ffcd ffcc ffd4     ................
   1bea0:	ffe0 ffe6 ffce ffda ffcc ffea ffed ffe6     ................
   1beb0:	ffcd ffca fff5 000e 0014 0006 fff1 fffe     ................
   1bec0:	fff7 fffc 0019 0008 ffff fffe 0008 0005     ................
   1bed0:	0003 0007 fffe 000b fff5 fff8 0012 000b     ................
   1bee0:	000b 001d 0010 0009 000f 0020 0029 0021     .......... .).!.
   1bef0:	0023 0016 002b 0028 0023 0029 0019 0028     #...+.(.#.)...(.
   1bf00:	0043 0047 0032 0028 0035 002a 0020 0023     C.G.2.(.5.*. .#.
   1bf10:	0034 003c 0024 0015 0039 003c 003e 0051     4.<.$...9.<.>.Q.
   1bf20:	0052 0043 003e 0033 0032 0038 002f 0045     R.C.>.3.2.8./.E.
   1bf30:	003d 0021 002a 002a 0038 004f 0054 002a     =.!.*.*.8.O.T.*.
   1bf40:	001d 000a 0026 0033 002c 0024 002f 0027     ....&.3.,.$./.'.
   1bf50:	0003 000c 001d 0026 001f fff7 ffee ffdd     ......&.........
   1bf60:	ffd5 ffed ffed fffa fffa ffe4 ffd8 ffe6     ................
   1bf70:	ffe2 ffe9 fff2 ffe8 ffd6 ffd8 ffd5 fff2     ................
   1bf80:	ffee ffeb fffd fff0 fff0 fff3 fffd fff1     ................
   1bf90:	fff3 ffe7 ffda ffef ffdc ffe7 ffed ffde     ................
   1bfa0:	ffd9 ffe3 ffe1 fff6 0008 fffe fff7 ffe9     ................
   1bfb0:	fff3 0005 0017 0008 fff9 fff3 ffec 0005     ................
   1bfc0:	fffb fffa fff1 ffe8 000c 001f 000f ffee     ................
   1bfd0:	ffe7 fffb fffd 0006 fff7 fff6 0005 fffe     ................
   1bfe0:	fffd 0004 0003 0006 000b 0003 0001 0001     ................
   1bff0:	0008 fffe fffa ffdd ffeb 001e 0026 0028     ............&.(.
   1c000:	000b 0001 fff3 ffe3 ffd5 fff0 fff7 ffe4     ................
   1c010:	ffdb ffd3 fff9 fff6 fff2 fff7 ffee fff5     ................
   1c020:	0007 0005 ffee 000c 0006 0009 0020 000d     ............ ...
   1c030:	000c fff3 fffa 000b 0024 002c 001e 0015     ........$.,.....
   1c040:	0028 0027 001a 001c fffb fff3 fffd 0007     (.'.............
   1c050:	000a fffb 0002 ffef fffc fff8 fff4 fff4     ................
   1c060:	fffc fffe fff6 ffff ffee 001a 0007 fff0     ................
   1c070:	fffb 000d 0009 fffe fff7 0007 0003 fffb     ................
   1c080:	ffe7 fff5 ffe4 ffce ffe2 ffe7 ffeb ffd2     ................
   1c090:	ffcd ffdd ffdb ffde ffd5 ffd8 ffe5 ffdd     ................
   1c0a0:	ffd4 ffce ffdb ffe7 ffd2 ffd0 ffd7 ffdd     ................
   1c0b0:	ffe7 ffd1 ffc5 ffc2 ffd9 ffcc ffbc ffb0     ................
   1c0c0:	ffc7 ffe8 ffe8 ffdc ffda ffe5 ffdb ffdf     ................
   1c0d0:	ffde fff2 ffe1 ffd5 ffd4 ffe3 fff3 fff7     ................
   1c0e0:	fff1 ffe8 ffde fff7 fff8 ffe5 0000 fffa     ................
   1c0f0:	0002 0006 fffe fff7 ffdf ffe5 ffe4 fffb     ................
   1c100:	0008 000f 0002 0002 0021 0015 0027 0032     ........!...'.2.
   1c110:	0012 0011 0014 001a 0022 003b 0031 001c     ........".;.1...
   1c120:	0019 002d 0027 0025 0019 001f 0024 0028     ..-.'.%.....$.(.
   1c130:	0017 0011 0022 001d 0016 0003 000c 001d     ...."...........
   1c140:	0021 0020 0016 0012 0001 0010 001a 000c     !. .............
   1c150:	0013 0022 0034 003b 002d 0029 0026 001f     ..".4.;.-.).&...
   1c160:	0025 0012 000d 0008 0002 ffea ffd0 ffe0     %...............
   1c170:	fff4 ffee ffd9 fff1 000b 000d fffd 0006     ................
   1c180:	0017 0000 000b 0017 0025 001d 0005 fffa     ........%.......
   1c190:	0012 0022 0016 0019 001e 002a 0024 0000     ..".......*.$...
   1c1a0:	0004 0009 000e 001b 0011 000e fff8 fffe     ................
   1c1b0:	fff6 fff8 0000 0009 0008 000e 0012 0018     ................
   1c1c0:	0014 0011 0011 0022 002b 0021 0004 0001     ......".+.!.....
   1c1d0:	0011 001d 0001 fffa 0007 0002 fff0 fffc     ................
   1c1e0:	0015 001d 0010 ffef fff6 0003 0013 0008     ................
   1c1f0:	ffe7 fff1 0004 0006 0006 0003 fffa 0005     ................
   1c200:	001d 0015 000b 0013 0012 0006 fffa fff0     ................
   1c210:	0006 fff7 ffd2 ffec 0000 ffff 0006 fffc     ................
   1c220:	fff3 0000 0009 fffc 0009 0020 0017 0011     .......... .....
   1c230:	0012 0023 0025 001f 0028 0032 0028 0013     ..#.%...(.2.(...
   1c240:	0012 0014 0029 002b 003c 0042 0022 001b     ....).+.<.B."...
   1c250:	0028 003b 0042 003d 0020 0023 0027 002e     (.;.B.=. .#.'...
   1c260:	002f 0024 0018 001c 002a 0028 0028 0016     /.$.....*.(.(...
   1c270:	0012 0011 0024 0011 fffb fffa 000a 0002     ....$...........
   1c280:	ffdc ffde ffe0 ffd2 ffbe ffcc ffeb ffdd     ................
   1c290:	ffd7 ffc9 ffbb ffbc ffc1 ffb8 ffc3 ffd5     ................
   1c2a0:	ffeb ffe8 ffeb ffe3 ffd3 ffe0 ffd8 ffbf     ................
   1c2b0:	ffd8 ffd5 ffd6 ffc8 ffcd ffd1 ffe0 fff9     ................
   1c2c0:	ffda ffc8 ffce ffda ffda fff5 0002 ffe3     ................
   1c2d0:	ffea fff6 fff5 0005 000a fffd 0007 fffb     ................
   1c2e0:	fffb fff4 ffef fff5 0019 0008 fff3 fff8     ................
   1c2f0:	ffea ffdf ffed fff6 ffee ffeb ffed ffe5     ................
   1c300:	ffe3 0000 0001 ffe3 ffdd ffef ffe8 ffe0     ................
   1c310:	ffe5 ffd0 ffcb ffdd ffd8 ffd8 ffda ffdc     ................
   1c320:	ffe0 fff1 fff9 ffe5 ffcd ffd4 ffcd ffc5     ................
   1c330:	ffbf ffbf ffdc ffcf ffbb ffc1 ffbe ffc1     ................
   1c340:	ffe9 ffdb ffe8 fffa 000c 0017 0008 0020     .............. .
   1c350:	0018 000f 000b 000d 0005 001d 0019 0018     ................
   1c360:	002f 0011 0017 0020 0014 0006 ffff 0000     /..... .........
   1c370:	ffef ffe4 ffff ffe2 ffe3 fffc ffd9 ffe8     ................
   1c380:	ffd3 ffcc ffe5 ffee 0011 0012 fff5 0000     ................
   1c390:	0025 0021 0036 001d ffed fff1 fffa fff0     %.!.6...........
   1c3a0:	fffd ffff ffd7 ffe7 0005 0006 fff0 ffeb     ................
   1c3b0:	fff8 ffeb ffe5 ffde ffcf ffd4 fff4 fffe     ................
   1c3c0:	ffcb ffc6 ffe5 ffed fff5 fff6 0004 fff0     ................
   1c3d0:	fff8 ffe0 ffe8 fffa ffe8 0004 000e 0001     ................
   1c3e0:	0002 0010 0011 001a 002f 001b 0025 002e     ......../...%...
   1c3f0:	0035 002f 0049 0058 0052 0052 005a 0049     5./.I.X.R.R.Z.I.
   1c400:	0046 0062 0058 003f 002a 0033 0042 0055     F.b.X.?.*.3.B.U.
   1c410:	0036 0041 0045 003b 003b 002c 0026 001a     6.A.E.;.;.,.&...
   1c420:	002e 0038 0022 001f 0013 0020 002e 0030     ..8."..... ...0.
   1c430:	002d 0021 001e 0026 003c 0034 0021 0029     -.!...&.<.4.!.).
   1c440:	0032 0034 001b 0010 0028 001e 0011 001f     2.4.....(.......
   1c450:	0027 0019 0002 fffc 0011 0010 fffc 000a     '...............
   1c460:	0010 0013 0011 0000 fffb 0025 000d 001a     ..........%.....
   1c470:	0018 0012 0000 fffe 0028 0022 000f 0024     ........(."...$.
   1c480:	002c 001f 0017 0011 000b fffa 0009 fff2     ,...............
   1c490:	0002 0006 fff8 ffd9 ffea fffa ffdd ffd8     ................
   1c4a0:	ffcf ffcf ffd4 ffcc ffd5 ffd9 ffdb ffd3     ................
   1c4b0:	ffe0 ffe1 ffe1 ffe6 ffea ffeb fff0 ffec     ................
   1c4c0:	ffea ffe7 ffd2 ffdf fff7 fff0 fff4 ffe9     ................
   1c4d0:	ffd6 ffc6 ffc1 ffdd ffea fff2 ffed ffef     ................
   1c4e0:	ffe6 ffea 000c fffa 0006 0008 0004 0006     ................
   1c4f0:	0011 001e 002b 0015 0002 000e 000b 0020     ....+......... .
   1c500:	002c 0027 001a 0023 001a 002b 001d 0004     ,.'...#...+.....
   1c510:	001a 0025 0033 003b 0013 002a 0020 0009     ..%.3.;...*. ...
   1c520:	0019 fffe ffed ffe0 ffeb 0009 001f 0013     ................
   1c530:	ffff fffb fff9 fffc 0008 000c 000c ffec     ................
   1c540:	ffd2 ffd3 ffe6 000a ffe8 ffd3 ffc7 ffd8     ................
   1c550:	ffd6 ffbe ffce ffd4 ffdc fff4 fff1 ffdd     ................
   1c560:	ffec ffed fff6 0000 000f ffed fff7 0008     ................
   1c570:	fffa 000e fffa ffdb ffdf ffe6 fff2 0000     ................
   1c580:	fff0 fff5 ffe2 ffd3 fff0 ffe7 ffe3 ffe4     ................
   1c590:	ffe7 ffce ffbc ffca ffd3 ffea ffdf ffc6     ................
   1c5a0:	ffe6 ffd8 ffd8 ffef ffec ffef ffd7 ffbb     ................
   1c5b0:	ffce ffd7 ffca ffce ffd0 ffc4 ffc7 ffd6     ................
   1c5c0:	ffd7 ffe9 ffdf ffee 0000 ffeb ffdf ffef     ................
   1c5d0:	fff4 fff1 ffd0 ffde ffe5 ffe2 fff4 ffd8     ................
   1c5e0:	ffdd fff3 ffdb ffbf ffe1 fff9 fff0 fff3     ................
   1c5f0:	0005 fff0 ffe7 ffe3 fff1 000e 001b 001a     ................
   1c600:	0014 000d 0009 000e 000a 0018 0028 0015     ............(...
   1c610:	000a 000c 0011 000f fffd fff5 fff5 0009     ................
   1c620:	0027 002b 0017 000c 0014 0012 0017 0027     '.+...........'.
   1c630:	0021 000c 0008 001d 001b 0017 000d 001c     !...............
   1c640:	0015 0000 0015 0008 001c 0023 fffe 0010     ..........#.....
   1c650:	000e ffe7 0003 000f 001c 001b 0014 0013     ................
   1c660:	0005 0013 000d 0002 fffa 000f fffe fff8     ................
   1c670:	0006 0009 fff0 fff6 001d 0008 000c 000c     ................
   1c680:	0005 fff9 0007 0012 000e 000f 0008 0020     .............. .
   1c690:	0024 0021 0028 0038 002e 003a 0045 0046     $.!.(.8...:.E.F.
   1c6a0:	0039 0020 003e 003c 0038 002f 0026 0017     9. .>.<.8./.&...
   1c6b0:	0036 0048 002a 0019 0031 0042 002a 001a     6.H.*...1.B.*...
   1c6c0:	002e 0042 0033 004d 0042 0016 0018 003a     ..B.3.M.B.....:.
   1c6d0:	0042 004b 0030 000b 0017 001f 0018 0010     B.K.0...........
   1c6e0:	0031 000d 0002 0001 0007 0010 0001 ffea     1...............
   1c6f0:	ffed fffe fff4 fff6 0000 ffdf ffe3 fff6     ................
   1c700:	ffe9 0002 fffb 0008 000d 0009 ffeb ffd9     ................
   1c710:	ffcf ffdb ffe0 ffe8 fff8 ffc4 ffc9 fffb     ................
   1c720:	fff5 fff7 ffeb ffe0 ffec fff1 fff7 fff6     ................
   1c730:	fff8 ffeb fff8 0003 0005 0015 fffd 000c     ................
   1c740:	0011 0014 001d 000f 0005 0003 0014 0013     ................
   1c750:	0012 001e 0025 002a 000c 0017 0017 001b     ....%.*.........
   1c760:	0017 0014 0014 000d 000a 0022 002b 0022     ..........".+.".
   1c770:	001d 0029 0026 0017 0013 0017 fffa ffe3     ..).&...........
   1c780:	fff0 fffe fff1 ffcd ffbd ffdc fff7 ffec     ................
   1c790:	ffe9 ffe0 ffc3 ffce ffd8 ffe3 fff0 ffe4     ................
   1c7a0:	ffe2 ffdd ffde ffd8 ffc1 ffbf ffcc ffc1     ................
   1c7b0:	ffc5 ffe1 ffdc ffc8 ffcd ffd6 ffd2 ffee     ................
   1c7c0:	ffff fff9 ffe8 ffdf ffdc ffe7 ffed ffef     ................
   1c7d0:	fffb fff5 ffeb ffec ffef ffe0 ffdf ffe8     ................
   1c7e0:	ffd7 ffbf ffb2 ffc4 ffed ffde ffcd ffd2     ................
   1c7f0:	ffd1 ffec fffd fff8 0000 fff7 ffea fffa     ................
   1c800:	0011 fffd fff5 000f 0015 0003 fffb ffec     ................
   1c810:	fffd 001e 000e fff9 fff9 0004 0000 000c     ................
   1c820:	0017 0008 ffed ffc9 ffe3 0003 ffeb ffe2     ................
   1c830:	fff8 fff8 ffee ffea fff5 fff1 fffc 0014     ................
   1c840:	001d 0032 0018 000a 0007 0007 0002 0004     ..2.............
   1c850:	0007 ffe8 ffdc ffea ffeb ffef fff0 ffee     ................
   1c860:	fffe fffb fffa ffee ffe1 fff1 fff6 fff3     ................
   1c870:	ffeb ffe6 ffe1 ffea ffeb ffe1 ffd8 ffde     ................
   1c880:	ffdb ffe2 ffec ffc4 ffbf ffe0 fff0 fff8     ................
   1c890:	fff9 ffde ffd4 fffa 000b ffff fff1 ffd8     ................
   1c8a0:	fff1 0015 0007 0008 0014 0007 0015 0008     ................
   1c8b0:	0000 fffb 0009 001a 000c 0000 000d 000f     ................
   1c8c0:	fffd fffd 0008 0017 0008 0011 0026 002d     ............&.-.
   1c8d0:	001d 0035 0037 002c 0027 002c 001a 0012     ..5.7.,.'.,.....
   1c8e0:	0042 0044 0025 001c 0016 000f 000a 0010     B.D.%...........
   1c8f0:	0004 fffd ffff 000f 000e 0019 0019 fffc     ................
   1c900:	fffe 000b 0019 0017 0017 0006 0015 0022     ..............".
   1c910:	0019 0031 0014 000a 0010 0030 0038 002d     ..1.......0.8.-.
   1c920:	0028 001e 001e 0015 000e 0013 0028 0040     (...........(.@.
   1c930:	0043 0023 fffb 000d 0017 0010 002b 002f     C.#.........+./.
   1c940:	0026 0025 001f 001e 0023 001d 0015 0029     &.%.....#.....).
   1c950:	000a ffe5 0000 0015 0026 0022 000e 0029     ........&."...).
   1c960:	0031 0013 fffc 0009 001a 000a fffd ffe8     1...............
   1c970:	fffb ffe8 ffe1 fff7 ffec fff8 0003 0001     ................
   1c980:	000f 0019 0012 0013 000e 000f 0005 001c     ................
   1c990:	0029 001a 0021 002c 002c 000c 000f 0021     )...!.,.,.....!.
   1c9a0:	0021 0019 0005 0009 0001 001e 0012 000c     !...............
   1c9b0:	fffe fff3 0005 fff9 ffe5 ffdc fff2 ffeb     ................
   1c9c0:	ffde ffeb ffda ffca ffdd ffec fffc 0008     ................
   1c9d0:	000a 000c 0001 fffc fff7 fff0 fff0 0014     ................
   1c9e0:	0007 fff5 0009 0002 fff6 ffe8 ffd3 ffdf     ................
   1c9f0:	ffef ffea ffcb ffc0 ffea fff3 fffb fff4     ................
   1ca00:	ffe4 fff0 ffff 0000 ffff fff1 0013 fffb     ................
   1ca10:	fff3 000b fffd 0004 fff2 fff0 ffec fff2     ................
   1ca20:	ffee 0007 000c ffff fff6 0013 000e fffd     ................
   1ca30:	fff8 fff3 0004 fffe 0004 fffa fff1 fff3     ................
   1ca40:	fff1 ffe2 fff8 ffe6 ffd7 ffd0 ffe5 ffe6     ................
   1ca50:	ffd1 ffcf ffe0 ffdd ffd8 ffe0 ffd6 ffd9     ................
   1ca60:	ffcd ffcc ffbf ffcb ffeb ffe7 fff5 fff0     ................
   1ca70:	ffe8 ffed fff1 0003 0007 000e fffd fff1     ................
   1ca80:	fff1 0012 000b ffe8 fff5 ffed 0006 0004     ................
   1ca90:	0001 fffa ffef ffec 0001 0026 0022 0016     ..........&."...
   1caa0:	fff8 0001 0002 ffea ffee fff1 fff2 fff5     ................
   1cab0:	ffe2 ffed 0000 fff8 ffe6 ffe0 ffe5 ffd5     ................
   1cac0:	ffd4 ffe4 fff9 fffd fff3 ffe3 ffd1 ffcd     ................
   1cad0:	ffef ffe1 ffe7 fffe fff2 ffea fff3 0014     ................
   1cae0:	0010 0008 000b 000d 001b 000a fffa 0006     ................
   1caf0:	0003 0001 fff5 ffec fff1 fff1 ffec fffb     ................
   1cb00:	fffb fffb fff4 fff0 ffef ffe3 ffdf 0001     ................
   1cb10:	0004 ffee ffdf ffd4 ffec fff9 fff0 fff6     ................
   1cb20:	ffef fff8 000c 000d 0016 ffff fffa 0001     ................
   1cb30:	000a 0019 0029 001e fffc fff2 000a 001e     ....)...........
   1cb40:	0020 0020 001a 0006 0015 0033 0029 000e      . .......3.)...
   1cb50:	0003 0017 0026 0009 0001 0013 0012 fff8     ....&...........
   1cb60:	0013 0017 0012 001b 0022 0010 0016 001d     ........".......
   1cb70:	000f 0013 0019 000e 0001 000a 0005 fff4     ................
   1cb80:	fffc 0015 0032 0025 0008 0004 000f 0014     ....2.%.........
   1cb90:	0006 000a 0006 001a 001b 0012 0005 0009     ................
   1cba0:	0008 0011 0004 fff4 0008 0028 0028 000d     ..........(.(...
   1cbb0:	0028 002f 003b 0045 0033 0021 0017 001e     (./.;.E.3.!.....
   1cbc0:	0021 0011 0038 003a 0032 0016 ffe8 fffe     !...8.:.2.......
   1cbd0:	0010 001a fff5 ffe4 fff8 0019 001c fffe     ................
   1cbe0:	0004 0009 0002 0000 ffe9 fff1 fff4 0008     ................
   1cbf0:	001c fffe fff2 0003 0002 fffd 0011 0015     ................
   1cc00:	0009 0002 0000 fff4 0015 001b 0035 0006     ............5...
   1cc10:	ffcf ffdc fffd 0009 fff2 fffd ffff fff0     ................
   1cc20:	fffc 0007 0005 0015 0009 0010 0008 ffe5     ................
   1cc30:	fff5 0002 000f fffc 0000 ffe4 ffe6 ffef     ................
   1cc40:	fff5 0001 ffee 0000 0000 0013 001b 0011     ................
   1cc50:	0015 000e 0026 0020 0015 0020 000e 0011     ....&. ... .....
   1cc60:	0005 0014 000e 0001 000d 0008 0009 fffe     ................
   1cc70:	fffc fffc 0001 fff9 ffe7 ffe6 ffd6 ffee     ................
   1cc80:	0012 0012 0018 0017 000b 0023 0026 0019     ..........#.&...
   1cc90:	000b ffff fffe fffd 0010 0014 0018 0016     ................
   1cca0:	0000 fffa ffef fff4 ffff fff8 ffed fff6     ................
   1ccb0:	ffe8 ffed ffec fff4 fffc 0009 0003 ffe8     ................
   1ccc0:	ffe6 ffd6 ffe1 ffe7 fff6 ffe9 0005 0010     ................
   1ccd0:	0016 0018 0013 0012 0004 0006 0000 0011     ................
   1cce0:	0017 fffa fff9 0004 fffc 000c 0001 0002     ................
   1ccf0:	000d fffe fff6 fff2 fff8 fff6 fff9 fff9     ................
   1cd00:	ffea fff9 ffe1 ffd2 ffdf ffe0 ffd9 ffe6     ................
   1cd10:	ffe2 ffcd ffca ffc9 ffbf ffb2 ffc5 ffc8     ................
   1cd20:	ffa5 ffb9 ffc2 ffc0 ffbe ffb2 ff9b ff99     ................
   1cd30:	ffb8 ffdb ffe7 ffe1 ffd9 ffdc ffee fff5     ................
   1cd40:	000c 001f 0016 0010 0012 0008 fffa ffff     ................
   1cd50:	0007 fffe fff3 fff0 0004 0008 fffa ffeb     ................
   1cd60:	ffe3 ffe9 ffed ffe8 ffdf ffe9 ffec fff2     ................
   1cd70:	0009 0004 000f 001a 000c ffff fffc 0019     ................
   1cd80:	001b 0001 ffdd ffea fff4 ffe1 ffde ffd8     ................
   1cd90:	ffd7 ffc0 ffd4 ffce ffca ffdc ffd7 ffde     ................
   1cda0:	ffef ffed fff4 fffd fff3 0007 0011 0012     ................
   1cdb0:	0007 001b 0026 0020 0025 001f 001d 000d     ....&. .%.......
   1cdc0:	0003 0008 000c 0007 0001 ffff fff2 fff2     ................
   1cdd0:	ffe4 ffee fffe 0007 fff9 ffef ffe5 fffe     ................
   1cde0:	0007 000d 001c 0019 0016 0000 0002 000f     ................
   1cdf0:	0015 0009 fffc 0010 002a 001e 000e 001f     ........*.......
   1ce00:	0025 0020 0009 000f 001a 000d 000c 0013     %. .............
   1ce10:	001b 001e 0026 001f 002e 0032 0044 0035     ....&.....2.D.5.
   1ce20:	0017 0012 0013 fffd fff9 0008 000b fff2     ................
   1ce30:	ffe8 fffc 0003 fffd 000f 0016 ffff 000a     ................
   1ce40:	0017 0023 0023 0018 0016 0005 0020 0022     ..#.#....... .".
   1ce50:	001e 000f 0004 0016 fff9 fff9 000d 0022     ..............".
   1ce60:	0025 0013 0023 0026 001c 001c 0017 0003     %...#.&.........
   1ce70:	fff0 fff1 ffe6 0006 001c 0017 000e 0013     ................
   1ce80:	001d 0027 0022 002f 0032 000e 0001 0014     ..'."./.2.......
   1ce90:	000d 0009 0014 000e 0007 fff9 000d 0020     .............. .
   1cea0:	001c 0011 0011 001f 0012 000a 002f 001e     ............/...
   1ceb0:	0023 0032 003c 003d 0039 0024 0027 003e     #.2.<.=.9.$.'.>.
   1cec0:	0043 003b 0020 001a 001b 001c 0034 002d     C.;. .......4.-.
   1ced0:	0007 0018 0013 0010 001b 002a 004b 001e     ..........*.K...
   1cee0:	000e 0011 000f 0003 fffe fffc ffe6 0002     ................
   1cef0:	fffe ffe7 ffc6 ffc3 ffb3 ffc3 ffcf ffcc     ................
   1cf00:	ffe2 ffd4 ffcb ffbb ffdf ffdf ffc8 ffcb     ................
   1cf10:	ffc9 ffb4 ffa7 ffbf ffb7 ffaa ffc8 ffd0     ................
   1cf20:	ffae ffa9 ffcb ffd8 ffcd ffd6 ffa9 ffb5     ................
   1cf30:	ffe2 ffd1 ffc8 ffc9 ffd5 fff3 ffed 0004     ................
   1cf40:	fffe ffdd ffef 0017 fff3 ffee 000d 0021     ..............!.
   1cf50:	002d 002b 0026 0027 0024 003a 0036 0029     -.+.&.'.$.:.6.).
   1cf60:	0032 0038 0023 0023 002f 002c 003b 004c     2.8.#.#./.,.;.L.
   1cf70:	0030 003b 0028 0021 0026 004a 004e 0033     0.;.(.!.&.J.N.3.
   1cf80:	002d 0028 002f 0037 001e 0000 0008 000e     -.(./.7.........
   1cf90:	000a fff8 ffe4 ffce ffdc ffe8 ffdf ffd5     ................
   1cfa0:	ffec ffe4 ffd9 ffee ffe6 ffd4 ffd3 fff7     ................
   1cfb0:	fff0 ffe3 ffec ffeb fff6 fffa ffe7 ffea     ................
   1cfc0:	ffe5 ffeb ffe7 ffd1 ffdc ffd2 ffcb ffba     ................
   1cfd0:	ffb9 ffbc ffab ffb7 ffb8 ffb5 ffa7 ffc5     ................
   1cfe0:	ffd8 ffdd ffdd ffc3 ffb2 ffce ffcc ffb6     ................
   1cff0:	ffd2 ffd2 ffd8 ffd6 ffd2 ffcb ffbc ff9c     ................
   1d000:	ffa2 ffb8 ffd1 ffc0 ffb7 ffb2 ffa3 ffb5     ................
   1d010:	ffe2 0002 fffb fff9 fff4 fffa ffff 0009     ................
   1d020:	002a 0034 0020 0012 0015 001b 002d 001f     *.4. .......-...
   1d030:	000e 001e 001a 0018 fffc 0003 0002 fff3     ................
   1d040:	ffe1 0002 001b 0026 002b 001d 000e 001d     ......&.+.......
   1d050:	002c 002f 0036 0026 0030 002a 001f 0010     ,./.6.&.0.*.....
   1d060:	0007 000d 0003 0008 0006 0011 0018 0015     ................
   1d070:	0011 0014 0028 000d 0008 0010 0006 0015     ....(...........
   1d080:	0018 001d 0017 0015 000b 0031 0051 0036     ..........1.Q.6.
   1d090:	003c 0037 002e 0036 0039 0042 0033 002b     <.7...6.9.B.3.+.
   1d0a0:	0022 0006 0013 0015 0024 0012 001e 0027     ".......$.....'.
   1d0b0:	002b 002b 002e 0043 004b 0032 0036 0032     +.+...C.K.2.6.2.
   1d0c0:	0039 0037 003c 0045 002f 002f 0037 0038     9.7.<.E././.7.8.
   1d0d0:	002d 001a 0021 0021 0026 0015 ffff 0005     -...!.!.&.......
   1d0e0:	fff8 ffed ffd3 ffe7 fff2 ffe3 ffe5 fffd     ................
   1d0f0:	fff2 ffe4 ffde ffc1 ffd0 fffe 000b 0000     ................
   1d100:	fff9 ffef fff2 fffd fffd fff7 ffe1 ffd6     ................
   1d110:	ffd8 ffcc ffc4 ffe1 fff4 fff0 fff0 ffeb     ................
   1d120:	ffd8 ffd2 ffd4 ffde ffee fff2 0001 fff8     ................
   1d130:	fffe 0002 0003 0014 002a 0030 0028 0028     ........*.0.(.(.
   1d140:	001d 0020 0019 000e 0020 0030 0027 001a     .. ..... .0.'...
   1d150:	001a 0028 002a 0022 0015 0028 0030 0036     ..(.*."...(.0.6.
   1d160:	002b 002b 002e 0047 0045 002c 0040 0038     +.+...G.E.,.@.8.
   1d170:	0036 002c 0028 0042 003b 0038 0035 0025     6.,.(.B.;.8.5.%.
   1d180:	0016 001a 0025 0028 000f 000d 0004 0015     ....%.(.........
   1d190:	0022 fffa fff7 000a 0013 fff3 ffea fff7     "...............
   1d1a0:	fffd 0015 0008 ffff 0002 fff0 ffcd ffd6     ................
   1d1b0:	ffe8 ffcf ffd2 ffc2 ffbf ffd3 ffcb ffc2     ................
   1d1c0:	ffb5 ffb7 ffc3 ffa9 ffb1 ffd1 ffc9 ffc8     ................
   1d1d0:	ffd7 ffd3 ffc7 ffc8 ffc9 ffdb ffd5 ffc4     ................
   1d1e0:	ffce ffdf ffeb ffe3 ffcb ffd8 ffe1 0004     ................
   1d1f0:	0010 0004 ffe8 fffb fffc fff0 fff3 fff6     ................
   1d200:	ffdf ffe0 fff2 ffff fff9 ffe4 ffcc ffd0     ................
   1d210:	fff6 0007 000a fff1 ffec 0001 ffe5 ffda     ................
   1d220:	fff4 0007 fffb ffe9 ffdf ffd7 fff0 fff9     ................
   1d230:	ffe9 ffdf fff7 0005 0002 0006 fffb ffed     ................
   1d240:	0014 0018 000b fff6 ffe2 ffe0 ffe6 fff9     ................
   1d250:	fff7 ffdf fff3 fffe fff0 ffe7 ffe2 ffe5     ................
   1d260:	fff2 fff6 fffd fff5 ffdb ffc7 ffdb fff9     ................
   1d270:	ffee fffb fff0 fffd ffff ffe7 ffde ffde     ................
   1d280:	ffe1 fff5 0004 ffed ffef fff0 000d 0011     ................
   1d290:	001e 000c ffeb ffde ffe3 fff8 fffb fff0     ................
   1d2a0:	ffdd ffdd 0006 0019 0012 fff8 0000 fffa     ................
   1d2b0:	fff2 fffc 0002 fffd fff0 ffed ffef ffe1     ................
   1d2c0:	ffdb ffe2 fff0 fff2 ffe6 fff2 fff6 fff0     ................
   1d2d0:	ffee 0004 000c 0020 001f 002c 001e 0017     ...... ...,.....
   1d2e0:	002e 0027 0042 003f 0036 0028 0010 0023     ..'.B.?.6.(...#.
   1d2f0:	0027 0032 0025 0012 0008 0005 ffff fffb     '.2.%...........
   1d300:	fffb ffe4 fffb ffef ffed ffe1 fffe fff9     ................
   1d310:	ffdf ffdd fff3 fff9 fff4 0008 0014 0004     ................
   1d320:	ffd8 ffe9 fff6 0002 ffff fff8 fff1 fff1     ................
   1d330:	000e 0002 fff6 fffb 000b 0016 0012 000b     ................
   1d340:	000b 000c 0010 002b 003a 0029 001d 0017     ......+.:.).....
   1d350:	0011 001b 001b 0026 0027 0021 0031 0024     ......&.'.!.1.$.
   1d360:	001e 001f 0017 0025 0033 0053 005f 004a     ......%.3.S._.J.
   1d370:	003f 0024 0030 0045 004d 0040 002a 0036     ?.$.0.E.M.@.*.6.
   1d380:	0037 0029 001a 0025 0034 0037 002a 0013     7.)...%.4.7.*...
   1d390:	0010 0017 0021 0032 0039 001b 001e 003c     ....!.2.9.....<.
   1d3a0:	002e 0022 000f 000a 000e 0013 0011 0015     ..".............
   1d3b0:	0017 0013 0010 ffec fff2 fffa 0001 ffe5     ................
   1d3c0:	ffd7 ffe3 ffd4 ffd4 ffd4 ffcd ffd7 ffbe     ................
   1d3d0:	ffd1 ffd5 ffd7 fff7 ffeb ffe0 fff2 ffee     ................
   1d3e0:	ffeb fff1 fff0 ffed ffe9 ffe9 fff0 ffdf     ................
   1d3f0:	ffdd ffd6 ffdf ffde ffeb ffe6 ffef ffe8     ................
   1d400:	ffea fffe 000a ffed ffe9 ffff fffc 0016     ................
   1d410:	0025 000e ffff 000a fffe 0004 fffe 0014     %...............
   1d420:	0012 0012 0013 0010 0009 000a 002d 0018     ............-...
   1d430:	fffc 0009 fffe ffee fff6 000e 0009 0009     ................
   1d440:	fffa fffc 0009 0008 000c 0003 ffe6 fff4     ................
   1d450:	0012 000c 0011 0016 000c fffa 000f 000e     ................
   1d460:	fff4 ffff 002b 0033 0023 001c 001e 0009     ....+.3.#.......
   1d470:	000f 001d fffc 0001 fffa ffe6 fff7 fff3     ................
   1d480:	ffe2 ffda ffbe ffd5 ffdf fff1 fff3 ffdd     ................
   1d490:	fff9 0002 ffdf ffcf ffa4 ffd9 ffb3 0009     ................
   1d4a0:	001b fedb 0032 00a6 012c fef3 fe71 fe13     ....2...,...q...
   1d4b0:	fff8 01e8 026a 017f fedb fd3c fb75 fc89     ....j.....<.u...
   1d4c0:	fe28 016c 03e6 0648 05b2 03ac 0065 fd64     (.l...H.....e.d.
   1d4d0:	fb10 fa1c fad1 fc22 fe82 0074 014f 01ec     ......"...t.O...
   1d4e0:	0305 031d 01ed 0086 ffce ffbc 00cc 0188     ................
   1d4f0:	0146 0045 fea2 fd1e fcfd fea8 0061 01c5     F.E.........a...
   1d500:	0225 0272 0224 0213 0110 ff4e fd37 fb58     %.r.$.....N.7.X.
   1d510:	fa3e fa7c fc66 fe86 013b 0370 04ba 03d6     >.|.f...;.p.....
   1d520:	02fd 0199 0053 fee6 fe4c fe16 fde6 fed2     ....S...L.......
   1d530:	ffc9 006b ffeb ff6f fe32 fead 005b 0288     ..k...o.2...[...
   1d540:	03eb 046b 03c5 01c0 ffb4 fed8 ff3b 007b     ..k.........;.{.
   1d550:	01f5 0299 0226 005a fe3c fc04 fb90 fbe2     ....&.Z.<.......
   1d560:	fd43 fe77 ff1a 0029 00bd 00ca 00ad 00b2     C.w...).........
   1d570:	0100 01a0 023c 0183 0098 fef2 fe00 fd4f     ....<.........O.
   1d580:	fe2c ff5d 00e7 024f 02f8 0299 0185 00ac     ,.]...O.........
   1d590:	0008 0009 004c 001d ffba fedf fe16 fdbd     ....L...........
   1d5a0:	fe49 ff16 0025 00da 012b 00e3 008a 0046     I...%...+.....F.
   1d5b0:	0031 0087 00de 014c 0172 0181 00fa 0086     1.....L.r.......
   1d5c0:	0002 ffcb ffa3 ffa8 ffc1 ff83 ff6b ff71     ............k.q.
   1d5d0:	ff87 ffa9 0029 0095 011c 0120 00ec 007a     ....)..... ...z.
   1d5e0:	fffa ff77 ff3f ff20 ff01 feec febe fef4     ..w.?. .........
   1d5f0:	ff12 ff59 ffc5 ffff ffe2 ffc1 ff64 ff7e     ..Y.........d.~.
   1d600:	ffe6 0076 00a9 006b 0019 ffe1 ff91 ff46     ..v...k.......F.
   1d610:	ff54 ffb5 fffa 0009 000f 0021 003f 005d     T.........!.?.].
   1d620:	00dd 0138 00f9 009b 002d 0006 ffe9 004d     ..8.....-.....M.
   1d630:	0065 0060 ffdd ff82 fefc ff1b ff2b ffe5     e.`.........+...
   1d640:	006c 0091 00c3 007f 0055 0033 00a5 00c4     l.......U.3.....
   1d650:	00de 00b3 0053 ff9f ff59 ff58 ff60 ff83     ....S...Y.X.`...
   1d660:	ff84 ffa1 ff92 ff81 ff91 fffe 002d 005a     ............-.Z.
   1d670:	00b5 00cd 00a6 004f 0050 0037 003b 0013     ......O.P.7.;...
   1d680:	0004 ffd1 ff85 ff88 ff8b 000d 005f 00c2     ............_...
   1d690:	00d9 00d8 00a0 004a 0042 004c 00b8 008a     ......J.B.L.....
   1d6a0:	002c ffb6 ff8c ff68 ffb4 0029 0067 0054     ,.....h...).g.T.
   1d6b0:	ffed 0003 0018 005e 0099 00cf 0095 002c     ......^.......,.
   1d6c0:	0002 ffea ffdf 000f 0087 009b 002a ff85     ............*...
   1d6d0:	ff2c ff37 ff46 ff1e ff2a ff75 ff91 ff83     ,.7.F...*.u.....
   1d6e0:	ffa2 ffdb ffef 000d 002d ffd0 ff61 ff23     ........-...a.#.
   1d6f0:	ff63 ff73 ff7b ffcf ffff ffa2 ff2a ff27     c.s.{.......*.'.
   1d700:	ff97 ffea fffd 0034 008b 00b6 004b ffca     ......4.....K...
   1d710:	ff5e ff7b ff92 fff9 0052 0047 0018 ffd6     ^.{.....R.G.....
   1d720:	ffc2 ffae ffa6 ffb3 ffee 002b 001c 0017     ..........+.....
   1d730:	0022 0016 ffdb 000a 002a 0013 ffd5 ffaf     ".......*.......
   1d740:	ff6f ff14 fedf fe7b fe73 fe57 fe69 fe67     o.....{.s.W.i.g.
   1d750:	fe34 fe3e fe17 fe36 fe72 ff61 ffea 003c     4.>...6.r.a...<.
   1d760:	0076 004e 0033 0028 00b2 017a 0292 02a8     v.N.3.(...z.....
   1d770:	0216 00e1 0071 00af 0180 0279 029c 0268     ....q.....y...h.
   1d780:	0163 00d1 0135 02a8 03b7 03bc 0335 01ba     c...5.......5...
   1d790:	0084 ffc2 0010 0029 ff5d fdcc fbc9 fae6     ......).].......
   1d7a0:	fb38 fd76 ffca 01bf 0233 01c2 00f7 0034     8.v.....3.....4.
   1d7b0:	ffe8 ff26 fdc6 fba3 f9b5 f7ea f73f f837     ..&.........?.7.
   1d7c0:	fa30 fb73 fb7e fb72 fbcb fd24 fed9 00ef     0.s.~.r...$.....
   1d7d0:	029a 030b 02ff 032c 0424 0549 0611 060a     ......,.$.I.....
   1d7e0:	05bb 05c6 0581 0586 0697 0666 07ec 0942     ..........f...B.
   1d7f0:	09c0 066e 0342 024c 0387 05fa 05ec 0378     ..n.B.L.......x.
   1d800:	fd29 f819 f481 f4d3 f825 fc48 0003 0147     ).......%.H...G.
   1d810:	01f3 01f2 036a 040d 02eb ff97 fa42 f467     ....j.......B.g.
   1d820:	efe2 ef46 f134 f3db f56e f5c9 f5bd f777     ..F.4...n.....w.
   1d830:	fb3a fefa 009f 006c ff5d fe8e ff7f 0249     :.....l.].....I.
   1d840:	0527 069c 0685 05d6 05c2 079b 0a76 0c14     '...........v...
   1d850:	0ca7 0bcb 0a76 0955 0939 07e6 0553 0548     ....v.U.9...S.H.
   1d860:	060b 0593 0281 0188 0146 027b 036d 029e     ........F.{.m...
   1d870:	fee8 f9fa f6ac f52c f779 fb1f ff36 01d0     ......,.y...6...
   1d880:	0461 057c 04d8 03f7 019e fdfb f8ee f4aa     a.|.............
   1d890:	f09b ee46 ee6b f0dc f3b9 f653 f7f4 f877     ..F.k.....S...w.
   1d8a0:	f9ed fbf8 fd34 fd30 fd1e fd79 fec6 014a     ....4.0...y...J.
   1d8b0:	041f 057b 069f 07eb 0921 09e7 0b5d 0b8f     ..{.....!...]...
   1d8c0:	0a08 087f 07dd 08a0 091e 0907 0706 0438     ..............8.
   1d8d0:	03df 0717 0938 07ad 03bf 00a6 ffec 01f0     ....8...........
   1d8e0:	0391 0208 fd08 f70d f370 f3ac f819 fdd5     ........p.......
   1d8f0:	028e 04a6 04bb 040b 032b 019e fecd fab0     ........+.......
   1d900:	f513 efec ed32 ee1f f1c8 f537 f6e8 f6b9     ....2.....7.....
   1d910:	f713 f930 fbc5 fda2 fdc5 fc2b faf4 fcbd     ..0.......+.....
   1d920:	00ce 0499 06cd 06a6 0678 0797 0905 09e1     ........x.......
   1d930:	0a38 0a4d 07f9 062d 0621 06fc 082f 0970     8.M...-.!.../.p.
   1d940:	086f 0583 0475 04aa 07c1 096b 07b9 0110     o...u.....k.....
   1d950:	fbf0 fc7b 0080 03e6 03a8 fea5 f7ea f508     ..{.............
   1d960:	f65e fa4e fe06 ffd8 fec5 fed6 010d 0349     ^.N...........I.
   1d970:	031c ff8c f9f6 f43e f19e f1a6 f346 f529     ......>.....F.).
   1d980:	f5f1 f5fd f686 f88f fad7 fc96 fcc9 fbb6     ................
   1d990:	fa46 fb1c fe93 0286 052f 05d0 055b 05f1     F......./...[...
   1d9a0:	07e1 0a01 0a4e 093b 080d 0710 074b 085c     ....N.;.....K.\.
   1d9b0:	093a 0890 0829 0849 0857 082e 075b 057b     :...).I.W...[.{.
   1d9c0:	02c0 0396 043a 038d 007f fe04 fce0 fdec     ....:...........
   1d9d0:	0077 0043 fd73 f970 f715 f689 f8a9 fb87     w.C.s.p.........
   1d9e0:	fd6f fdf3 fe88 ff60 ff8a fe31 fae8 f7b2     o.....`...1.....
   1d9f0:	f551 f44e f431 f5d1 f798 f8fc f980 f9f2     Q.N.1...........
   1da00:	fa6a fa36 fa88 fba0 fccd fd33 fe36 ffc8     j.6.......3.6...
   1da10:	0216 04d4 067e 06cc 0678 06ba 078b 07eb     ....~...x.......
   1da20:	07f0 06b3 067d 07d2 0901 098b 0949 092d     ....}.......I.-.
   1da30:	08cb 08ac 0773 051e 0467 02ce 02eb 030e     ....s...g.......
   1da40:	0321 0009 fcf1 fc3c fde5 ffc6 0013 fd8e     !.....<.........
   1da50:	f925 f726 f77e f967 faff fb70 fb20 fcaf     %.&.~.g...p. ...
   1da60:	ff5d ffe0 fe5d fca4 fb0f f842 f653 f62b     ]...].....B.S.+.
   1da70:	f749 f7f9 f8bd f95a f9f7 fb7d fc5b fc82     I.....Z...}.[...
   1da80:	fcea fd72 fd95 ff27 015e 02dd 034f 0483     ..r...'.^...O...
   1da90:	0589 066d 0746 07a2 07fd 08bd 08c2 0826     ..m.F.........&.
   1daa0:	0938 0a63 0959 08f0 081a 07da 076c 0820     8.c.Y.......l. .
   1dab0:	060a 035f 0305 0234 016c 01c5 0345 0020     .._...4.l...E. .
   1dac0:	fc34 fa92 fc0c fe0a feb4 fc65 f908 f794     4.........e.....
   1dad0:	f7ce f9ae fb7b fc10 fb92 fd48 ff39 ff46     ....{.....H.9.F.
   1dae0:	fdd8 fcb5 fa86 f7e7 f781 f85f f8b2 f8e7     .........._.....
   1daf0:	f9ad f9f3 fa9f fc4c fd57 fd09 fc11 fca6     ......L.W.......
   1db00:	fdce ff7f 01ae 02f3 03c0 0490 0567 063c     ............g.<.
   1db10:	07c0 08a3 0844 078c 07c6 0808 08c0 0952     ....D.........R.
   1db20:	097d 07bd 06c7 0693 07bd 0801 05f6 020f     }...............
   1db30:	001f 013f 01e0 02e2 025e 00ec fce6 fbd1     ..?.....^.......
   1db40:	fcb4 fdf9 fdfb fc66 f9c9 f79d f85c f972     ......f.....\.r.
   1db50:	fa3b f961 f966 fa5e fd13 fedb fee5 fd87     ;.a.f.^.........
   1db60:	fbc6 fa5a fa45 fac9 f9f4 f8e7 f8ee faf4     ..Z.E...........
   1db70:	fc58 fcdb fcf7 fcf5 fd2a fdbf fe9e fed2     X.......*.......
   1db80:	ffa2 0128 02cf 0432 0510 0544 0618 077a     ..(...2...D...z.
   1db90:	0763 06be 06f2 07e7 082a 08a4 08e6 084a     c.......*.....J.
   1dba0:	0798 0814 073a 05aa 055b 053a 0341 0189     ....:...[.:.A...
   1dbb0:	028d 0293 015d 0075 ff77 fd7b fc1e fbea     ....].u.w.{.....
   1dbc0:	fbf8 fd02 fdad fc58 fa3f f933 f89d f8e9     ......X.?.3.....
   1dbd0:	f9e3 f9b6 f8e3 fa15 fd1d fe68 fdca fc56     ..........h...V.
   1dbe0:	fb3d faeb fbed fc0a faab f9d2 fa4a fbda     =...........J...
   1dbf0:	fdf5 ff5c fe6a fd28 fdd1 ff15 ff6b ffaa     ..\.j.(.....k...
   1dc00:	ff99 0007 025f 045c 0522 0571 0623 05ff     ...._.\.".q.#...
   1dc10:	0620 06da 06ff 071f 07b2 079a 06fc 0777      .............w.
   1dc20:	08d4 0849 05ea 04b3 04df 0520 03b4 0116     ..I....... .....
   1dc30:	0014 01a3 0329 01f7 ff00 fb4b f9f0 fbbc     ....).....K.....
   1dc40:	fe5b fdc3 faa8 f8a5 f926 fa41 f9c5 f881     [.......&.A.....
   1dc50:	f7d9 f8fe fb53 fd66 fdf6 fcd8 fbf8 fce7     ....S.f.........
   1dc60:	fdfc fca4 fa6b f978 f9ec fb13 fc33 fce7     ....k.x.....3...
   1dc70:	fcc9 fcec fd46 fdc5 fdda fd64 fd41 fe28     ....F.....d.A.(.
   1dc80:	002d 01c1 02bf 0410 05a3 0683 06b0 071f     -...............
   1dc90:	075c 073e 07be 090b 095b 08bb 085a 080e     \.>.....[...Z...
   1dca0:	0787 0743 06f7 060e 059a 0422 02b3 020d     ..C.......".....
   1dcb0:	0123 001e 0025 002b fd76 fa31 fa5b fd4e     #...%.+.v.1.[.N.
   1dcc0:	fee1 fd31 fa09 f88b f931 f9fb f9cb f8d1     ..1.....1.......
   1dcd0:	f8e8 fa55 fc72 fe3d fe0f fc7e fba3 fc3c     ..U.r.=...~...<.
   1dce0:	fc66 fb44 f9ce f895 f8ca fac2 fcc6 fd1c     f.D.............
   1dcf0:	fc8a fc00 fce3 fe78 fee0 fdbd fd1a ff0f     ......x.........
   1dd00:	0199 0351 04b3 0526 062b 07f3 0996 0931     ..Q...&.+.....1.
   1dd10:	075e 077c 0959 0ac8 09c9 07cc 0741 08b6     ^.|.Y.......A...
   1dd20:	0a2d 08a7 0680 04c0 0477 03ff 0409 0237     -.......w.....7.
   1dd30:	0071 00b5 0102 feef fb17 fabf fc27 fda7     q...........'...
   1dd40:	fca9 fa36 f890 f7d5 f7e5 f786 f7d5 f798     ..6.............
   1dd50:	f824 fa54 fd16 fd96 fc7d fc83 fc31 fba5     $.T.....}...1...
   1dd60:	fa1c f935 f8ae f8e5 f9d2 fb17 fcb2 fd19     ..5.............
   1dd70:	fd0f fd5f fe55 febf fe33 fdfd fee2 00ff     .._.U...3.......
   1dd80:	036e 04d4 0582 06ca 0879 0951 0945 08a8     n.......y.Q.E...
   1dd90:	08d9 0955 0a7d 0a8c 09d2 0947 0942 0978     ..U.}.....G.B.x.
   1dda0:	08fe 0821 0581 0307 0298 03d7 03c5 0309     ..!.............
   1ddb0:	01de fffa fd90 fc1b fc94 fd32 fcbb faa8     ..........2.....
   1ddc0:	f9b1 fa24 f9bc f859 f77c f864 f90b f9c8     ..$...Y.|.d.....
   1ddd0:	fa5d fac9 faf3 fb5c fc19 fba8 fa41 f8aa     ].....\.....A...
   1dde0:	f827 f8b3 f957 f924 f8d0 f9d8 fba1 fcbb     '...W.$.........
   1ddf0:	fcba fc7c fd1f fe57 ffdb 003d 012d 02e6     ..|...W...=.-...
   1de00:	0506 0646 0754 08a0 09a5 09fe 0968 09a9     ..F.T.......h...
   1de10:	09f9 0a15 0998 0961 097c 08d5 0826 07c8     ......a.|...&...
   1de20:	07a6 05e8 0348 0233 0306 0462 0360 0001     ....H.3...b.`...
   1de30:	fbf6 faef fd03 fed5 fdda fa74 f8af f968     ..........t...h.
   1de40:	faee fa41 f816 f6f5 f7e8 fa32 fba3 fc2d     ..A.......2...-.
   1de50:	fb53 fa93 fb2d fc87 fc70 f9bc f755 f77f     S...-...p...U...
   1de60:	f996 fad9 fa47 f978 f9fd fbc0 fd1d fd8e     ....G.x.........
   1de70:	fd44 fd1b fdf9 fff8 01ca 028a 035f 0511     D..........._...
   1de80:	078a 091f 0997 09cb 09aa 09d6 0a85 0c57     ..............W.
   1de90:	0c83 0a71 08fc 0938 0a2c 088a 062d 04cb     ..q...8.,...-...
   1dea0:	0523 0548 042d 0375 022f 0034 fd4c fc35     #.H.-.u./.4.L.5.
   1deb0:	fd56 fe62 fd6f fa7b f8f9 f941 fa40 f9ee     V.b.o.{...A.@...
   1dec0:	f835 f6f1 f779 f9a1 fb61 fb51 fa56 f9a8     5...y...a.Q.V...
   1ded0:	fa75 fb34 fad5 f936 f777 f6f7 f7b2 f93f     u.4...6.w.....?.
   1dee0:	fa1b f9eb f983 fa6d fc33 fd49 fd43 fcbf     ......m.3.I.C...
   1def0:	fd11 fef9 01e2 03a0 041a 0499 05d6 07ed     ................
   1df00:	09ea 0abb 0a0f 09af 0a84 0bf6 0c91 0b7c     ..............|.
   1df10:	0a05 0930 0939 091d 081f 068b 0517 0468     ..0.9.........h.
   1df20:	0383 02a2 022f 00f0 fe9d fcb8 fcf2 fdcd     ..../...........
   1df30:	fd54 fbb3 f9ab f8b5 f859 f837 f83f f857     T.......Y.7.?.W.
   1df40:	f888 f8ca fa13 fb89 fc08 fbad faec fa4a     ..............J.
   1df50:	fa06 f9ff f9ac f90d f8c3 f92c f9f1 fa55     ..........,...U.
   1df60:	fa69 fab8 fb79 fc0b fc84 fd37 fe39 ffae     i...y.....7.9...
   1df70:	011a 0267 03c7 0519 0613 0702 080e 0902     ..g.............
   1df80:	09cb 0aca 0b57 0b6f 0b5c 0b3d 0aca 0984     ....W.o.\.=.....
   1df90:	0893 081a 0778 0686 0581 0467 0317 0192     ....x.....g.....
   1dfa0:	0054 ffed ff3f fe0b fcfe fca8 fcd2 fc9c     T...?...........
   1dfb0:	fbe8 fb3a fa75 f98d f943 f998 f9cd f9c0     ..:.u...C.......
   1dfc0:	f9f9 faa2 fb0e fb10 fb2d fb3e fb31 fb0e     ........-.>.1...
   1dfd0:	fafd fb50 fb9d fb53 fb0a fb47 fb6d fb65     ..P...S...G.m.e.
   1dfe0:	fb5a fbd1 fc9b fd55 fe29 ff57 008b 01a3     Z.....U.).W.....
   1dff0:	02e9 03f1 04e4 05fc 06fb 07d1 08bd 0956     ..............V.
   1e000:	094a 0985 0a0a 09d4 0958 08d8 0873 07ae     J.......X...s...
   1e010:	068d 062b 05bc 04ac 035e 026c 016d 005f     ..+.....^.l.m._.
   1e020:	ffb2 fef4 fe5a fd99 fce0 fc79 fc19 fbb6     ....Z.....y.....
   1e030:	fb48 faef fa81 f9f6 f9bc f9ea fa09 f9f3     H...............
   1e040:	fa16 fa70 fab2 faf7 fb61 fbd4 fc09 fc30     ..p.....a.....0.
   1e050:	fc43 fc4b fc71 fc5f fc3d fc4f fc68 fc6c     C.K.q._.=.O.h.l.
   1e060:	fc93 fcfb fd94 fe07 fe71 ff1d ffd2 0086     ........q.......
   1e070:	0182 02ae 03b4 0488 0559 064c 073a 0810     ........Y.L.:...
   1e080:	08bc 0929 0961 09e1 0a18 098b 08f0 0869     ..).a.........i.
   1e090:	07dd 06df 0594 04a1 03cf 02c0 0133 ffc7     ............3...
   1e0a0:	fef8 fe63 fd9d fca2 fbf6 fbc1 fb58 fac3     ..c.........X...
   1e0b0:	fa8a faa3 fa92 fa5a fa3b fa72 fac5 fb32     ......Z.;.r...2.
   1e0c0:	fb7e fbb4 fbdf fc36 fceb fd4a fd36 fd60     ~.....6...J.6.`.
   1e0d0:	fda0 fd81 fd29 fd01 fce4 fca5 fc6e fc62     ....).......n.b.
   1e0e0:	fc33 fc2d fc6b fcce fd51 fe0a ff04 fff2     3.-.k...Q.......
   1e0f0:	00f4 0201 033a 0463 0564 0673 0760 0869     ....:.c.d.s.`.i.
   1e100:	0916 0920 0958 09e0 09b7 08a3 0816 0813     .. .X...........
   1e110:	0707 054d 047f 0422 02e7 013c 0070 ffce     ..M..."...<.p...
   1e120:	fe91 fdb4 fd3e fcbf fc18 fbf1 fbc4 fb2c     ....>.........,.
   1e130:	fb10 fb2a faf2 fa9e fab6 facf faa8 fac9     ..*.............
   1e140:	fb3b fb89 fb89 fbc8 fc11 fc48 fcac fd39     ;.........H...9.
   1e150:	fd61 fd23 fd11 fcfe fcfa fce8 fce1 fcfc     a.#.............
   1e160:	fce3 fce4 fd45 fdc3 fe4a fefc ffc7 00c9     ....E...J.......
   1e170:	01a1 0282 039f 04c7 05da 06a6 0785 0840     ..............@.
   1e180:	08a9 08b9 08db 090d 08ce 082e 07a0 0753     ..............S.
   1e190:	06bc 0598 049d 039f 0286 0160 004f ff96     ..........`.O...
   1e1a0:	feca fdd9 fd0b fc66 fbc2 fb55 fb6c fb4a     ......f...U.l.J.
   1e1b0:	fae8 fac6 fab7 fa9f fa82 fac6 fb06 fafc     ................
   1e1c0:	fb0d fb6d fbc1 fc07 fc30 fc7d fca4 fce4     ..m.....0.}.....
   1e1d0:	fd5a fd6e fd8d fd9b fd88 fd6a fd69 fd8d     Z.n.......j.i...
   1e1e0:	fd83 fd7b fdba fe08 fe72 feff ff8f 0044     ..{.....r.....D.
   1e1f0:	012a 0243 0364 0440 050b 0601 0702 07cd     *.C.d.@.........
   1e200:	0843 0861 08a9 08fb 08df 0868 07aa 0748     C.a.......h...H.
   1e210:	06db 0607 04ea 043b 036a 0224 00e9 0004     ......;.j.$.....
   1e220:	ff15 fe06 fd6b fcec fc41 fb8f fb91 fb69     ....k...A.....i.
   1e230:	fb12 faf4 fb21 fb10 fa87 fa5c faa8 fae9     ....!.....\.....
   1e240:	faf4 fb4f fbb9 fc12 fc5f fcd0 fd1a fd42     ..O....._.....B.
   1e250:	fd73 fdbc fddd fda5 fd6c fda9 fdc2 fd89     s.......l.......
   1e260:	fd54 fd56 fd91 fde3 fe3f fed3 ff8d 0060     T.V.....?.....`.
   1e270:	0150 024b 0367 047e 0553 0619 0727 0808     P.K.g.~.S...'...
   1e280:	08ac 093a 099a 09a3 0949 08b1 0838 07a3     ..:.....I...8...
   1e290:	06c5 05f0 04fe 03f5 030e 01d9 00b1 ffaa     ................
   1e2a0:	fec5 fe03 fd57 fcaf fc17 fbc3 fb6e fb1c     ....W.......n...
   1e2b0:	fadb fae1 fae4 fad2 faf3 fb24 fb16 fafc     ..........$.....
   1e2c0:	fb22 fb80 fbd8 fc03 fc6d fcb3 fcfb fd7c     ".......m.....|.
   1e2d0:	fda1 fd88 fd9f fdea fdf8 fdba fda1 fda6     ................
   1e2e0:	fd98 fd97 fdea fe31 fe56 feca ffb8 00a6     ......1.V.......
   1e2f0:	012e 020c 0309 03ce 0491 0544 060e 06f1     ..........D.....
   1e300:	0794 0805 0864 087e 0884 0866 0806 0753     ....d.~...f...S.
   1e310:	06c0 0631 0531 0435 0321 021c 00c3 ffde     ..1.1.5.!.......
   1e320:	ff30 fe54 fd50 fc99 fc1b fb5d fb04 fafc     0.T.P.....].....
   1e330:	fad2 fa9f fab6 faa9 fa41 fa61 fb0e fb54     ........A.a...T.
   1e340:	fb88 fc15 fc65 fc6d fc8d fcf5 fd60 fd65     ....e.m.....`.e.
   1e350:	fd91 fdc9 fdcc fdc7 fdd7 fdf9 fdeb fdf8     ................
   1e360:	fe13 fe58 fe92 fece ff1c ffa3 0029 00be     ..X.........)...
   1e370:	0199 0241 02fe 03ed 0508 0557 05de 069b     ..A.......W.....
   1e380:	074a 0777 0783 07f7 07de 0765 06a4 0688     J.w.......e.....
   1e390:	05f1 050f 0439 0382 02ad 01c8 0100 ffd8     ....9...........
   1e3a0:	ff30 fe52 fdc6 fd0e fc94 fbd1 fb4a faf6     0.R.........J...
   1e3b0:	fad6 faa2 fa6a faba faf1 fadf fad1 fb0c     ....j...........
   1e3c0:	fb32 fb67 fbbe fc0e fc58 fc87 fcbb fd23     2.g.....X.....#.
   1e3d0:	fd9d fdbf fdd4 fe10 fe5f fe98 fe94 fea6     ........_.......
   1e3e0:	fecc fed1 ff19 ff2a ff51 ff7e 0022 009e     ......*.Q.~."...
   1e3f0:	00f7 017d 023f 02dc 0369 0410 049a 053f     ..}.?...i.....?.
   1e400:	05c8 05bc 0617 06ba 06bd 0698 062e 061a     ................
   1e410:	0596 0508 0463 03f7 032a 0227 0137 00d1     ....c...*.'.7...
   1e420:	002b fefa fe21 fdc4 fd9e fce7 fc63 fc34     +...!.......c.4.
   1e430:	fbf5 fb50 fafa fb28 fb67 fb68 fb5d fba7     ..P...(.g.h.]...
   1e440:	fbbf fbdd fc15 fc59 fc98 fcdf fd0d fd5b     ......Y.......[.
   1e450:	fdbc fe0a fe1e fe49 fe8a fee3 feda ff29     ......I.......).
   1e460:	ff71 ff99 ff8a ff98 ffde 0038 0074 00a2     q.........8.t...
   1e470:	0138 0167 019a 01d1 0280 02fd 0340 03c6     8.g.........@...
   1e480:	0426 04aa 04b4 04e5 0508 0506 04d9 04c9     &...............
   1e490:	04eb 04c6 0454 03cc 0387 02ec 026e 0234     ....T.......n.4.
   1e4a0:	01b9 00f7 0072 ffe3 ff2a fe94 fe4d fdd2     ....r...*...M...
   1e4b0:	fd6e fcd9 fcd5 fcac fcc4 fc9c fc91 fc8e     n...............
   1e4c0:	fc8c fc8f fc83 fcd3 fcd5 fce0 fcf1 fd78     ..............x.
   1e4d0:	fd6d fd98 fdeb fe3d fe0b fe38 feb5 fede     m.....=...8.....
   1e4e0:	fef7 ff1a ff83 ffcd ffe4 0008 005b 0066     ............[.f.
   1e4f0:	00c1 013d 0104 00eb 0161 01b6 0143 0161     ..=.....a...C.a.
   1e500:	01d4 025b 029d 0299 028a 02d6 035e 035f     ..[.........^._.
   1e510:	0347 031d 0335 0319 02c4 028d 0248 0236     G...5.......H.6.
   1e520:	0200 01d8 018b 0105 00c6 00b9 0042 ffac     ............B...
   1e530:	ff77 ff77 fef4 fea6 fe3a fe60 fe28 fdd3     w.w.....:.`.(...
   1e540:	fd8a fde3 fdc5 fd63 fd59 fdad fd71 fd2c     ......c.Y...q.,.
   1e550:	fd7c fdd5 fdc7 fd86 fdf6 fe5d fe5f fe4d     |.........]._.M.
   1e560:	fea7 fed3 ff20 ff73 ff77 ff5e ffc5 0016     .... .s.w.^.....
   1e570:	0026 0039 0095 00fb 010d 0112 0115 0132     &.9...........2.
   1e580:	017d 01a3 015a 0170 01fa 0227 01e5 01d7     }...Z.p...'.....
   1e590:	0204 021c 01b4 01a7 0204 023c 0228 01ee     ..........<.(...
   1e5a0:	01b3 0192 0156 010b 0138 00ed 00d0 008f     ....V...8.......
   1e5b0:	0074 fffd ffbe ff9d ff93 ff54 fee9 ff21     t.........T...!.
   1e5c0:	ff00 fed9 feb5 fed2 fead fe96 fe97 fe79     ..............y.
   1e5d0:	fe80 fe91 fe9b fe72 fe61 fe8c fe89 fec5     ......r.a.......
   1e5e0:	feac ff12 fee8 ff0c ff20 ff22 fef3 fefd     ........ .".....
   1e5f0:	ff58 ff52 ff51 ff8f ffc6 ffcc fffb 0045     X.R.Q.........E.
   1e600:	0051 0069 0077 00ac 0102 00ff 00de 0108     Q.i.w...........
   1e610:	012f 0105 00fa 00f8 00e3 0103 010a 00ea     /...............
   1e620:	00e2 00f4 00eb 00b0 0065 0077 007a 0085     ........e.w.z...
   1e630:	005c 008f 002a 0046 003b fffc ffff ffab     \...*.F.;.......
   1e640:	ffe8 ff8a ff91 ff70 ffae ff97 ff80 ff91     ......p.........
   1e650:	ffa5 ff97 ff64 ff43 ff38 ff58 ff36 ff49     ....d.C.8.X.6.I.
   1e660:	ff50 ff6d ff2d ff59 ff4d ff6e ff36 ff4e     P.m.-.Y.M.n.6.N.
   1e670:	ff4c ffa3 ff35 feea ffce ffff ff1c ff5a     L...5.........Z.
   1e680:	fff9 ffbc ffdb 003a 0017 ffb6 ffb5 0001     ......:.........
   1e690:	005c 0027 0038 00a0 00c8 00f6 0164 0044     \.'.8.......d.D.
   1e6a0:	020f 00ce ff36 ffb6 009f 0054 ff65 ff9d     ....6.....T.e...
   1e6b0:	fe89 0045 005d ffe6 ff71 ff7b 00c1 0069     ..E.]...q.{...i.
   1e6c0:	0112 0082 004a 00c3 00dc 002c ff63 ffd5     ....J.....,.c...
   1e6d0:	ff97 fee1 ff41 fe8e feb0 feb9 fedc fec2     ....A...........
   1e6e0:	ff18 ffa5 ff19 fffc 008c 0077 0019 010b     ..........w.....
   1e6f0:	019c 00b5 0078 011f 00df 0026 0002 007e     ....x.....&...~.
   1e700:	ffc9 ffb2 ffd8 ffe5 ff90 ff63 ff90 ff8e     ..........c.....
   1e710:	ffaf ffd5 ff4f 000a 0078 000a ffb1 0112     ....O...x.......
   1e720:	0057 ff7c 0098 002d ff9e ffb4 ffba fecb     W.|...-.........
   1e730:	ffdb ffb3 ff68 ffc9 007e fffd 0025 015d     ....h...~...%.].
   1e740:	0134 00a2 00d2 0189 0111 00b8 00b8 00cd     4...............
   1e750:	0084 00c7 ffee 003e 0051 00c3 00a1 000a     ......>.Q.......
   1e760:	00af 012b 010e 0079 0191 0159 0137 00a2     ..+...y...Y.7...
   1e770:	00f6 0151 0072 005e 009b 0093 fff9 0077     ..Q.r.^.......w.
   1e780:	ffc3 001c 0042 ffb0 ffd6 0009 ff97 ff7b     ....B.........{.
   1e790:	ffd2 ff2b ff56 ffaf ff3d ff3d ff27 ff2c     ..+.V...=.=.'.,.
   1e7a0:	ff34 fef9 feed fed9 fefb ff23 ff6f fee2     4.........#.o...
   1e7b0:	feee ff5e feae fea3 feb8 fee3 fe7f fe7d     ..^...........}.
   1e7c0:	fe87 feb0 fecc fe8a ff32 ff14 ff90 ffe4     ........2.......
   1e7d0:	0023 003d 00d4 0067 00a0 010f 00a2 0090     #.=...g.........
   1e7e0:	0058 00ad 007d 005d 000e 00a3 0063 ffcd     X...}.].....c...
   1e7f0:	00c3 00a5 009b 00a3 00ba 0119 0138 00bd     ............8...
   1e800:	013b 0154 0092 00c7 008f 007d 0022 ffd0     ;.T.......}."...
   1e810:	ffd6 ff91 ff1e ff5f ff65 ff44 ff71 ff7c     ......_.e.D.q.|.
   1e820:	ff98 ff98 ff7e ffc6 ffa9 ff83 ffb6 ff62     ....~.........b.
   1e830:	ff7f ff86 ff46 ff30 ff3b ff51 ff56 ff57     ....F.0.;.Q.V.W.
   1e840:	ff87 ffb0 ffbd 003b 00c2 011f 01a6 01d3     ......;.........
   1e850:	0268 02d7 0304 0395 039d 032f 03d7 0370     h........./...p.
   1e860:	035c 0347 02dc 02ed 027f 02a4 0245 01af     \.G.........E...
   1e870:	01f1 01e5 0119 00da 00d9 000a ffed ff22     ..............".
   1e880:	fec2 fe04 fd5c fcd4 fc66 fbba fb87 fb93     ....\...f.......
   1e890:	fba0 fc37 fc36 fc93 fcfd fd4a fda1 fe1b     ..7.6.....J.....
   1e8a0:	fde4 fdd2 fdca fd82 fd23 fc9b fc6f fbef     ........#...o...
   1e8b0:	fb23 fb13 faec faa7 fadd fba9 fc88 fd6c     #.............l.
   1e8c0:	fe9b 0039 019a 02a8 0446 054f 06a9 0721     ..9.....F.O...!.
   1e8d0:	07d2 0854 0835 0855 0808 07b5 0787 0615     ..T.5.U.........
   1e8e0:	05ad 05f3 0428 0329 02a5 0235 00dc ffde     ....(.)...5.....
   1e8f0:	ff16 ff1c fcf4 fc87 fc2d fb4a fa41 f9a8     ........-.J.A...
   1e900:	f9d5 fa1f f9ef fab3 fbf3 fc4b fcfb fe1e     ..........K.....
   1e910:	fec8 feab fec5 fefe fe8e fd70 fcd4 fbce     ..........p.....
   1e920:	fadb f9ca f954 f919 f8be f8dc fa04 fb26     ....T.........&.
   1e930:	fc78 fe34 005f 025f 0456 0625 07fd 0971     x.4._._.V.%...q.
   1e940:	0a24 0b50 0b37 0b3a 0a89 0a8f 08fa 08ee     $.P.7.:.........
   1e950:	07b1 0679 069c 04c1 0472 0310 0347 0242     ..y.....r...G.B.
   1e960:	01a2 00b0 006f fef3 fddf fd48 fc1a fae1     ....o.....H.....
   1e970:	fa11 f97e f95f f919 f9ae fabe fb6b fc2e     ..~._.......k...
   1e980:	fd25 fddf fddb fe38 fe5d fdcb fceb fc03     %.....8.].......
   1e990:	fad9 f94c f857 f753 f6c3 f673 f677 f749     ..L.W.S...s.w.I.
   1e9a0:	f86d f9cd fc04 fe7b 008d 031c 0569 07a0     m.....{.....i...
   1e9b0:	0961 0b00 0bac 0bd4 0c65 0c76 09d1 0a27     a.......e.v...'.
   1e9c0:	094f 07f9 06a2 0534 062d 044c 037a 0329     O.....4.-.L.z.).
   1e9d0:	0367 028b 01d2 019d 01d6 000d ff1d fee2     g...............
   1e9e0:	fdb7 fc1a fb35 fb27 fa51 f9dc fa55 fb71     ....5.'.Q...U.q.
   1e9f0:	fb95 fc7b fd7d fe2c fe04 fe52 fe37 fd71     ..{.}.,...R.7.q.
   1ea00:	fc43 fb86 fa0c f875 f729 f66b f5a2 f51f     C.....u.).k.....
   1ea10:	f55a f66e f76b f90e fb8c fe23 00a0 0360     Z.n.k.....#...`.
   1ea20:	060d 084c 0a23 0b85 0d04 0c25 0d31 0ca6     ..L.#.....%.1...
   1ea30:	0b0d 0ad9 095d 081d 06ef 05c8 0598 0487     ....]...........
   1ea40:	02f0 03bd 02af 02a5 0196 015a 011e 0056     ..........Z...V.
   1ea50:	fe92 fef1 fd3e fbe7 fb4f faca fa33 f9cb     ....>...O...3...
   1ea60:	fa0b fadd fb4b fc1b fd03 fd99 fde3 fde3     ....K...........
   1ea70:	fdff fd87 fc94 fb6c fa73 f915 f7f5 f6fd     ......l.s.......
   1ea80:	f62b f5d6 f5c2 f68f f791 f8af fb35 fd83     +...........5...
   1ea90:	0005 027b 053b 079b 093d 0ab8 0c37 0c77     ..{.;...=...7.w.
   1eaa0:	0caf 0cc9 0b80 0ac0 09fd 0833 0769 0692     ..........3.i...
   1eab0:	052a 0572 03b7 03b2 02bd 02f0 0222 01a2     *.r........."...
   1eac0:	012a 00b6 ff97 fe92 fdcf fc68 fb69 faa5     *.........h.i...
   1ead0:	fa26 f9b0 f9d6 fa35 faec fb8e fc8f fd68     &.....5.......h.
   1eae0:	fdf3 fdf7 fe25 fe20 fd39 fc64 fb82 fa2a     ....%. .9.d...*.
   1eaf0:	f8a7 f7a0 f6a7 f60c f595 f5f0 f703 f7f1     ................
   1eb00:	f99a fbf2 fe3d 0102 0375 05fb 0845 09d6     ....=...u...E...
   1eb10:	0b47 0beb 0c8d 0c3e 0c34 0ad5 0a5a 0941     G.....>.4...Z.A.
   1eb20:	07b0 0704 0574 0513 04c1 0319 0310 0251     ....t.........Q.
   1eb30:	026b 0119 00e4 0057 ffc8 fe7a fde9 fd00     k.....W...z.....
   1eb40:	fbe6 faa6 fa57 f9f6 f97b f990 fa20 faa3     ....W...{... ...
   1eb50:	fb42 fc41 fd10 fd85 fd6d fdd7 fd9b fc95     B.A.....m.......
   1eb60:	fb9a faec f9a1 f874 f75d f6e2 f66b f668     ......t.]...k.h.
   1eb70:	f729 f82f f96c fb4b fdc6 ffca 0282 0480     )./.l.K.........
   1eb80:	06f4 08d5 0a34 0b3e 0c27 0be3 0b4d 0b8a     ....4.>.'...M...
   1eb90:	0a78 0943 0858 07b4 0632 0509 0494 0429     x.C.X...2.....).
   1eba0:	034e 02a6 0290 023c 0176 00fe 00a9 fff2     N.....<.v.......
   1ebb0:	febe fdcb fd5b fc10 faf7 fa53 f9fd f947     ....[.....S...G.
   1ebc0:	f951 f9cb fa1f fa95 fbc2 fcb3 fd00 fd5b     Q.............[.
   1ebd0:	fde3 fddf fd52 fcd1 fc22 fb0a f9e0 f965     ....R...".....e.
   1ebe0:	f8aa f7ed f795 f809 f87c f98d fb19 fd11     ........|.......
   1ebf0:	fee3 00ee 0340 0530 06dc 08bc 09d9 0a6c     ....@.0.......l.
   1ec00:	0b15 0aed 0aeb 0a8f 09a3 0906 07c6 076e     ..............n.
   1ec10:	062e 0589 04f4 044e 03d6 0323 024b 022f     ......N...#.K./.
   1ec20:	0196 009e fffd ff09 fea8 fd35 fccb fc07     ..........5.....
   1ec30:	fb0a f9f8 fa01 f9be f98b f9cf faaa fb21     ..............!.
   1ec40:	fbb4 fcc4 fd86 fda4 fe23 fe70 fe12 fd95     ........#.p.....
   1ec50:	fd2a fcb6 fb80 facc fa51 f9b1 f953 f96c     *.......Q...S.l.
   1ec60:	f9e9 fa73 fb49 fcef fe9a 0053 0242 0407     ..s.I.....S.B...
   1ec70:	05f5 0742 08a1 091f 0a3f 0a22 0a1b 09f2     ..B.....?.".....
   1ec80:	0964 08b7 07d5 06fa 0689 053b 04f2 045a     d.........;...Z.
   1ec90:	03a5 0388 022d 0246 017c 0137 0007 ffb9     ....-.F.|.7.....
   1eca0:	ff04 fe4d fd17 fcd1 fbf1 fafc fa87 fa47     ..M...........G.
   1ecb0:	f9f0 f9ae fa25 facf fb1c fbe1 fcef fd3c     ....%.........<.
   1ecc0:	fdd3 fe49 fe97 fe3d fd99 fd61 fcb7 fbcc     ..I...=...a.....
   1ecd0:	fb49 faed fa11 f9b9 fa13 fa22 fa83 fb69     I........."...i.
   1ece0:	fcd9 fe79 ffd2 0197 036b 04d4 0647 0795     ..y.....k...G...
   1ecf0:	0853 0929 09a1 09f9 0942 094a 08a8 079a     S.).....B.J.....
   1ed00:	076a 0663 05d9 0472 04b6 036f 02fe 029a     j.c...r...o.....
   1ed10:	01cf 00cf 002c 0028 fec4 fe2e fd8d fcf7     ....,.(.........
   1ed20:	fbe1 fbb0 fb00 faa1 fa15 fa43 fa34 fa6c     ..........C.4.l.
   1ed30:	faa4 fb43 fbf6 fc76 fd0e fda1 fe11 fe05     ..C...v.........
   1ed40:	fe21 fded fd87 fcff fc92 fc2f fb97 fb21     !........./...!.
   1ed50:	fb2c fb1f fb15 fbbf fc5d fd45 fe4d ffd5     ,.......].E.M...
   1ed60:	00fe 028b 03f1 0546 0698 06fb 088c 0889     ......F.........
   1ed70:	08e6 08da 0897 089f 07bc 074c 068b 05f5     ..........L.....
   1ed80:	0537 046a 043f 0356 0276 028d 0133 00cd     7.j.?.V.v...3...
   1ed90:	fff1 ff6b fe96 fdb4 fd98 fca5 fbfd fb7f     ..k.............
   1eda0:	fb25 fa77 fa54 fa3e fa60 fa99 fad4 fb42     %.w.T.>.`.....B.
   1edb0:	fbcb fc81 fd19 fd9c fe10 fdfd fe22 fe29     ............".).
   1edc0:	fde1 fda7 fccd fc8a fbe4 fbac fb8e fb93     ................
   1edd0:	fb7d fb8b fc6b fcf6 fe1d ff5b 0098 01a5     }...k.....[.....
   1ede0:	0312 047c 05c7 0677 0741 0839 0835 0874     ..|...w.A.9.5.t.
   1edf0:	0860 0884 0772 074e 0693 063a 04f4 04c2     `...r.N...:.....
   1ee00:	042e 03bd 0284 02c9 01f7 0102 005b 0029     ............[.).
   1ee10:	ff6f fde3 fddc fd34 fc5e fb6d fbc5 faef     o.....4.^.m.....
   1ee20:	fa7d fa47 fb06 fa93 fae9 fba0 fc11 fc2c     }.G...........,.
   1ee30:	fcd4 fd9d fdda fe01 fe6c fe46 fdbb fd9b     ........l.F.....
   1ee40:	fd71 fcd0 fc2c fbd2 fbb1 fb47 fb47 fb6b     q...,.....G.G.k.
   1ee50:	fbf7 fc80 fd31 fe61 ff74 00ca 01fe 039e     ....1.a.t.......
   1ee60:	047e 0587 06a2 0767 081a 0841 08c8 0893     ~.....g...A.....
   1ee70:	0835 07ca 075e 06a8 0622 055a 04cb 03c4     5...^...".Z.....
   1ee80:	0372 0290 01b9 019c 0062 ffdb fef5 fe90     r.......b.......
   1ee90:	fda2 fd01 fc89 fc16 fb6f fb3a fb28 fadd     ........o.:.(...
   1eea0:	faa0 fb0e fb55 fb8e fbc1 fc54 fcd4 fd12     ....U.....T.....
   1eeb0:	fd8f fdec fe0f fdff fe0c fe08 fdd6 fd91     ................
   1eec0:	fd5d fd13 fccc fc86 fc6a fc82 fc95 fce1     ].......j.......
   1eed0:	fd46 fdab fe71 ff66 0062 017b 0273 0389     F...q.f.b.{.s...
   1eee0:	04c3 0590 0672 0736 079a 080a 07d6 0834     ....r.6.......4.
   1eef0:	0829 07ae 0706 06b3 05f9 0537 0482 0427     ).........7...'.
   1ef00:	0319 0235 019e 010b 0009 ff26 fe98 fe3a     ..5.......&...:.
   1ef10:	fd1c fcd7 fc6c fc01 fb73 fb78 fb52 fb0c     ....l...s.x.R...
   1ef20:	faf6 fba2 fbdd fbd4 fc60 fc9f fce6 fd6d     ........`.....m.
   1ef30:	fdf0 fdec fdfd fe08 fe42 fdfa fd8e fd61     ........B.....a.
   1ef40:	fd1a fcc0 fc9f fca3 fc9f fc75 fcb9 fd0c     ..........u.....
   1ef50:	fd93 fe2a ff0d fff8 00d9 0211 032f 0457     ..*........./.W.
   1ef60:	04f6 061b 06d8 0717 07d0 07fe 0854 0780     ............T...
   1ef70:	07b0 0754 06c4 05c4 059f 04e1 03fd 0315     ..T.............
   1ef80:	0293 01bf 00db 004c ffcf ff2d fe7d fdec     ......L...-.}...
   1ef90:	fcfb fcdd fbfd fc30 fb90 fba4 fb3f fb40     ......0.....?.@.
   1efa0:	fb57 fb87 fb78 fbe3 fc4a fc4a fcb4 fcf7     W...x...J.J.....
   1efb0:	fd50 fd43 fda0 fdab fdb8 fdb1 fdda fd78     P.C...........x.
   1efc0:	fd4e fd05 fd06 fcf6 fcf5 fd00 fd10 fd4e     N.............N.
   1efd0:	fdbb fe1f fee5 ffa5 006d 01a8 0261 037b     ........m...a.{.
   1efe0:	04a1 0556 063e 06c9 075a 07a0 07c6 080e     ..V.>...Z.......
   1eff0:	0795 075d 070b 066d 0578 0515 0462 0392     ..]...m.x...b...
   1f000:	02d7 0268 0155 00a7 0015 ffa2 fe84 fe5e     ..h.U.........^.
   1f010:	fdf7 fd46 fc8b fc7d fc0f fb91 fb53 fb9b     ..F...}.....S...
   1f020:	fb63 fb32 fb5b fb67 fb8a fba3 fbf1 fc35     c.2.[.g.......5.
   1f030:	fc61 fcb7 fd14 fd46 fd90 fdbb fe04 fdef     a.....F.........
   1f040:	fdf4 fe03 fde7 fdba fdca fdfb fdd9 fdef     ................
   1f050:	fe26 fe70 fe9b ff19 ffc3 0049 00fa 01c5     &.p.......I.....
   1f060:	02ca 0374 0437 04c0 059a 0615 066c 06ab     ..t.7.......l...
   1f070:	06e5 06fe 06dd 0680 0607 05c7 050e 04e6     ................
   1f080:	0391 0320 028b 01e5 00e9 000d ffc8 ff40     .. ...........@.
   1f090:	fe71 fe14 fdf8 fcd1 fcbb fc63 fc29 fb70     q.........c.).p.
   1f0a0:	fb60 fb59 fb20 fad6 fb35 fb51 fb52 fb91     `.Y. ...5.Q.R...
   1f0b0:	fbf9 fc67 fc94 fcfc fd42 fda2 fdae fe2a     ..g.....B.....*.
   1f0c0:	fe23 fe5f fe81 fecd fecb fecd fef3 fee7     #._.............
   1f0d0:	fefc feff ff0a ff30 ff61 ff92 0029 0090     ......0.a...)...
   1f0e0:	00c6 0167 0227 02c3 0340 03fc 0482 04e4     ..g.'...@.......
   1f0f0:	0584 05e7 05f9 064b 0670 065b 0601 055d     ......K.p.[...].
   1f100:	056c 04f8 0407 0395 0316 0207 0180 00af     l...............
   1f110:	0047 ff3a feb4 fe6e fdbe fd2d fd0a fcc7     G.:...n...-.....
   1f120:	fc3b fc25 fb95 fbb2 fb81 fb88 fb9e fbbb     ;.%.............
   1f130:	fbb7 fbea fc48 fc78 fca5 fcbb fd36 fd54     ....H.x.....6.T.
   1f140:	fda8 fdb0 fe32 fe54 fe76 fe84 ff05 fef7     ....2.T.v.......
   1f150:	fede ff6b ff87 ff41 ff5f fffa 0029 0015     ..k...A._...)...
   1f160:	0082 00f9 00f8 01a4 0211 0265 02b2 0348     ..........e...H.
   1f170:	03e6 040d 0439 04a7 0505 0501 0511 0555     ....9.........U.
   1f180:	052e 04e7 04d9 0468 041f 0385 02f3 028a     ......h.........
   1f190:	01fd 013a 00b6 0029 ffc9 ff2d fe9d fe8e     ..:...)...-.....
   1f1a0:	fe3d fd9a fdc8 fd75 fd3a fcc0 fcbc fcc4     =.....u.:.......
   1f1b0:	fc43 fc43 fc3a fc55 fc5b fc95 fcd6 fd16     C.C.:.U.[.......
   1f1c0:	fd14 fd60 fdaf fda6 fdb0 fe0c fe39 fe47     ..`.........9.G.
   1f1d0:	fe64 fe89 feed ff19 ff60 ffa7 ffc2 0006     d.......`.......
   1f1e0:	0049 009c 00c7 0115 0158 01a6 01b2 01dd     I.......X.......
   1f1f0:	021e 0228 0253 02a8 02a2 02bc 02d1 031c     ..(.S...........
   1f200:	0303 0330 039d 039c 0348 034d 039e 034b     ..0.....H.M...K.
   1f210:	02f8 02a3 0252 01b5 0176 012c 00c3 000f     ....R...v.,.....
   1f220:	ffd8 ff79 fee2 feb8 feb7 fe80 fe28 fe41     ..y.........(.A.
   1f230:	fe61 fe48 fdf3 fe3b fe06 fdce fd8e fd9b     a.H...;.........
   1f240:	fd64 fd0d fd31 fd47 fd21 fccc fd33 fd51     d...1.G.!...3.Q.
   1f250:	fd88 fd88 fe3b fe75 fe2d fe91 ff2c ff76     ....;.u.-...,.v.
   1f260:	ff33 ffb2 ffb8 ffd4 ff8c 0014 0023 ffff     3...........#...
   1f270:	0005 007f 00e0 00d6 0120 0170 01aa 01aa     ........ .p.....
   1f280:	0207 022b 0234 022f 025d 0266 024d 0245     ..+.4./.].f.M.E.
   1f290:	0250 023d 0223 0237 0226 0241 01ea 01ed     P.=.#.7.&.A.....
   1f2a0:	01b5 019a 0115 0129 00e8 0050 0047 0025     ......)...P.G.%.
   1f2b0:	ffd2 ff6b ff46 ff50 ff6e febb ff16 fee5     ..k.F.P.n.......
   1f2c0:	fecb fe89 fef3 fe80 fe58 fe69 fe73 fe3b     ........X.i.s.;.
   1f2d0:	fdb3 fe39 fdda fd9d fd77 fe1f fdf5 fdc8     ..9.....w.......
   1f2e0:	fde8 fe71 fe45 fe5b ff0a ff1b fef1 ff07     ..q.E.[.........
   1f2f0:	ffba ffb1 ffb0 ffcf 002f ffe7 ffed 0053     ......../.....S.
   1f300:	004a 005f 005f 0099 00b4 009c 00ad 0108     J._._...........
   1f310:	0109 0120 0156 0176 014d 013f 01a8 01c5     .. .V.v.M.?.....
   1f320:	0171 019b 01c3 0189 0183 01c7 01cf 017a     q.............z.
   1f330:	0162 0161 0104 00a1 00a9 00b8 004a 001f     b.a.........J...
   1f340:	ffed ff88 ff84 ff3c ff1c fee0 feda feea     ......<.........
   1f350:	ff06 fee7 ff00 ff1c ff3c ff49 ff49 ff5f     ........<.I.I._.
   1f360:	ff7a ff33 ff16 ff1c fed4 feae fe96 fe62     z.3...........b.
   1f370:	fe28 fe26 fe1e fdd3 fe0e fe6a fe85 febc     (.&.......j.....
   1f380:	feff ff1b ff5d ffa4 fff3 0016 0044 0073     ....].......D.s.
   1f390:	0085 0094 00cd 00c3 00d3 00ea 0097 00be     ................
   1f3a0:	00b5 0119 00f7 0109 011e 012e 00dc 0115     ................
   1f3b0:	016d 014d 0155 013e 015d 0125 0133 015d     m.M.U.>.].%.3.].
   1f3c0:	0174 0137 011f 0124 0129 00d5 00ca 009d     t.7...$.).......
   1f3d0:	008c 0072 0037 0036 fffc ffcb ff98 ffb7     ..r.7.6.........
   1f3e0:	ff66 ff6f ff59 ff53 ff6f ff6c ff3b ff60     f.o.Y.S.o.l.;.`.
   1f3f0:	ffa8 ff88 ff3b ff77 ffcf ff82 ff69 ff95     ....;.w.....i...
   1f400:	ff72 ff2f ff29 ff58 ff4d ff2d fef7 ff48     r./.).X.M.-...H.
   1f410:	ff5b ff27 ff20 ff57 ff65 ff46 ff99 ff8e     [.'. .W.e.F.....
   1f420:	ffa8 ffa0 ffd5 0014 0030 002a 004c 004f     ........0.*.L.O.
   1f430:	0094 00ba 0095 00d5 00d7 00b7 00bf 00f7     ................
   1f440:	00e7 00f8 00e1 00e1 00ca 00c8 00db 00e3     ................
   1f450:	00ef 00dc 00f1 00e5 00ec 00d4 00b8 00cd     ................
   1f460:	00c9 009f 0090 00bb 00e6 0068 0037 007b     ..........h.7.{.
   1f470:	0054 ffe7 0008 003d ffcd ff9d ffec ffd7     T.....=.........
   1f480:	ff92 ffbd ffa5 ffa4 ff85 ff70 ff7e ff90     ..........p.~...
   1f490:	ff6d ff52 ff46 ff3a ff28 ff36 ff27 ff15     m.R.F.:.(.6.'...
   1f4a0:	ff19 ff33 ff30 ff17 ff5c ff64 ff45 ff76     ..3.0...\.d.E.v.
   1f4b0:	ff7d ff7f ff90 ffb4 ffed ffe3 ffc1 ffe8     }...............
   1f4c0:	0030 fff3 ffd9 0007 0031 0035 003b 0079     0.......1.5.;.y.
   1f4d0:	0076 0056 0067 00a8 00ae 0091 0078 0099     v.V.g.......x...
   1f4e0:	00b9 007e 0052 008c 0093 0075 0074 00b0     ..~.R.....u.t...
   1f4f0:	0094 0073 007b 00ae 005b 0026 0076 008e     ..s.{...[.&.v...
   1f500:	0018 ffc1 0025 002b ffde ffa4 ffde ffda     ....%.+.........
   1f510:	ff7a ff63 ffd0 ffa3 ff51 ff76 ffb0 ff6c     z.c.....Q.v...l.
   1f520:	ff4f ff8d ff9d ff7f ff5a ff91 ffc2 ff98     O.......Z.......
   1f530:	ff72 ffbd ffab ff7b ffa8 fff3 ffdb ff9a     r.....{.........
   1f540:	ffd3 0016 ffe8 ffb4 fffd 0007 ffd0 ffe2     ................
   1f550:	0022 0000 ffa9 ffc5 001b 0017 ffec 0038     ".............8.
   1f560:	007b 0048 0029 0072 006e 002a 0018 0088     {.H.).r.n.*.....
   1f570:	0057 fff1 002f 0052 0027 ffe1 0031 0019     W.../.R.'...1...
   1f580:	ffd7 ffc0 0006 0029 ffd9 ffbf ffcd ffed     ......).........
   1f590:	ffd2 ffdf 0013 ffeb ffd6 0008 002a ffef     ............*...
   1f5a0:	ffe8 0014 0018 000c fffe ffee ffd5 ffca     ................
   1f5b0:	ffc9 ffe2 ffd8 ffa1 ff8f ff9d ff94 ff65     ..............e.
   1f5c0:	ff9e ffe5 fffd fff0 0003 fffa ffec 0007     ................
   1f5d0:	0019 000c ffda ffe2 fff1 ffe3 ffb9 ffad     ................
   1f5e0:	ff9f ffae ff9a ffa2 ff9d ffc7 ffe0 ffd3     ................
   1f5f0:	ffe0 000d 0003 fffa 0033 003a 0028 001e     ........3.:.(...
   1f600:	0026 0019 002f 0038 0044 000c 0010 0015     &.../.8.D.......
   1f610:	0014 001a 0016 0013 ffff 0010 0026 004a     ............&.J.
   1f620:	002f 0033 004f 0058 0039 003a 001a 0006     /.3.O.X.9.:.....
   1f630:	0018 000b 0012 002e 0033 000a 0004 0016     ........3.......
   1f640:	0017 fffd 0008 fff7 ffe5 ffda ffc9 ffd3     ................
   1f650:	ffd3 ffb2 ff94 ff9c ff87 ff85 ff9d ffaf     ................
   1f660:	ffc5 ffe7 0007 0016 002a 0046 004f 004a     ........*.F.O.J.
   1f670:	0058 004e 0042 0055 0057 0037 001d 0018     X.N.B.U.W.7.....
   1f680:	0010 ffed 0004 0003 ffea fffb 0013 002b     ..............+.
   1f690:	0024 000c 000f 0027 002b 0021 001b 001d     $.....'.+.!.....
   1f6a0:	0002 0015 0039 0022 0034 0048 0037 001f     ....9.".4.H.7...
   1f6b0:	002b 0031 002a 001a 0003 0012 000c 0006     +.1.*...........
   1f6c0:	0011 0009 fff7 fffc 0007 fffb fff9 fff6     ................
   1f6d0:	fffe ffe9 ffb9 ffda 0011 0007 0008 002a     ..............*.
   1f6e0:	0021 001d 0034 004d 004a 003d 0059 0044     !...4.M.J.=.Y.D.
   1f6f0:	0036 0023 0026 0024 0019 001a 002a 000b     6.#.&.$.....*...
   1f700:	0002 fff7 0011 001e 0010 002a 0038 0044     ..........*.8.D.
   1f710:	0008 0021 0040 0015 000c 0003 fff5 ffe5     ..!.@...........
   1f720:	ffd9 ffe3 fff2 ffd7 ffd8 0001 0028 0019     ............(...
   1f730:	002d 0049 0051 0050 003a 0036 003b 0020     -.I.Q.P.:.6.;. .
   1f740:	000e 002c 0020 0011 000d 0002 0001 ffe7     ..,. ...........
   1f750:	ffee 0002 0004 fff3 fffa 0005 fffd ffef     ................
   1f760:	fff5 ffda ffc0 ffc9 ffac ffac ffc0 ffd2     ................
   1f770:	ffcf ffc0 ffb3 ffbb ffd3 ffe6 ffe7 0004     ................
   1f780:	fff7 fff9 0008 000d 0019 0001 fff8 fff5     ................
   1f790:	ffea ffe6 ffec fff1 ffec ffee ffe3 ffd9     ................
   1f7a0:	ffcf ffc1 ffc2 ffcd ffdc ffd9 ffcc ffb5     ................
   1f7b0:	ffc2 ffcd ffc7 ffd3 fff8 0004 ffef fff4     ................
   1f7c0:	0001 fffa fff5 ffeb 0002 0018 0005 ffe7     ................
   1f7d0:	ffe7 fff5 0011 0016 000a fff6 ffe4 ffef     ................
   1f7e0:	ffe9 ffea ffe5 ffec fff4 fff1 ffea ffe7     ................
   1f7f0:	fff2 fffc ffef ffe6 ffde ffef ffe8 ffd6     ................
   1f800:	ffe9 ffee fff0 fff7 ffea ffdf ffe6 ffe3     ................
   1f810:	ffe6 ffe3 ffca ffcb ffd3 ffef ffd9 ffd5     ................
   1f820:	ffd2 ffe0 ffee ffdf ffdf ffea fff0 fff9     ................
   1f830:	ffea fff0 fff0 ffe4 ffd8 ffd1 ffdb ffce     ................
   1f840:	fff7 fff7 ffe6 fff0 fff1 fff9 0005 0006     ................
   1f850:	0004 ffff 0005 0011 001a 0027 001d 001a     ..........'.....
   1f860:	fff5 fff4 0009 001d 0017 0020 0026 001c     .......... .&...
   1f870:	0008 0000 0022 0016 0004 000f 0029 0011     ....".......)...
   1f880:	ffff fff6 fff8 0014 0015 0022 0015 0018     ..........".....
   1f890:	0003 000a 0008 fffe fffe 0007 fff4 ffdf     ................
   1f8a0:	ffe8 ffed fff4 ffd8 ffdf ffe7 fff0 fff7     ................
   1f8b0:	ffe5 ffe9 ffe3 ffe6 ffe6 fff3 ffff fff3     ................
   1f8c0:	000b 0011 0029 002a 0023 002c 0041 004e     ....).*.#.,.A.N.
   1f8d0:	003b 0039 0048 0046 004d 0057 0045 003c     ;.9.H.F.M.W.E.<.
   1f8e0:	0041 003d 0024 0024 0020 0014 000c 0021     A.=.$.$. .....!.
   1f8f0:	0024 0024 002d 0022 0014 fff7 fff2 0011     $.$.-.".........
   1f900:	0019 0025 001e 0016 000e fff4 0010 0027     ..%...........'.
   1f910:	0026 0032 0013 ffe8 0000 ffec ffd8 ffe4     &.2.............
   1f920:	ffe1 ffdf ffe0 fffa ffe4 ffd4 ffe1 0001     ................
   1f930:	fffe 0002 ffee fff3 000d ffff fff8 000f     ................
   1f940:	0017 fff6 0010 000d 000a 000d 0014 000b     ................
   1f950:	0014 0018 0014 002d 001b 0017 0020 000a     ......-..... ...
   1f960:	000e 0013 001d 0027 0023 0031 002c 0019     ......'.#.1.,...
   1f970:	0023 0040 004c 003c 0037 003a 0042 0035     #.@.L.<.7.:.B.5.
   1f980:	0029 001e 0006 0008 001e 0029 001f 0016     ).........).....
   1f990:	0009 fffc fff2 fff5 fff6 ffeb ffd9 ffcd     ................
   1f9a0:	ffe0 fff2 fff0 fff8 ffe8 ffe1 fff2 ffe7     ................
   1f9b0:	ffdf fffe 001d 0006 0003 000d fff4 fff9     ................
   1f9c0:	0010 000c 0001 000b 0008 001a 0028 001f     ............(...
   1f9d0:	001c 001a 001c 0025 0035 001f 000e 0005     ......%.5.......
   1f9e0:	0011 002b 0034 0011 0005 fff9 fffb 0007     ..+.4...........
   1f9f0:	0012 0001 fff3 ffe6 ffd9 ffe8 fff3 ffe8     ................
   1fa00:	ffc4 ffcf ffc7 ffbe ffb5 ffbe ffcd ffc9     ................
   1fa10:	ffb8 ffbe ffcb ffcb ffd3 ffd4 ffcc ffd3     ................
   1fa20:	ffc5 ffb1 ffad ffca ffd3 ffde ffdb ffd2     ................
   1fa30:	fff4 ffe0 ffda ffde ffec fff8 ffed ffec     ................
   1fa40:	ffe2 ffea ffe9 0006 0014 0002 0008 000e     ................
   1fa50:	0014 000e 000e 001d 001d 000f 002b 002f     ............+./.
   1fa60:	0021 fff6 ffff 0021 002a 0013 0027 002d     !.....!.*...'.-.
   1fa70:	001a 0005 fff7 0000 ffe5 ffef ffeb ffe7     ................
   1fa80:	ffdf ffd7 ffd5 ffc8 ffd5 ffcf ffdc ffdd     ................
   1fa90:	fff1 fff0 ffe9 ffe3 ffe1 fff2 ffe9 ffe2     ................
   1faa0:	ffe6 ffec fffb ffff ffef ffde ffdd ffc9     ................
   1fab0:	ffca ffcd ffd1 ffe3 ffe8 fffb fff9 fff7     ................
   1fac0:	ffe2 ffed 0005 ffff fff6 ffef ffff 0011     ................
   1fad0:	000d 0014 001e 000a ffee ffed 0006 0005     ................
   1fae0:	fff3 fff0 ffd6 ffe1 ffee ffe4 ffdc ffcd     ................
   1faf0:	ffe9 ffe4 ffd9 ffd3 ffce ffcf ffd3 ffcd     ................
   1fb00:	ffcd ffa8 ffb7 ffd1 ffc2 ffc7 ffd6 ffdb     ................
   1fb10:	ffcc ffd4 ffd2 ffc7 ffb3 ffc6 ffe2 ffe8     ................
   1fb20:	ffd9 ffd2 ffcb ffc4 ffcd ffc8 ffd9 ffe9     ................
   1fb30:	ffe4 ffdb fffb 000e ffff 0006 0004 000e     ................
   1fb40:	0030 002f 0033 0044 0042 0046 003e 0056     0./.3.D.B.F.>.V.
   1fb50:	0057 0049 004e 0053 0063 0054 0040 0038     W.I.N.S.c.T.@.8.
   1fb60:	0034 0035 0055 0064 004f 002d 0032 003e     4.5.U.d.O.-.2.>.
   1fb70:	0056 0035 002e 0045 004b 003f 0021 0016     V.5...E.K.?.!...
   1fb80:	0010 0035 004f 0064 0048 001b 001c 000b     ..5.O.d.H.......
   1fb90:	002d 0054 004c 0043 0034 001d 001f 003f     -.T.L.C.4.....?.
   1fba0:	004a 002f 002c 0026 001f 0000 fffe 0019     J./.,.&.........
   1fbb0:	000d 001e 0016 0007 0000 ffe9 000d 0003     ................
   1fbc0:	0004 000a 0007 fffd fffd 000f 000a 0006     ................
   1fbd0:	fff6 fff8 ffd7 ffe3 0004 fffd fff5 fff0     ................
   1fbe0:	ffbf ffd0 000b 000b 0033 0002 fff8 0007     ........3.......
   1fbf0:	ffe6 fff4 fffc ffdf 0001 0015 ffc1 ffee     ................
   1fc00:	ffe8 ffe6 fff7 ffc1 ffbb ffeb ffd9 ffb6     ................
   1fc10:	ffea ffd6 ffdb ffe6 ffef ffe9 ffe0 ffec     ................
   1fc20:	fff8 ffe5 ffed ffff fff0 ffe9 0008 0008     ................
   1fc30:	fff4 fff0 fff7 0003 fff6 0017 fff3 ffed     ................
   1fc40:	fff4 ffca ffe7 0000 000e 0021 000f fffe     ..........!.....
   1fc50:	0014 0021 000f 000e 001a 0006 002a 0046     ..!.........*.F.
   1fc60:	0022 0009 000f 0012 000e 0027 002d 000f     ".........'.-...
   1fc70:	fff5 0023 0038 003c 003a 0023 0018 0041     ..#.8.<.:.#...A.
   1fc80:	0028 003b 002a 001b 0052 004b 0059 004b     (.;.*...R.K.Y.K.
   1fc90:	0033 002f 0053 005b 0048 0037 002c 0020     3./.S.[.H.7.,. .
   1fca0:	003f 0035 0007 fff3 fff2 fff9 000e fffe     ?.5.............
   1fcb0:	ffd8 fff7 ffd1 ffe5 0006 ffe5 ffee ffe6     ................
   1fcc0:	ffd1 ffe4 0015 0028 001f fff3 ffd3 fff4     ......(.........
   1fcd0:	ffeb ffba ffcd ffb5 ffb8 ffbd ffbf ffa9     ................
   1fce0:	ffb1 ffc6 ffa5 ff95 ffa4 ff93 ffae ffd2     ................
   1fcf0:	ffc3 ffc1 ffcc ffbf ffaa ffbf ffe0 ffd2     ................
   1fd00:	ffc9 ffe6 ffe8 ffda ffce ffd8 000e 000c     ................
   1fd10:	fff2 ffe8 fff2 ffd6 ffea 0012 ffe2 fff4     ................
   1fd20:	fff9 0003 fffc fff6 fff2 0005 0002 fff0     ................
   1fd30:	fff4 fff8 000c 001e 001a 0009 0029 003d     ............).=.
   1fd40:	0039 0030 0038 0044 0023 0018 0023 000c     9.0.8.D.#...#...
   1fd50:	0009 0015 ffeb ffed fff0 fff4 ffe3 fff6     ................
   1fd60:	fff6 ffe7 0009 fffb ffff fff9 ffce fff9     ................
   1fd70:	000b 001c 001f 0003 ffe1 ffe5 0000 ffee     ................
   1fd80:	ffce ffe8 ffdf ffdc fff5 fffe fff2 ffd8     ................
   1fd90:	ffd2 fff7 001b 0003 ffd8 ffde ffbf ffc2     ................
   1fda0:	ffce ffd5 ffd0 ffda ffec ffd7 ffdf ffd5     ................
   1fdb0:	ffe5 ffe0 ffd6 ffc1 ffd3 ffef ffd3 ffd5     ................
   1fdc0:	ffc8 ffc4 ffe7 ffcb ffc8 ffeb ffc7 ffb1     ................
   1fdd0:	ffbf ffe9 ffea ffe0 ffcd ffc6 ffd1 ffe0     ................
   1fde0:	ffe3 ffd9 ffda ffeb 0004 000a 0008 001f     ................
   1fdf0:	0027 0010 001f 0019 0024 0031 0018 0029     '.......$.1...).
   1fe00:	003d 0034 0042 0059 007e 008a 007d 007d     =.4.B.Y.~...}.}.
   1fe10:	006f 0053 0068 0070 0057 006c 0070 0068     o.S.h.p.W.l.p.h.
   1fe20:	0075 0051 004b 005b 0049 0052 0048 0032     u.Q.K.[.I.R.H.2.
   1fe30:	0039 0039 0021 0025 0035 0025 0024 0029     9.9.!.%.5.%.$.).
   1fe40:	0030 0008 0019 0041 0028 002c 0017 0014     0.....A.(.,.....
   1fe50:	0024 0048 004b 002b 003e 0047 0027 003c     $.H.K.+.>.G.'.<.
   1fe60:	0054 0049 003c 002e 000f 000b 000a 0005     T.I.<...........
   1fe70:	000a fff7 fffe 0008 fffd fffa ffe3 0003     ................
   1fe80:	001a 0002 0008 ffee ffff 0004 ffe9 ffdb     ................
   1fe90:	ffe4 ffee ffed fff9 ffdc fff1 fffa ffde     ................
   1fea0:	ffe9 ffe7 ffee fff3 fffa 000d 001f 0020     .............. .
   1feb0:	fff6 ffef 0006 fff4 000f 000c ffd6 ffe4     ................
   1fec0:	ffea ffe5 ffef ffee ffdb ffee ffe1 ffe0     ................
   1fed0:	ffe5 ffe4 fffd 0003 ffe5 ffe6 ffee ffe4     ................
   1fee0:	ffe0 ffcb ffca ffe9 000d 001d 0005 0000     ................
   1fef0:	000b 0018 fff1 ffe9 ffe6 ffdf ffe2 fff2     ................
   1ff00:	ffef fff0 ffeb fffd 000e 0003 0027 0021     ............'.!.
   1ff10:	fffc 0001 002a 0034 0045 002d 0022 001a     ....*.4.E.-."...
   1ff20:	0015 0024 001e 0017 0013 0015 fff9 ffec     ..$.............
   1ff30:	001b fffb ffec 0000 ffe9 fff3 fff0 ffe2     ................
   1ff40:	fff5 fff1 ffdf ffe6 fff8 ffe7 ffdf fff2     ................
   1ff50:	ffe9 ffdb ffef fffc fff0 ffc7 ffca ffe6     ................
   1ff60:	ffdf ffc5 ffba ffbe ffbf ffe3 fffb fff2     ................
   1ff70:	fffd fff5 fff2 fff0 fff9 ffe6 ffeb ffe6     ................
   1ff80:	ffc3 ffc9 ffd3 ffe9 fff1 ffdf ffda ffe3     ................
   1ff90:	ffea ffe8 fff2 ffe7 ffbc ffce ffe3 ffd5     ................
   1ffa0:	ffdf ffdc ffe5 ffdb ffdf 0002 0003 fff8     ................
   1ffb0:	ffe8 ffed ffef ffe6 fff3 ffd0 ffcc ffdd     ................
   1ffc0:	fff3 ffe4 ffd2 fff0 ffc9 ffc3 ffdb ffdc     ................
   1ffd0:	ffc1 ffc1 ffca ffc6 ffad ffce ffee ffef     ................
   1ffe0:	ffdf fff6 fffa 0008 0011 0002 0011 0017     ................
   1fff0:	fff7 ffe9 000a 000d fff4 fffd fff2 ffe1     ................
   20000:	ffea fff5 001d 0019 fff7 fff6 fffb fffb     ................
   20010:	001a 0019 000b 0013 0012 0011 0014 001d     ................
   20020:	0004 0019 0018 fffa ffec ffff ffff fff3     ................
   20030:	fff4 ffee fffe fff4 ffc5 ffb7 ffb8 ffd2     ................
   20040:	ffde ffdb ffd3 ffc8 ffd7 ffe4 ffea ffdb     ................
   20050:	ffd3 fff5 fff0 ffe6 ffe2 fff8 0013 ffef     ................
   20060:	ffe7 fff5 fff6 fffd fffc fff8 fff9 001b     ................
   20070:	0025 0032 0032 002d 005a 004e 0032 002e     %.2.2.-.Z.N.2...
   20080:	003f 0045 005b 0077 0049 003b 0038 002b     ?.E.[.w.I.;.8.+.
   20090:	0035 0037 0033 003f 0051 0053 003a 003b     5.7.3.?.Q.S.:.;.
   200a0:	0050 0059 005d 004b 003d 002f 003d 0046     P.Y.].K.=./.=.F.
   200b0:	0043 002d 0034 005e 004f 001e 0033 0035     C.-.4.^.O...3.5.
   200c0:	002c 002f 002c 002c 0022 002a 002f 001c     ,./.,.,.".*./...
   200d0:	0019 0022 fff5 000e 003c 0027 0016 0003     ..".....<.'.....
   200e0:	fff8 0019 002b 0039 002a 0001 fff7 ffeb     ....+.9.*.......
   200f0:	0001 000c 0007 0008 000e fffd 0000 0007     ................
   20100:	000e 0019 0014 001b 0007 0007 0007 fff8     ................
   20110:	000a 001c fffd ffdd ffe3 ffdc ffed 0005     ................
   20120:	fffa fff5 fffd fff8 0001 0007 fff0 ffd3     ................
   20130:	ffe0 0007 fff2 ffe0 ffd1 ffc5 ffd9 ffe9     ................
   20140:	ffc6 ffc3 fff3 0006 fff5 fffa 0006 fffa     ................
   20150:	fff7 ffef ffff 000f 0001 ffeb ffdf ffed     ................
   20160:	0008 0009 fff4 0007 0007 000d 000b fffd     ................
   20170:	0009 000d 0007 0012 0004 0016 001a 0004     ................
   20180:	0008 000e 000e 000b 001e 002e 0025 001a     ............%...
   20190:	0020 0026 000d 0002 fff9 fff8 0005 0005      .&.............
   201a0:	0005 0002 000e fffc ffe7 fff3 000d 0003     ................
   201b0:	ffdb ffce ffc4 ffec 0001 ffdc ffd4 ffc1     ................
   201c0:	ffb5 ffc8 ffc8 ffce ffda ffde ffd3 ffd4     ................
   201d0:	ffd5 fff0 000b ffe6 ffd8 ffef fff4 fffa     ................
   201e0:	ffed ffd8 fff5 ffee ffde ffce ffdf fff1     ................
   201f0:	ffe5 ffd9 ffbc ffbc ffd1 fffa ffd9 ffae     ................
   20200:	ffbb ffcd ffd4 ffb0 ffac ffb5 ffc1 ffd4     ................
   20210:	ffc4 ffbc ffda ffca ffbc ffde ffd6 ffef     ................
   20220:	0006 000d 0005 ffff 0015 000d 000e 0015     ................
   20230:	0003 000a fff6 ffde ffe5 fffd fff8 ffed     ................
   20240:	fff7 fff3 ffee 000b 001a 001b 0047 001f     ............G...
   20250:	ffe9 ffe5 fffa fffa 0007 000d 0002 ffde     ................
   20260:	ffee 0008 fff8 fffc 0006 fffe ffe9 ffdb     ................
   20270:	fffa 0006 0005 0001 ffe3 ffd9 fff1 ffe2     ................
   20280:	ffc7 ffe1 fffd fff5 ffea ffe0 ffe6 fff2     ................
   20290:	ffed ffe8 ffea fffb 0006 fff0 ffd2 ffd6     ................
   202a0:	ffd9 ffdf fff1 ffde ffda ffeb ffed ffec     ................
   202b0:	ffee ffeb 000e 0016 0002 ffe5 ffef ffe6     ................
   202c0:	0018 0022 0005 ffef ffec fff2 fff9 fff8     ..".............
   202d0:	fff8 fff4 fff6 000a fffa ffe5 0000 0032     ..............2.
   202e0:	0030 0003 ffee ffdd ffef 001b 001d 0006     0...............
   202f0:	fff8 fff7 000e 0016 0005 0002 0018 0017     ................
   20300:	0018 002f 001b 0019 002d 003c 0047 002e     ../.....-.<.G...
   20310:	001f 0020 0029 004d 0053 0033 0038 003c     .. .).M.S.3.8.<.
   20320:	0040 0045 0056 005d 0032 0047 0060 0054     @.E.V.].2.G.`.T.
   20330:	0056 0046 0049 002f 003f 0048 0047 004b     V.F.I./.?.H.G.K.
   20340:	0055 0058 004d 0043 002e 002e 003d 0037     U.X.M.C.....=.7.
   20350:	0036 003d 0050 0041 002c 0043 004b 0039     6.=.P.A.,.C.K.9.
   20360:	0025 0024 0036 0044 0037 003e 0047 003d     %.$.6.D.7.>.G.=.
   20370:	0025 000a fffc 0008 0028 0019 ffee ffe5     %.......(.......
   20380:	fffa fff4 ffe9 fff1 fff4 ffee ffd3 ffb4     ................
   20390:	ffb9 ffcd ffc5 ffc8 ffd2 ffd9 ffca ffda     ................
   203a0:	ffeb ffc9 ffb8 ffbb ffd2 ffe9 fff8 ffe8     ................
   203b0:	ffdb ffd4 ffd8 ffd9 ffec ffe8 ffd8 ffc3     ................
   203c0:	ffee ffed ffce 0003 fff4 ffea fff1 0002     ................
   203d0:	0014 0016 0006 0008 fffb ffff 0022 002f     ............"./.
   203e0:	0012 fff1 fff4 000d 000f 000b 000f 0015     ................
   203f0:	001e 0017 0011 000e fff8 ffe3 fff4 0007     ................
   20400:	fff1 0002 fff6 fff6 0003 fff7 fff5 fffa     ................
   20410:	ffde ffc7 ffd0 ffd1 ffd1 ffd6 ffdd ffe4     ................
   20420:	ffea fff1 ffe4 ffd6 ffeb ffdc ffcb ffd7     ................
   20430:	ffc3 ffbf fff6 0003 fffe 001c fffe fffa     ................
   20440:	0008 0026 0025 001f 0011 0008 0016 0026     ..&.%.........&.
   20450:	0009 ffe8 ffe3 ffe7 fff2 fff5 fff5 ffd5     ................
   20460:	ffd7 ffee ffe3 ffde fff7 fff3 ffd7 ffd8     ................
   20470:	ffc9 ffdb fffd fff6 ffe0 ffd6 ffd1 ffe9     ................
   20480:	0001 fff7 ffdc ffda ffea ffee fffb ffd7     ................
   20490:	ffc8 ffba ffbf ffc4 ffd1 ffea ffc7 ffcd     ................
   204a0:	ffec ffd9 ffdb ffe6 ffd0 ffe5 fff4 ffde     ................
   204b0:	ffeb 0004 0001 0002 fffc ffff fffe fff1     ................
   204c0:	fffb fff4 fffc 0011 000e 0010 0005 fffd     ................
   204d0:	fffe ffef ffea 0001 0004 fff6 0008 0013     ................
   204e0:	000b 000f 002c 0013 fffc 0024 004f 003e     ....,.....$.O.>.
   204f0:	002e 002f 001a 001e 0029 0017 0008 fffa     ../.....).......
   20500:	0003 fffd ffef ffd7 ffc7 ffe8 fff7 ffee     ................
   20510:	fff1 ffdf ffd4 0007 0002 ffd2 ffde ffec     ................
   20520:	ffe6 fff4 fffb 0003 ffe6 fff8 0006 0000     ................
   20530:	0002 0008 000c 0014 0009 ffe8 ffe4 ffe6     ................
   20540:	ffe0 ffe7 ffd6 ffdb ffdc ffcb ffd9 fff8     ................
   20550:	fff7 ffe2 ffff ffff ffed fff0 ffef fff8     ................
   20560:	ffff 0011 0007 fffc 000a 0011 0017 001c     ................
   20570:	002e 0037 002b 0020 0022 0019 0026 003c     ..7.+. ."...&.<.
   20580:	0041 001c 0006 000f 0013 0010 0024 0019     A...........$...
   20590:	000c 0033 0033 003e 003b 002c 003f 005e     ..3.3.>.;.,.?.^.
   205a0:	0046 001e 0029 003b 003f 004e 0056 0027     F...).;.?.N.V.'.
   205b0:	0014 0019 002a 000c 0015 0022 0004 fff5     ....*.....".....
   205c0:	fffe 000f fff3 ffef 000d 001d 001c 0018     ................
   205d0:	000c 0004 000a 001a 001d 0014 0009 0000     ................
   205e0:	0006 0005 fffc 0015 001a 0009 0006 0015     ................
   205f0:	0018 0010 001b 001e 002b 0032 0025 0027     ........+.2.%.'.
   20600:	001a 0021 004d 003a 001f 0024 0005 001e     ..!.M.:...$.....
   20610:	0024 0026 003a 0028 0027 0034 0022 fff9     $.&.:.(.'.4."...
   20620:	fff1 fffa 000b 0014 0002 fff3 0009 000b     ................
   20630:	0009 0009 ffff fffe fff9 fff5 ffeb ffeb     ................
   20640:	ffeb ffe6 ffe6 ffef ffee fff8 fff9 ffec     ................
   20650:	ffec ffe2 ffcc ffec fff1 ffe7 ffee ffd2     ................
   20660:	ffc0 ffd4 fff8 ffdf ffda ffdf ffd1 ffd9     ................
   20670:	ffd9 ffd9 ffe4 fffb fffe 0001 fff9 0001     ................
   20680:	0012 fffc fff9 ffff 0016 0006 fff9 fffb     ................
   20690:	0002 0003 ffed ffed ffed ffeb ffdf ffdd     ................
   206a0:	ffce ffc7 ffc6 ffd8 ffe7 fff6 ffdc ffd1     ................
   206b0:	ffdf fff1 0005 001f 0028 0007 000e 0015     ........(.......
   206c0:	000e 0009 001d 0002 000a 0011 0010 0011     ................
   206d0:	000b 0005 0004 0013 000c fff9 0004 0007     ................
   206e0:	ffe0 fffb 0013 fff8 ffea 0000 ffec fffc     ................
   206f0:	0009 000e 000c fffe fff7 0001 0018 0019     ................
   20700:	002c 0014 ffee ffee fff4 ffd3 ffca ffbe     ,...............
   20710:	ffb9 ffaf ffbc ffc8 ffc3 ffbf ffbd ffc7     ................
   20720:	ffe4 ffe4 fffb ffff ffeb ffd8 fff7 000b     ................
   20730:	fffc fffb ffe0 ffc6 ffce 000d 0000 ffe3     ................
   20740:	ffe2 fffb 000c 0021 001c ffe4 ffc5 ffd7     ......!.........
   20750:	ffed fff7 ffe5 ffce ffb9 ffbc ffc2 ffc4     ................
   20760:	ffd7 ffda ffe8 ffee ffe9 ffe0 ffc6 ffcd     ................
   20770:	ffd6 ffe7 ffeb ffe7 ffde ffa8 ffab ffce     ................
   20780:	ffeb ffee fffe fff3 fff7 0008 001d 0017     ................
   20790:	001a 001b 0008 000c fff7 ffdc fffc 0011     ................
   207a0:	ffef ffeb fff0 fff4 0016 0014 0021 0039     ............!.9.
   207b0:	001a fffd 000b 0018 0025 0019 fff6 000a     ........%.......
   207c0:	0017 0022 0021 002a 003b 0035 0016 0035     ..".!.*.;.5...5.
   207d0:	004d 0024 001d 004a 002a 000d 000c 000d     M.$...J.*.......
   207e0:	0027 0028 0010 0014 fffd ffee 000b 0007     '.(.............
   207f0:	fff4 fffc fff7 fff1 0000 0005 ffff fff6     ................
   20800:	fff4 fff0 fff1 0007 0002 0002 0019 ffff     ................
   20810:	0003 000d 0027 001a 0015 000d fff3 ffea     ....'...........
   20820:	fff3 0008 0020 0038 0025 0009 fff1 0022     .... .8.%.....".
   20830:	0023 0028 0023 001a 001b 0015 0024 0019     #.(.#.......$...
   20840:	000e 0022 0031 0029 0021 0027 001a 0024     ..".1.).!.'...$.
   20850:	0022 002d 0028 001c 002c 0042 0043 004c     ".-.(...,.B.C.L.
   20860:	0043 002c 0044 004a 0046 0042 0034 0023     C.,.D.J.F.B.4.#.
   20870:	0038 0029 0023 000f fffa fff8 000c 0004     8.).#...........
   20880:	0011 0001 ffeb fffd 0000 0011 0007 0000     ................
   20890:	0001 fff1 ffe7 ffff 0004 fffb fff6 0006     ................
   208a0:	fffa ffe4 fffd 0025 0029 0008 000b 0008     ......%.).......
   208b0:	0007 0006 0007 0019 000b 0016 0001 0000     ................
   208c0:	000d fffe fff1 fffd 0006 fff0 0008 0007     ................
   208d0:	fffb fffc 0008 fffe fffe 0009 fff9 fff2     ................
   208e0:	fffc ffde fffb 0012 0001 0002 0001 0003     ................
   208f0:	fffe 0000 fff7 fff3 fff9 ffdc ffd7 ffe5     ................
   20900:	ffe9 ffe1 ffde ffef 0009 0007 0000 ffff     ................
   20910:	ffec ffd0 ffd6 ffdf ffeb fff3 ffff 000b     ................
   20920:	0009 ffef ffea ffd9 ffec 000b fffe ffff     ................
   20930:	0001 fff4 ffe6 ffe6 fffa fffc ffec ffed     ................
   20940:	fffe fffd fffa ffeb ffe1 000e 000e 0010     ................
   20950:	0006 fff5 fff6 fff2 001c 0037 0010 0007     ..........7.....
   20960:	001e 0016 0008 001a 000e ffff fff7 0011     ................
   20970:	001d 0019 fff8 fff4 fff0 fffb 0008 0015     ................
   20980:	0013 0004 0008 fffc 0012 0024 0032 0016     ..........$.2...
   20990:	0010 0019 0017 0009 000f 0027 002e 000c     ..........'.....
   209a0:	fff4 ffe7 ffe7 ffef ffeb fff6 ffec ffd9     ................
   209b0:	ffd0 ffde ffe8 ffe2 ffdb ffcb ffc5 ffcb     ................
   209c0:	ffe6 ffe0 ffba ffaf ffba ffbc ffbf ffb4     ................
   209d0:	ff9d ff80 ff88 ffa1 ffa4 ffac ffad ff84     ................
   209e0:	ff81 ffbf ffdb ffb8 ffaf ffa3 ffaa ffbb     ................
   209f0:	ffc6 ffc1 ffac ffa6 ffc3 ffe4 fff5 ffe9     ................
   20a00:	ffdd ffcf ffcd ffbd ffcd ffea ffd4 ffca     ................
   20a10:	ffcc ffe6 ffe5 fff6 ffea fff8 fff5 fff0     ................
   20a20:	fff9 000f 0010 0014 0013 ffef fff2 0006     ................
   20a30:	000c 000e 0024 001d fffb 0012 002a 0026     ....$.......*.&.
   20a40:	0033 0033 0020 002c 0038 003b 002d 002e     3.3. .,.8.;.-...
   20a50:	0026 0036 0042 003f 0044 0031 001c 000d     &.6.B.?.D.1.....
   20a60:	0012 0025 0024 001e 0009 002a 0027 0023     ..%.$.....*.'.#.
   20a70:	fffe ffee 0015 0021 000e 0007 0005 fff3     ......!.........
   20a80:	fff1 000c 002d 0021 fff9 ffec fff8 0004     ....-.!.........
   20a90:	0016 000d 0016 0015 0001 0005 000f 0000     ................
   20aa0:	000e 0016 001a 002d 0042 003a 0032 0039     ......-.B.:.2.9.
   20ab0:	002a 003c 0049 004a 004a 0033 0035 001a     *.<.I.J.J.3.5...
   20ac0:	fffc 0010 0006 ffff ffff fffa fff1 ffee     ................
   20ad0:	fff9 0011 0011 0017 0011 fff7 fffd 0016     ................
   20ae0:	0005 000d 001d 000c 0007 0024 0029 0025     ..........$.).%.
   20af0:	0016 000b 0002 0010 001a 0019 0005 ffe1     ................
   20b00:	ffd8 ffef fffa 000f 001c 0006 0001 001f     ................
   20b10:	002e 002e 0034 0030 0030 0026 0030 002a     ....4.0.0.&.0.*.
   20b20:	002a 002a 002b 002e 002b 002c 0020 002d     *.*.+...+.,. .-.
   20b30:	0039 0024 001e 001e 0018 0027 0026 003f     9.$.......'.&.?.
   20b40:	004a 0042 0030 000d 0022 0018 001c 0013     J.B.0...".......
   20b50:	000d 001d 000e fffd 0000 0024 000c 0000     ..........$.....
   20b60:	0008 0024 0009 fff8 0008 0011 001d 002a     ..$...........*.
   20b70:	0019 001e 002e 0014 001c 0020 0019 000f     .......... .....
   20b80:	0009 001f 0013 0006 0002 ffe9 fff0 0002     ................
   20b90:	0005 ffeb fff4 ffe6 ffe4 fff1 ffee fff5     ................
   20ba0:	fffd fff1 ffc9 ffc6 ffc4 ffb7 ffbd ffc3     ................
   20bb0:	ffbc ffba ffa9 ffad ffab ff9d ffa4 ffb0     ................
   20bc0:	ffcb ffdc ffd7 ffea ffd7 ffc3 ffd0 ffce     ................
   20bd0:	ffd2 ffd7 fff4 ffd5 ffd3 ffef ffda ffd3     ................
   20be0:	ffed ffec ffe1 000c 0000 ffec fff9 fffa     ................
   20bf0:	ffed ffee ffee ffea ffe8 fff9 ffe9 ffcf     ................
   20c00:	ffdd ffed ffe2 ffc4 ffbe ffd3 ffdc ffcd     ................
   20c10:	ffc1 ffd6 ffd1 ffde ffe0 ffe2 ffdf ffea     ................
   20c20:	fff6 ffed ffe6 ffef fffa ffe8 ffe8 ffe7     ................
   20c30:	ffe9 fff5 ffff ffec fff8 ffe3 ffc8 ffe0     ................
   20c40:	ffde ffda ffe0 ffd3 ffcd ffdd ffd6 ffdf     ................
   20c50:	ffec ffe6 fff1 ffe8 ffe1 ffef 0001 fffe     ................
   20c60:	fff0 ffeb fffe 000c 001c 0032 0024 000b     ..........2.$...
   20c70:	0009 fff5 fff4 0015 0015 0015 000b fff0     ................
   20c80:	ffee 0003 0004 fffb ffdd ffcc ffd7 ffe7     ................
   20c90:	ffea fff8 fff6 fffe 0002 fff3 fff6 fff4     ................
   20ca0:	fff8 ffe6 ffe0 ffe2 fff1 0003 0013 0011     ................
   20cb0:	0015 001b 0029 0025 001a 000d 001c 0027     ....).%.......'.
   20cc0:	0023 0028 0020 002d 0023 0023 0012 0012     #.(. .-.#.#.....
   20cd0:	001f 001d 0015 0016 002b 0035 0037 0036     ........+.5.7.6.
   20ce0:	002c 001e 002c 002e 001b 001c 0015 001c     ,...,...........
   20cf0:	0018 001d 001e 000d 0008 0012 0021 0022     ............!.".
   20d00:	001d 0007 fff5 fffd 001c 0029 0021 002c     ..........).!.,.
   20d10:	0033 0014 ffef ffeb fffd 002f 0041 0032     3........./.A.2.
   20d20:	0020 0019 000f 0007 0003 000b 000c 0017      ...............
   20d30:	0011 001b 0010 fff9 fff5 0001 000a 0020     .............. .
   20d40:	003a 000c fff0 fffb 0012 0031 0019 0009     :.........1.....
   20d50:	001b 0008 0019 0025 0014 0014 0019 002a     ......%.......*.
   20d60:	0029 0008 fffd 000d 0008 000e 001f 0003     )...............
   20d70:	0000 0013 0021 0043 0030 0011 000a 0020     ....!.C.0..... .
   20d80:	0009 0024 0024 ffff fff4 ffe2 ffed fff6     ..$.$...........
   20d90:	ffee ffea ffd6 ffca ffe0 fffe 000b fffe     ................
   20da0:	fffd 0003 001d 000c ffe1 ffdd fff2 fff5     ................
   20db0:	fffc 0010 fffe ffde ffea fffe 000f 0008     ................
   20dc0:	fff8 0009 0009 ffff 0004 0019 0029 002e     ............)...
   20dd0:	0022 000d 000b 0001 0020 0027 000d 000f     "....... .'.....
   20de0:	001c 0022 0037 0034 001c 0000 0001 001f     ..".7.4.........
   20df0:	0027 0012 0012 0005 fff0 fffa fffc fff7     '...............
   20e00:	fff6 fffe 0005 ffef ffe4 ffec ffd9 ffd2     ................
   20e10:	ffeb fffd 000b 0009 fffc 0010 000d ffee     ................
   20e20:	ffea ffee fffe 0002 fff6 ffe7 ffef ffef     ................
   20e30:	ffeb 0006 0017 000a 000e 000c ffe5 ffe5     ................
   20e40:	fff9 fff1 ffe7 ffee ffe2 ffec fff0 ffe2     ................
   20e50:	fffc ffe5 ffcf ffe4 ffe9 0008 0006 000c     ................
   20e60:	000d 000b 0009 001c 0029 0034 0040 0030     ........).4.@.0.
   20e70:	0019 000d 0023 002f 0025 002d 001d 0018     ....#./.%.-.....
   20e80:	0027 0022 0014 0005 0005 0001 ffff 0000     '.".............
   20e90:	0002 fffa ffef ffe6 0007 000c ffee ffd7     ................
   20ea0:	ffde ffed fffa fffb fff2 ffd3 ffc7 ffe3     ................
   20eb0:	ffe3 ffe8 ffe8 ffd7 ffd3 ffde ffe0 ffd3     ................
   20ec0:	ffcc ffbd ffac ffb5 ffc1 ffbd ffa9 ffa8     ................
   20ed0:	ffc4 ffd3 ffdd ffd1 ffcf ffc2 ffc5 ffbd     ................
   20ee0:	ffc0 ffd6 fff0 0002 ffec ffd6 ffdb ffca     ................
   20ef0:	ffc3 ffa3 ff8d ff9a ffa8 ffc5 ffdc ffcb     ................
   20f00:	ffbe ffbf ffa8 ffc2 ffe5 0004 ffee ffce     ................
   20f10:	ffc7 ffd7 ffe0 ffd9 ffe3 ffed 0000 ffe1     ................
   20f20:	ffcd ffc8 ffd2 fff1 ffea 0001 0011 fff4     ................
   20f30:	ffe1 ffd8 ffe3 0008 0013 0012 000a 000c     ................
   20f40:	fffb fff3 0008 001a 0014 0019 002c 002c     ............,.,.
   20f50:	0022 0021 0027 003a 003c 002e 0000 0013     ".!.'.:.<.......
   20f60:	0026 0023 002f 0020 0003 0017 003d 0059     &.#./. .....=.Y.
   20f70:	005a 0041 0032 002e 0023 0022 003b 0050     Z.A.2...#.".;.P.
   20f80:	004b 002a 0005 fff8 0008 0021 002a 002c     K.*.......!.*.,.
   20f90:	001b fffa ffe6 fff1 0001 0000 0005 fffa     ................
   20fa0:	fffc 0010 0011 0003 0002 fffd fffd ffec     ................
   20fb0:	0000 0025 0009 fff6 000c 0006 fff4 fffe     ..%.............
   20fc0:	fffc ffee ffe7 ffdd ffd5 0001 0006 ffef     ................
   20fd0:	ffee 0009 0010 0011 0028 0014 0006 000f     ........(.......
   20fe0:	0009 0017 0031 0028 0013 0011 0017 0028     ....1.(.......(.
   20ff0:	0048 0056 004a 004c 004a 0036 001b 003d     H.V.J.L.J.6...=.
   21000:	0047 001d 0029 0029 0015 0013 0014 002b     G...).).......+.
   21010:	003d 0030 0037 0043 002a 0027 0043 004b     =.0.7.C.*.'.C.K.
   21020:	0055 0035 0014 0015 0024 003d 0039 0018     U.5.....$.=.9...
   21030:	0010 0010 0027 001b 0005 000c 0026 002a     ....'.......&.*.
   21040:	0022 0023 fffc ffe5 fff0 0009 0016 0008     ".#.............
   21050:	0002 0005 fff4 ffee 0003 000d 0017 0014     ................
   21060:	0025 000c 0012 0019 fff5 ffea fff2 fff4     %...............
   21070:	ffe7 fffa 0006 ffed 0006 fffd ffeb ffe8     ................
   21080:	ffdb ffee 0027 0033 fffa ffe7 0001 001b     ....'.3.........
   21090:	0023 002b 0010 fff4 ffea ffdf ffde ffe1     #.+.............
   210a0:	fff8 fff0 fff8 ffe6 ffe1 ffdf ffd8 ffe7     ................
   210b0:	ffdc ffd5 ffd9 ffe1 ffdc ffc4 ffc1 ffc6     ................
   210c0:	ffc5 ffd9 ffda ffdb ffe9 fff9 ffe2 ffdf     ................
   210d0:	0002 ffef fff0 fffe 0008 0009 fff0 ffeb     ................
   210e0:	ffef ffe3 ffdc ffde ffef fff1 000e 001b     ................
   210f0:	000d 000d 0012 0006 0005 000c 0000 fff0     ................
   21100:	ffea ffda ffe3 fffb ffec ffea fff0 ffeb     ................
   21110:	fff5 fff5 0017 001c 0005 002b ffff ffed     ..........+.....
   21120:	ffe9 ffdb ffe7 ffe9 fffa 0006 000d fff1     ................
   21130:	ffda ffd9 ffd2 fff0 ffe0 ffd0 ffe1 ffdd     ................
   21140:	ffc7 ffee fff2 ffd5 ffdf ffd0 ffc9 ffcf     ................
   21150:	ffd3 ffcd ffee fff0 ffd7 ffd6 ffe1 fffa     ................
   21160:	000f 0000 ffda ffcc ffc5 ffe9 0001 fff9     ................
   21170:	fff1 ffff 0004 ffef fffc fff4 fffa ffe7     ................
   21180:	ffd8 ffcf ffcc ffd0 ffda ffe5 ffce ffbb     ................
   21190:	ffad ffb9 ffd0 ffd1 ffba ffa5 ffb2 ffce     ................
   211a0:	ffee ffe8 ffc9 ffe2 fff0 fffe 0012 0017     ................
   211b0:	0002 fff9 0007 0004 fff6 fff6 ffff 0005     ................
   211c0:	fffb 0000 001d 0039 002e 0018 0031 0039     ......9.....1.9.
   211d0:	0026 001b 000c 0006 0023 0029 001a 0009     &.......#.).....
   211e0:	001c 0024 0027 002c 0025 002d 0028 002d     ..$.'.,.%.-.(.-.
   211f0:	001a 000c 0019 0019 000d fff3 000d 0012     ................
   21200:	0009 000b 0004 0009 0001 0024 002a 001c     ..........$.*...
   21210:	001a 001d 0030 0024 001e 001b 001d 002e     ....0.$.........
   21220:	003b 002f 0028 001c 0030 0033 0035 0043     ;./.(...0.3.5.C.
   21230:	0040 0030 000e 0014 001b 0021 0037 003d     @.0.......!.7.=.
   21240:	002f 0018 0019 0027 0021 001f 0027 0036     /.....'.!...'.6.
   21250:	0028 0008 0015 002a 0023 0026 0030 0018     (.....*.#.&.0...
   21260:	0017 001f 0023 0021 0014 0004 0004 0000     ....#.!.........
   21270:	fffb 0006 0003 0028 0022 0021 0029 001e     ......(.".!.)...
   21280:	000f 000a 001e 002b 002b 002b 0028 0030     ......+.+.+.(.0.
   21290:	0038 002e 0026 002b 0025 001c 0017 0023     8...&.+.%.....#.
   212a0:	0026 001b 001a 000b fffa fff3 fff5 ffea     &...............
   212b0:	ffed fff4 ffea fff4 ffec ffe3 fff7 ffe8     ................
   212c0:	fff5 fffe fff2 fff1 ffd2 ffe1 ffe0 ffe8     ................
   212d0:	fff2 ffe9 fff5 ffe8 0000 ffea ffd4 ffd8     ................
   212e0:	ffd7 ffcf ffda ffd2 ffac ffbf ffdb ffe2     ................
   212f0:	ffec fff2 fff5 fff0 ffff 0013 fffb fff6     ................
   21300:	0007 0012 0010 0026 0012 fffe fffa 0010     ......&.........
   21310:	001d 001a 0012 fff2 ffef fffa 0007 fff2     ................
   21320:	ffdf ffea ffe7 ffe5 fffc ffea ffe9 0005     ................
   21330:	fff2 ffef 000a 0002 fff8 0007 0012 0004     ................
   21340:	0008 0001 0009 fff4 fff7 0007 fff9 0011     ................
   21350:	000e fffb 0000 0001 000e 0015 0009 fff6     ................
   21360:	fff3 fffc fffc 0000 0004 fff5 fff9 0016     ................
   21370:	000b 0017 0011 ffed ffeb ffe1 ffe9 ffe4     ................
   21380:	ffde ffc8 ffc6 ffc0 ffc7 ffec ffe6 fff4     ................
   21390:	0011 0003 fff0 fff6 0006 ffff fff0 ffe9     ................
   213a0:	ffff fffe ffe6 fff2 fff2 ffd4 ffd1 ffd9     ................
   213b0:	ffe5 ffda ffc9 ffd9 fff4 ffd0 ffb8 ffa5     ................
   213c0:	ffa7 ffbe ffdb ffd0 ffb2 ffb7 ffcd ffdb     ................
   213d0:	ffe9 fff2 fff4 ffd7 ffd9 ffd8 ffda fffa     ................
   213e0:	ffe4 ffd0 ffdd fffa fff3 ffe0 ffd8 ffe3     ................
   213f0:	ffe4 ffd9 ffd9 ffe5 fff6 fff9 0001 0010     ................
   21400:	000a 0000 0007 0012 001e 000a fff7 0000     ................
   21410:	fff7 ffe8 ffed 000a fffe ffe3 ffe7 ffdd     ................
   21420:	ffed ffe2 fff5 0016 fff9 ffdc ffe9 ffee     ................
   21430:	fffa ffff ffef fffd fffc fff0 fff5 fff7     ................
   21440:	0012 000a fff2 fff2 fff8 0016 001a 000b     ................
   21450:	fffe 0002 ffff fff4 0003 000b 000e 0018     ................
   21460:	001f 0013 001b 0024 001f 0018 000a 001a     ......$.........
   21470:	002a 001e 0013 0019 0017 001e 0027 0038     *...........'.8.
   21480:	003b 0020 0031 0040 002a 0029 002d 0022     ;. .1.@.*.).-.".
   21490:	0015 ffef 0001 fffd fffe 002b 0029 0013     ..........+.)...
   214a0:	000b 000c 000c 0024 0027 000f 001c 0023     ......$.'.....#.
   214b0:	003d 0042 001d 0018 001b 0025 0029 0023     =.B.......%.).#.
   214c0:	000e fffc 0008 0004 0007 fff5 fff9 ffeb     ................
   214d0:	0001 0014 000f 002f 0017 0004 0011 0030     ....../.......0.
   214e0:	0020 0021 001e 0002 0008 0005 fffc 001a      .!.............
   214f0:	0022 0015 0024 0010 000c 000f fffc 0008     "...$...........
   21500:	0004 0017 0026 0037 002d 002b 0026 0017     ....&.7.-.+.&...
   21510:	0020 0017 002b 0029 000c 0006 0026 0020      ...+.).....&. .
   21520:	0021 0027 001e 0018 0006 000d 0015 001d     !.'.............
   21530:	0001 0004 0016 001e 002e 0026 0025 0029     ..........&.%.).
   21540:	0025 0026 0022 000d 0014 0018 0021 002a     %.&.".......!.*.
   21550:	0021 0024 0020 001e 000f fffe fff4 ffda     !.$. ...........
   21560:	fffd fffd fff6 0002 000a 0018 000e 0007     ................
   21570:	000b 0003 fff8 fff8 0001 fffd fff9 fff7     ................
   21580:	ffef fff0 0013 0000 ffd0 ffc2 ffbd ffc9     ................
   21590:	ffdd ffe1 ffd1 ffb9 ffc7 ffe2 ffe7 ffe3     ................
   215a0:	ffdf ffed ffe4 ffe6 ffd7 ffd9 ffe1 ffe9     ................
   215b0:	fff9 ffef fffb fff4 ffdc ffd9 ffe0 ffe5     ................
   215c0:	ffe8 ffe2 ffcf ffd6 fff3 fff7 0000 fffa     ................
   215d0:	ffee 0000 0006 fff3 fff6 ffe8 ffe6 0004     ................
   215e0:	0009 0005 0007 fff8 ffe6 0004 0010 fff4     ................
   215f0:	0008 0016 fffa ffef 0005 0006 0002 000d     ................
   21600:	fff9 ffed ffe3 fff0 000b 000d 0012 0019     ................
   21610:	fff2 fffa 0001 fff8 000b 000a 0010 0001     ................
   21620:	000b 0004 ffe7 fffa fff3 fffb fff3 fff2     ................
   21630:	000a ffff fff5 fffb fff7 fff7 fff4 fffd     ................
   21640:	ffec ffde ffdb ffe3 0006 fff8 ffff 0016     ................
   21650:	0022 fff6 fffe 0004 fff1 0008 fffe ffee     "...............
   21660:	ffe8 ffe3 ffea ffde ffd8 ffd5 ffd5 ffd4     ................
   21670:	ffc4 ffb7 ffcd ffee fff6 ffdc ffc2 ffc1     ................
   21680:	ffd5 ffdc ffdf ffd3 ffda ffd2 ffb5 ffc6     ................
   21690:	ffd3 ffde ffdc ffec ffcb ffb2 ffb9 ffca     ................
   216a0:	ffb1 ffaa ffaa ffa7 ffa3 ffab ffba ffcc     ................
   216b0:	ffee fff4 ffda ffad ffb0 ffcd ffd6 ffb2     ................
   216c0:	ffd4 ffee ffdb ffef 0002 0004 fffc ffed     ................
   216d0:	ffe6 ffe2 fff5 0008 0008 0002 fff6 0013     ................
   216e0:	002c 0028 0017 0006 0020 001e 0014 0012     ,.(..... .......
   216f0:	0008 0007 001f 002d ffea fff7 000d 0010     ......-.........
   21700:	001f 0014 0015 0001 ffff 0018 0025 0027     ............%.'.
   21710:	0022 0027 0022 0015 0013 0010 0018 0027     ".'.".........'.
   21720:	0012 0007 001f 0026 000d 002e 0047 0033     ......&.....G.3.
   21730:	0028 0016 001a 002e 004d 0048 0035 0025     (.......M.H.5.%.
   21740:	0034 0033 0023 003f 0045 0055 004d 0045     4.3.#.?.E.U.M.E.
   21750:	0043 0042 0050 005f 004c 0048 0055 005b     C.B.P._.L.H.U.[.
   21760:	0056 003f 0042 0038 0031 0047 0051 004e     V.?.B.8.1.G.Q.N.
   21770:	0035 0038 0034 0047 003c 0044 003d 001c     5.8.4.G.<.D.=...
   21780:	001e 001d 0025 0018 001d 0017 0024 0028     ....%.......$.(.
   21790:	000d 0001 0007 0007 ffed ffef ffe3 ffe9     ................
   217a0:	ffef ffe3 ffe0 ffe2 ffda ffd8 ffe6 ffe8     ................
   217b0:	ffe2 ffef ffd9 ffd9 fff4 fff5 ffe7 fff8     ................
   217c0:	0000 0006 0007 fff7 fff1 ffde ffd2 ffcd     ................
   217d0:	ffe1 fff1 ffed ffdd ffcf ffd6 ffe8 ffe8     ................
   217e0:	ffe8 ffea ffe4 0001 fffe fff5 ffe0 fff2     ................
   217f0:	000c 0019 0028 0003 fff7 0013 0037 0021     ....(.......7.!.
   21800:	0024 0038 002b 0025 0019 000e 001a 0007     $.8.+.%.........
   21810:	0001 001d 001f 001c 0017 0003 000b 000e     ................
   21820:	0015 0016 0025 0023 0025 0021 0036 004b     ....%.#.%.!.6.K.
   21830:	002b 001f 0001 001d 0016 0007 001e fff4     +...............
   21840:	ffef 0001 0007 0008 fff5 fff9 ffe6 ffe9     ................
   21850:	ffe3 ffd9 ffdc ffd5 ffd8 ffb9 ffd6 ffe2     ................
   21860:	ffbd ffa5 ffac ffc2 ffe9 fff2 ffe0 ffe9     ................
   21870:	ffd6 ffd7 ffce ffcb ffde ffec ffe3 fff2     ................
   21880:	ffed ffc0 ffd2 ffea 0009 fffc ffe8 ffe2     ................
   21890:	ffcc ffe7 0009 001a fffe ffef fff6 0015     ................
   218a0:	0029 001e 0000 ffff fff3 ffff 0008 fff7     )...............
   218b0:	ffeb fffd fff4 ffd2 ffc2 ffc1 ffdd ffec     ................
   218c0:	fff3 fff8 fff7 ffe6 ffd1 ffde ffef fffe     ................
   218d0:	0000 ffef ffd7 ffd0 ffde ffee fffa ffed     ................
   218e0:	ffef ffed ffec fff1 ffdf fff6 001c 0007     ................
   218f0:	fffc fff4 fff8 0008 001b 0026 0003 fff7     ..........&.....
   21900:	fffd fff4 0003 fff7 ffe5 ffe6 0001 0002     ................
   21910:	ffde ffe4 ffed ffd7 fff6 000d fff6 ffd6     ................
   21920:	ffd7 ffbd ffcf ffe2 ffbc ffd4 ffdf ffdb     ................
   21930:	ffc2 ffec fff7 ffd6 ffe1 ffe6 ffe9 ffeb     ................
   21940:	ffda ffcd ffc5 ffd3 ffcb ffa0 ff97 ffb2     ................
   21950:	ffb8 ff9b ff96 ffa4 ffc6 ffd1 ffd8 fff3     ................
   21960:	ffe8 ffd1 ffcd ffd4 ffe1 fff0 0006 fffa     ................
   21970:	ffec 0000 fff7 ffdc fff3 fffe ffe6 fff8     ................
   21980:	0022 000e fff0 ffed fffa 0012 0012 001f     "...............
   21990:	001a 0020 0007 ffeb 0007 002a 002c 003b     .. .......*.,.;.
   219a0:	003c 004b 0050 0049 005c 006c 0059 0056     <.K.P.I.\.l.Y.V.
   219b0:	0063 0078 0076 0063 0057 0069 0077 0085     c.x.v.c.W.i.w...
   219c0:	0093 007c 0082 0068 0050 0060 008c 0090     ..|...h.P.`.....
   219d0:	008e 009c 00a5 00b4 00ca 00cd 00b9 00a2     ................
   219e0:	0099 0095 00ad 00ae 00a1 0087 0064 0044     ............d.D.
   219f0:	0058 007a 008e 006c 003b 0032 0026 0021     X.z...l.;.2.&.!.
   21a00:	000b 0013 0021 0014 ffea fffa fff4 ffef     ....!...........
   21a10:	ffdd ffdf fffc ffda ffaa ff91 ffa3 ffc8     ................
   21a20:	ffdc ffdb ffd6 ffd1 ffc5 ffcb ffc3 ffe3     ................
   21a30:	ffd3 ffae ffa3 ff8a ffab ffd3 ffbc ffa0     ................
   21a40:	ff9a ffa5 ffc3 ffc3 ff9a ff89 ff7d ff9a     ............}...
   21a50:	ffb1 ffb4 ff91 ff72 ff7c ff97 ff94 ffa4     ......r.|.......
   21a60:	ffa3 ff86 ff90 ff98 ffa0 ffa3 ffa9 ffa9     ................
   21a70:	ffba ffc2 ffb4 ffca ffb7 ffbf ffbb ffd0     ................
   21a80:	ffe9 ffd6 ffdb ffd5 ffe3 ffda ffe3 ffdf     ................
   21a90:	ffeb ffd2 ffe0 fffb fff8 fffb fff4 ffe0     ................
   21aa0:	ffda 0000 fffc 0006 0010 ffe0 fffa 0023     ..............#.
   21ab0:	002c 0034 0043 003f 0035 001f 003e 0041     ,.4.C.?.5...>.A.
   21ac0:	0029 0058 0053 005f 0069 0054 003c 0050     ).X.S._.i.T.<.P.
   21ad0:	0065 006a 0075 0070 0070 0057 005d 0063     e.j.u.p.p.W.].c.
   21ae0:	005f 0060 0061 0059 006c 004b 002e 0040     _.`.a.Y.l.K...@.
   21af0:	0044 003e 0037 0034 0024 001a 0014 0026     D.>.7.4.$.....&.
   21b00:	0031 0031 0019 0014 003b 0020 0010 0029     1.1.....;. ...).
   21b10:	000a 0011 002d 0024 000d ffef ffe7 fff3     ....-.$.........
   21b20:	fff3 ffdc ffdc ffdc ffd0 ffd0 ffd4 fff4     ................
   21b30:	ffda ffb9 ffde fff0 ffd4 ffdb ffd9 ffd0     ................
   21b40:	ffe8 ffce ffd6 ffcf ffb7 ffc2 ffe3 0003     ................
   21b50:	ffea ffd0 ffe0 fffa ffd8 ffb6 ffa3 ffb0     ................
   21b60:	ffb8 ffca fff7 fff9 ffe4 ffe4 fff5 0009     ................
   21b70:	ffe4 ffd1 ffd0 ffd8 fff6 0004 ffef ffe9     ................
   21b80:	ffc2 ffc8 ffeb ffb8 ffbd ffd0 ffcf ffda     ................
   21b90:	ffc9 ffab ffb7 ffa9 ffc4 ffd5 ffda ffde     ................
   21ba0:	0003 0001 ffff ffe7 ffd7 ffe8 fffa ffe3     ................
   21bb0:	ffcd ffd0 ffc1 ffd6 ffe4 ffe0 ffbe ffc8     ................
   21bc0:	ffd2 ffe1 ffc9 ffbe ffc5 ffdb ffe3 ffee     ................
   21bd0:	fffa ffe3 ffdb ffc9 ffbc ffee 0006 ffed     ................
   21be0:	0000 fff9 ffef ffff 0002 fff6 ffee 0001     ................
   21bf0:	0023 0024 fffb ffdf 000d 0020 fff4 fff6     #.$....... .....
   21c00:	0004 0016 0019 0013 001d 002a 003e 0060     ..........*.>.`.
   21c10:	0058 0038 0027 0031 0013 fff2 0015 001c     X.8.'.1.........
   21c20:	0013 001f 0010 0005 0004 0012 0036 0025     ............6.%.
   21c30:	0036 004a 0049 0043 0024 0012 0039 0046     6.J.I.C.$...9.F.
   21c40:	0040 0027 002a 0050 0066 002f 0033 0052     @.'.*.P.f./.3.R.
   21c50:	003e 003b 0076 005a 0026 003c 003a 0024     >.;.v.Z.&.<.:.$.
   21c60:	0029 003c 0036 003b 005b 0079 006e 003f     ).<.6.;.[.y.n.?.
   21c70:	0030 0031 0065 0071 0054 0039 0037 0044     0.1.e.q.T.9.7.D.
   21c80:	0065 0068 0037 0019 002b 0041 0046 0051     e.h.7...+.A.F.Q.
   21c90:	002d ffff fffa fffc 001a 0021 000d ffe9     -.........!.....
   21ca0:	ffd6 ffee fff9 fffc ffe5 ffec 0010 001e     ................
   21cb0:	ffeb ffd3 ffd1 ffda ffee fff8 ffee ffca     ................
   21cc0:	ffbc ffc8 ffe0 ffce ffd3 ffec ffe4 ffe6     ................
   21cd0:	ffc8 ffcd ffed 000d 000a fff0 ffff 0007     ................
   21ce0:	fff9 ffd8 ffd5 ffee 0016 0022 000e 000e     ..........".....
   21cf0:	ffea ffec fffd fff2 ffde fff1 0013 ffef     ................
   21d00:	ffdc ffeb 0018 ffe3 ffe1 fffa fff5 0007     ................
   21d10:	0006 0010 fffd ffe7 ffde ffef fffe 0014     ................
   21d20:	0007 000c 0002 000d 0022 000d 0009 000d     ........".......
   21d30:	000f 0001 fff2 ffe1 ffec fffe 0009 000e     ................
   21d40:	fff8 0005 000e 0006 000e 0021 0011 0003     ..........!.....
   21d50:	0009 0012 002d 0023 0029 0014 001b 0028     ....-.#.).....(.
   21d60:	0018 0017 0016 0039 0042 0021 0009 0008     ......9.B.!.....
   21d70:	ffec fffd 0001 ffe0 ffdc ffee ffe4 ffe8     ................
   21d80:	0002 ffee ffeb ffef ffd4 ffe6 000b 0004     ................
   21d90:	fff5 ffe6 ffe1 fff2 0001 ffff fffa ffef     ................
   21da0:	fff8 ffe6 ffd1 ffd1 ffd1 ffda ffd5 ffe3     ................
   21db0:	ffd4 ffc6 ffdc ffba ffc8 ffda ffd3 ffbf     ................
   21dc0:	ffa9 ffb1 ffa6 ffb8 ffd1 ffcf ffca ffd6     ................
   21dd0:	ffdd ffb3 ffbe ffd4 ffda ffcb ffd9 0000     ................
   21de0:	ffe2 ffcc ffcd ffd5 ffdd ffe0 ffc9 ffd4     ................
   21df0:	ffbd ffc7 ffec ffd8 ffda ffea ffde ffcd     ................
   21e00:	ffd5 ffbe ffd8 ffe3 ffe6 0009 0016 0023     ..............#.
   21e10:	0009 0008 0033 0028 0018 0019 001d 0010     ....3.(.........
   21e20:	0011 001e 001d 0008 fffe 000c fff4 fff6     ................
   21e30:	0006 0012 0004 0010 001b 0004 001c 000e     ................
   21e40:	0021 0013 0023 0016 0006 001d 000f 0009     !...#...........
   21e50:	0006 0015 0006 fffd 0004 0026 fffc ffeb     ..........&.....
   21e60:	ffff fff6 0017 0024 0006 fff0 000e 0000     ......$.........
   21e70:	fff6 0016 0016 ffe6 ffdd ffef fff6 fffa     ................
   21e80:	ffe2 ffed 0009 fffb fff8 fffe ffef 000c     ................
   21e90:	0005 fffd ffeb ffe1 0009 fff4 ffdd fff1     ................
   21ea0:	fff1 fff5 000b 000b 000c 000b 0014 003c     ..............<.
   21eb0:	0039 0018 000c 000a fff7 0014 0016 fff4     9...............
   21ec0:	ffef 0013 003c 001c ffe7 ffea fff3 0002     ....<...........
   21ed0:	0011 0027 0036 001e 001f 000a fff8 0007     ..'.6...........
   21ee0:	0009 0002 ffff 0001 0002 fff8 fff2 0019     ................
   21ef0:	002f 0030 0043 0042 004d 004b 0050 005d     /.0.C.B.M.K.P.].
   21f00:	0061 0055 005a 0065 0078 0070 005f 0053     a.U.Z.e.x.p._.S.
   21f10:	0071 007b 008b 0084 007e 0082 005d 0052     q.{.....~...].R.
   21f20:	0072 0090 008c 008f 0095 00a9 00b8 00c4     r...............
   21f30:	00c5 00af 009b 0096 009b 00af 00a7 0098     ................
   21f40:	007b 0057 0042 006e 0080 008a 0055 0035     {.W.B.n.....U.5.
   21f50:	0033 002c 0015 000c 001a 0024 0000 ffee     3.,.......$.....
   21f60:	0000 fff3 ffea ffd6 ffeb fffa ffca ff9d     ................
   21f70:	ff93 ffb2 ffd2 ffdf ffd8 ffdc ffc5 ffca     ................
   21f80:	ffcc ffcf ffe5 ffc4 ffaf ff98 ff90 ffbe     ................
   21f90:	ffce ffab ff9b ff9c ffac ffc5 ffb6 ff91     ................
   21fa0:	ff84 ff87 ffa7 ffb1 ffae ff83 ff73 ff86     ............s...
   21fb0:	ff98 ff92 ffaa ff9b ff86 ff94 ff9d ffa4     ................
   21fc0:	ffa5 ffaa ffaa ffc0 ffbe ffc0 ffce ffb8     ................
   21fd0:	ffc4 ffbf ffe1 ffe6 ffda ffdd ffdd ffe3     ................
   21fe0:	ffe1 ffe3 ffe9 ffe9 ffd0 fff0 fffb fff9     ................
   21ff0:	fffb fff2 ffdf ffe7 0005 fff9 0010 0002     ................
   22000:	ffde 000b 0029 0030 0039 0044 003e 002a     ....).0.9.D.>.*.
   22010:	0025 0050 0035 0035 005d 0052 0069 0067     %.P.5.5.].R.i.g.
   22020:	0050 003f 005c 0065 006e 0074 0076 006a     P.?.\.e.n.t.v.j.
   22030:	0054 0065 0062 005f 0060 005b 005e 0065     T.e.b._.`.[.^.e.
   22040:	0039 0030 0043 0045 003b 0036 0030 0021     9.0.C.E.;.6.0.!.
   22050:	001b 0018 002c 0032 002e 0011 0022 003a     ....,.2.....".:.
   22060:	0015 0018 0026 0005 001a 0028 001e 0002     ....&.....(.....
   22070:	ffea ffea fff6 fff0 ffda ffe1 ffd9 ffd2     ................
   22080:	ffce ffde fffb ffcd ffc5 ffeb ffea ffcf     ................
   22090:	ffe2 ffd1 ffda ffe4 ffca ffdb ffc5 ffb9     ................
   220a0:	ffcb fff2 fffb ffdc ffd1 fff1 fff8 ffcd     ................
   220b0:	ffab ffa6 ffb9 ffb9 ffd8 fffd fff1 ffe4     ................
   220c0:	ffe5 ffff 0001 ffd8 ffcf ffd0 ffe5 0001     ................
   220d0:	ffff ffeb ffe2 ffb8 ffdc ffdd ffb3 ffc6     ................
   220e0:	ffd0 ffd4 ffdc ffba ffb1 ffb6 ffaf ffcf     ................
   220f0:	ffd8 ffd7 ffeb 0009 0001 fff9 ffdc ffdd     ................
   22100:	ffef fff9 ffd6 ffce ffc8 ffc8 ffda ffe7     ................
   22110:	ffd5 ffbd ffd0 ffd7 ffe4 ffc3 ffc4 ffcd     ................
   22120:	ffe2 ffe0 fffb fff8 ffe1 ffd6 ffbf ffc9     ................
   22130:	0004 fffa fff1 0003 fff4 fff7 0004 0002     ................
   22140:	ffef fff2 000d 002e 001e ffee ffea 0020     .............. .
   22150:	0011 ffef fffc 0005 001b 0014 0018 0026     ..............&.
   22160:	002e 004a 0062 0050 0034 0028 002e 0001     ..J.b.P.4.(.....
   22170:	fffa 001e 0016 0017 001e 0009 0004 0002     ................
   22180:	0028 0033 0023 0043 0049 004a 003e 0015     (.3.#.C.I.J.>...
   22190:	0018 003e 0045 0037 001e 0031 005f 0058     ..>.E.7...1._.X.
   221a0:	0024 0043 0051 0037 004d 007a 0040 0027     $.C.Q.7.M.z.@.'.
   221b0:	0043 0034 0022 0030 003c 0035 0045 0066     C.4.".0.<.5.E.f.
   221c0:	0084 005f 0038 002f 0040 0072 0069 0049     .._.8./.@.r.i.I.
   221d0:	0034 003b 0050 006d 005a 002a 0018 0038     4.;.P.m.Z.*...8.
   221e0:	0042 004d 004a 001b fffc fffb 0002 0023     B.M.J.........#.
   221f0:	001c 0001 ffda ffdb fff3 fffb fff3 ffe3     ................
   22200:	fff9 001e 0013 ffdf ffd0 ffcc ffdf fff3     ................
   22210:	fffd ffe6 ffc2 ffba ffce ffde ffcc ffdf     ................
   22220:	ffed ffe6 ffdc ffc1 ffd8 fffa 0012 fffc     ................
   22230:	fff4 0005 0005 fff0 ffd1 ffdd fffd 0020     .............. .
   22240:	0019 000e 0006 ffe7 fff5 fffc ffef ffdc     ................
   22250:	0002 000a ffe6 ffdf 0000 0015 ffd7 ffef     ................
   22260:	fff6 0001 0008 000d 0010 fff7 ffe1 ffe2     ................
   22270:	fff3 000c 0016 0007 000c 0000 0016 0020     .............. .
   22280:	000a 000b 000c 000e fffe ffeb ffdf fff4     ................
   22290:	0001 0010 000a fff8 000b 000c 0006 0016     ................
   222a0:	001f 0007 0007 000e 0022 002e 0026 0026     ........"...&.&.
   222b0:	000e 0029 0025 0017 0011 0023 0043 003a     ..).%.....#.C.:.
   222c0:	0014 000c fffc ffe9 0005 fff3 ffdb ffe2     ................
   222d0:	fff2 ffdf fff5 0000 ffe8 ffef ffe6 ffcf     ................
   222e0:	fff4 000e fffb ffe7 ffe1 ffe5 fffa fffd     ................
   222f0:	fffd fff4 ffef fff1 ffdd ffce ffd0 ffd2     ................
   22300:	ffd9 ffd6 ffe2 ffc6 ffd2 ffd4 ffb6 ffd2     ................
   22310:	ffd9 ffcf ffb1 ffa9 ffb1 ffa5 ffc0 ffd3     ................
   22320:	ffd1 ffc9 ffdb ffcd ffb0 ffc6 ffd9 ffdb     ................
   22330:	ffc8 ffea fffd ffd5 ffcb ffd0 ffd8 ffe2     ................
   22340:	ffd6 ffcb ffd4 ffb7 ffda ffe7 ffd3 ffe0     ................
   22350:	ffec ffd4 ffcf ffcd ffc2 ffe6 ffdf fff3     ................
   22360:	000c 0019 001c 0000 0015 0036 001e 0017     ..........6.....
   22370:	0019 001a 000b 0014 0020 0018 0001 0006     ........ .......
   22380:	000a ffed fffe 000f 0012 0001 001e 0011     ................
   22390:	0010 001a 0012 0024 0014 002a 0008 000d     ......$...*.....
   223a0:	0019 000f 0004 0009 000f 0000 fffd 0011     ................
   223b0:	0022 ffeb fff5 fffe 0000 0021 001e fff6     ".........!.....
   223c0:	fff9 0013 fff6 ffff 001c 0008 ffdb ffe5     ................
   223d0:	fff2 fff9 fff1 ffe1 fff9 000b fff6 0000     ................
   223e0:	fff7 fff5 000e fffc fffd ffe2 ffee 0009     ................
   223f0:	ffe6 ffe3 fff6 fff0 fffd 000d 0009 000d     ................
   22400:	000d 0022 0041 0030 000f 0011 0005 fffb     ..".A.0.........
   22410:	001b 000a fff0 fff6 0026 003d 0004 ffdf     ........&.=.....
   22420:	ffec fff5 0007 0015 0031 0030 001b 001c     ........1.0.....
   22430:	0000 fffb 0009 0007 fffe fffe 0003 ffff     ................
   22440:	fff3 fff9 0025 002d 0036 0040 0041 0050     ....%.-.6.@.A.P.
   22450:	004a 0052 0061 005e 0052 005e 006b 0077     J.R.a.^.R.^.k.w.
   22460:	006a 0059 0057 0076 007a 008d 007b 0083     j.Y.W.v.z...{...
   22470:	0075 0053 0056 007d 0090 008b 008e 0096     u.S.V.}.........
   22480:	00ac 00bb 00c7 00bf 00a4 0096 0094 00a2     ................
   22490:	00b1 00a3 0091 0071 0047 004c 0078 0087     ......q.G.L.x...
   224a0:	0083 0043 0036 002b 0026 000c 000e 001e     ..C.6.+.&.......
   224b0:	001c fff0 fff8 fffc ffec ffe1 ffd8 fff7     ................
   224c0:	ffea ffb8 ff98 ff9b ffbf ffd9 ffdb ffd6     ................
   224d0:	ffda ffc5 ffcf ffc6 ffd6 ffdf ffbf ffaa     ................
   224e0:	ff8e ff9f ffd2 ffc6 ffa4 ff9e ffa1 ffb4     ................
   224f0:	ffc7 ffa6 ff8e ff81 ff8d ffaa ffb6 ffa8     ................
   22500:	ff7a ff76 ff93 ff9e ff9c ffb2 ff92 ff8b     z.v.............
   22510:	ff97 ffa1 ffa6 ffac ffad ffb2 ffca ffbb     ................
   22520:	ffc7 ffc9 ffc2 ffcb ffc4 ffed ffdb ffde     ................
   22530:	ffde ffe2 ffdf ffdb ffdf ffea ffdf ffd2     ................
   22540:	fff2 fff9 fffc fff9 ffec ffd9 fff9 000b     ................
   22550:	fffd 0019 fff6 ffef 0021 0032 0036 0045     ........!.2.6.E.
   22560:	004b 0041 002a 0037 0053 002f 004e 0060     K.A.*.7.S./.N.`.
   22570:	005c 0070 0064 004e 004c 0066 0069 0075     \.p.d.N.L.f.i.u.
   22580:	0075 007c 0065 005e 0070 0066 0063 006b     u.|.e.^.p.f.c.k.
   22590:	005f 006c 0062 0031 003a 004a 004a 003d     _.l.b.1.:.J.J.=.
   225a0:	0038 0027 001e 001e 001f 0030 0030 0026     8.'.......0.0.&.
   225b0:	0010 002f 002d 000b 0021 0016 0006 0025     ../.-...!.....%.
   225c0:	001f 0014 fff5 ffe3 fff0 fff6 ffde ffd7     ................
   225d0:	ffdf ffd5 ffcf ffcd ffec ffee ffbd ffc7     ................
   225e0:	ffea ffde ffd1 ffdb ffc7 ffe4 ffd6 ffcc     ................
   225f0:	ffd5 ffb9 ffbc ffd8 fff6 fff2 ffce ffd1     ................
   22600:	fff8 ffe3 ffc1 ffa8 ffac ffba ffbe ffe7     ................
   22610:	fffc fff1 ffe2 ffeb 0003 fff4 ffd1 ffd1     ................
   22620:	ffd2 ffea 0004 fff6 ffe6 ffd6 ffc0 ffe6     ................
   22630:	ffce ffb6 ffcc ffd4 ffd4 ffd7 ffb7 ffbb     ................
   22640:	ffaf ffbd ffd4 ffd9 ffde fff7 fffe fffb     ................
   22650:	fff8 ffdd ffe4 fff2 fff2 ffcd ffd2 ffcb     ................
   22660:	ffcf ffe8 ffee ffca ffc6 ffd9 ffe8 ffd5     ................
   22670:	ffbc ffc0 ffd1 ffe0 ffe3 fff5 ffe6 ffe5     ................
   22680:	ffd3 ffb5 ffd8 0001 fff5 fffb fffb ffed     ................
   22690:	fff6 fff6 fffc fff8 fff7 0019 0036 000f     ............6...
   226a0:	ffe4 fffc 0029 0006 ffee ffff 0013 001a     ....)...........
   226b0:	000b 001d 0031 0038 005c 0069 0044 002e     ....1.8.\.i.D...
   226c0:	0030 0023 fff3 0006 001b 0012 001c 0015     0.#.............
   226d0:	0007 0002 000a 002a 0026 0032 0047 003d     ......*.&.2.G.=.
   226e0:	0043 002e 000a 0023 0040 004d 002c 0019     C.....#.@.M.,...
   226f0:	003f 0069 003f 0029 004e 004a 0032 0065     ?.i.?.).N.J.2.e.
   22700:	003c fffc 0004 fff0 0004 0005 fff9 fffc     <...............
   22710:	0000 fffc 0005 0003 fffe fffe fffd fffc     ................
   22720:	0002 0001 fffc 0000 0003 0003 0000 0002     ................
   22730:	0001 0002 0000 ffff 0001 0001 0001 0000     ................
   22740:	0000 0002 0001 0000 ffff 0000 0003 0001     ................
   22750:	0001 0000 0001 0001 fffe 0000 0001 0001     ................
   22760:	0000 0001 0000 0000 0001 0001 ffff 0001     ................
   22770:	0001 0000 0000 0000 ffff 0000 0000 0000     ................
   22780:	0000 ffff 0000 0000 0000 0000 0000 0000     ................
	...

00022840 <open_pcm>:
	...
   22860:	0001 0000 0000 0000 0000 0000 0000 0001     ................
   22870:	0001 0000 0000 0000 0000 0000 0000 0000     ................
   22880:	ffff 0000 0001 0000 0000 0000 0001 0001     ................
   22890:	0001 0000 0000 0001 0001 0000 0000 0000     ................
	...
   228a8:	ffff ffff ffff 0000 0000 ffff ffff 0000     ................
   228b8:	ffff ffff ffff 0000 0000 0000 0000 0000     ................
	...
   228d0:	0001 0000 0001 0001 0001 0001 0001 0001     ................
   228e0:	0001 0001 0001 0001 0001 0001 0001 0001     ................
   228f0:	0001 0001 0001 0002 0003 0002 0000 ffff     ................
   22900:	fffe fffd fffd fffd fffe fffd fffb fff9     ................
   22910:	fff7 fff5 fff6 fff7 fff6 fff4 fff3 fff2     ................
   22920:	fff4 fff4 fff1 ffef ffef fff1 fff0 ffef     ................
   22930:	fff1 fff0 ffef ffee ffee ffed ffef fff2     ................
   22940:	fff3 fff2 fff2 fff4 fff5 fff6 fff8 fffa     ................
   22950:	fffa fff8 fffd 0002 0004 0004 0004 0000     ................
   22960:	fffe fffe 0000 0004 0005 0003 0003 0003     ................
   22970:	0005 0005 0006 0007 000b 000b 000a 000b     ................
   22980:	000c 000b 000a 000a 000b 000f 0010 0010     ................
   22990:	000f 000d 000d 0012 0014 0014 0018 0016     ................
   229a0:	0014 0014 0014 0012 0017 0018 0013 0011     ................
   229b0:	0010 000e 0010 0014 0015 0014 0016 0017     ................
   229c0:	0013 0012 0010 0011 0011 0010 000d 000b     ................
   229d0:	000c 000b 0007 0003 0004 0003 0001 0001     ................
   229e0:	0000 fffa fff8 fffd fffe ffff fffe ffff     ................
   229f0:	0002 ffff fffd 0001 0002 0000 0005 0010     ................
   22a00:	000f 0009 0002 fffd fffc ffff 0002 0003     ................
   22a10:	fffe fff8 fff3 fff3 fff4 fff6 fff8 fffa     ................
   22a20:	fff3 ffee fff4 fff8 fff4 fff0 fff0 fff1     ................
   22a30:	fff4 fff1 ffee ffef ffef fff4 ffee ffee     ................
   22a40:	fff0 fff1 fff0 fff1 fff1 fff1 fff3 fff3     ................
   22a50:	fff1 ffef fff2 fff2 fff3 fff1 ffec ffed     ................
   22a60:	fff3 fff5 fff0 fff1 fff1 fff6 fffa fff4     ................
   22a70:	fff2 fff8 fff8 fff3 fff2 fff6 fff9 fff2     ................
   22a80:	fff3 fff7 fff0 ffed ffed ffea fff0 fff7     ................
   22a90:	fff8 fff6 fff7 fff1 fff1 fff3 fff3 fffe     ................
   22aa0:	fff9 fff4 ffec fff0 fff3 ffef fffa fffb     ................
   22ab0:	fffc ffff 0001 fffe 0005 0007 0001 0004     ................
   22ac0:	fffd 0003 0008 0008 0006 000a 000c 0007     ................
   22ad0:	0009 0008 000b 0006 0005 0007 0006 000a     ................
   22ae0:	000d 0011 0016 0012 0010 000e 0002 fff8     ................
   22af0:	fffd 0005 ffff ffff 0002 0008 0001 0006     ................
   22b00:	000a 000d 0018 001a 0008 fffe fff8 fff6     ................
   22b10:	ffff 0003 000e 000d 0003 fff4 fffd 0000     ................
   22b20:	0004 0007 fffd 0000 fff9 fffa ffff 0000     ................
   22b30:	ffff fffa fff9 fff2 fff8 0003 0002 0005     ................
   22b40:	fff9 fff0 fffb fffe fffb fff9 fff9 ffff     ................
   22b50:	0002 0003 0006 000b 0004 000d 000f 000b     ................
   22b60:	0009 0012 001a 0014 0012 0009 fffe 0001     ................
   22b70:	fffe fffc fff8 fffa fffb 0005 0002 fff8     ................
   22b80:	fff3 0001 fffc fffd fffd 0000 0001 fff4     ................
   22b90:	fff6 fffc 0004 0004 0001 0003 0006 000e     ................
   22ba0:	0011 000e 0011 000f 0008 0000 0009 000a     ................
   22bb0:	0002 000a 0014 0017 0012 000b 0003 0003     ................
   22bc0:	000c 0012 0017 000e 000d 000b 000a 0019     ................
   22bd0:	001d 001a 0017 000d 0004 000f 000f 000b     ................
   22be0:	000a 0007 0007 0002 0003 0004 000a 0000     ................
   22bf0:	0007 000a 0006 0010 0011 001a 0011 0011     ................
   22c00:	0012 000e 0003 0004 000e 0004 0004 000d     ................
   22c10:	0005 000d 0019 0010 000a 000c 0001 fff4     ................
   22c20:	fff1 fff8 0000 fff8 ffeb ffee ffed ffe1     ................
   22c30:	ffef fffb fffb 0009 0003 0007 0007 0006     ................
   22c40:	000b 000e 0012 fffb fff3 fff5 fffc ffff     ................
   22c50:	fff5 ffe6 fff2 0007 000b 0002 fffd 000a     ................
   22c60:	0015 0010 0006 fffb fff1 fff4 0004 0008     ................
   22c70:	0006 fffc fff4 0000 fffe fffb 0004 ffff     ................
   22c80:	0008 0007 0003 0000 fff7 fff8 0001 fffe     ................
   22c90:	fffc fff9 fff2 ffe7 fff8 0007 0007 0009     ................
   22ca0:	0005 fffd 0001 0010 0008 fffb fff9 fffe     ................
   22cb0:	fffb fff0 ffee ffec ffea ffec fff4 fffc     ................
   22cc0:	fffd fff9 fff8 fff5 ffef fff7 0003 fffb     ................
   22cd0:	fffd fffd fffd 0003 0002 fffe fff9 fffd     ................
   22ce0:	000d 0014 0009 0008 0005 ffee ffed ffed     ................
   22cf0:	fff4 fff3 ffe9 ffe2 ffdb ffe4 ffdd ffdb     ................
   22d00:	ffe9 ffee ffe1 ffdc ffeb fff3 ffef fff1     ................
   22d10:	fff9 ffeb ffe9 ffed fff1 ffe9 ffe2 ffe5     ................
   22d20:	ffd1 ffce ffd3 ffda ffda ffd5 ffe0 ffe3     ................
   22d30:	ffe3 ffe6 0000 fff8 ffe4 ffef fffb 0002     ................
   22d40:	0009 0005 0008 0002 fff9 ffff 000e 0009     ................
   22d50:	fffe fff9 fff5 fff6 0006 0004 0006 ffff     ................
   22d60:	fff7 fffc fff3 ffed fffa ffee ffeb fff9     ................
   22d70:	000b ffff fffd 0016 000c fff0 fff2 0006     ................
   22d80:	0017 000f 0002 fffe fffa 0004 0002 0000     ................
   22d90:	fff8 fff4 fffd 0001 0002 fff1 fff1 fffb     ................
   22da0:	0002 0002 fff8 fffc 0002 0018 001b 0019     ................
   22db0:	0009 000d fffe ffff ffff 000d 0002 0005     ................
   22dc0:	000d 0011 0005 fff3 fff8 fff4 fffb fffb     ................
   22dd0:	0003 fffa fff7 fff9 0005 000b 0005 0010     ................
   22de0:	001b 0024 001f 0018 001f 0023 0020 0018     ..$.......#. ...
   22df0:	000f 000b 0015 0010 0016 0012 0005 fffd     ................
   22e00:	0007 0008 000e 0011 0010 000b ffe9 fff2     ................
   22e10:	0009 0010 0006 fffb fff6 fff8 0001 fffc     ................
   22e20:	0002 000a 001b 000f 000c 0018 0027 0027     ............'.'.
   22e30:	0023 0018 000d fffa ffef fffd 0015 0018     #...............
   22e40:	0001 0006 0024 0025 0019 0007 0015 0021     ....$.%.......!.
   22e50:	0017 0026 002b 003d 0024 0012 0013 0023     ..&.+.=.$.....#.
   22e60:	0031 000c 000b 001b 0039 003e 0034 0034     1.......9.>.4.4.
   22e70:	002f 0028 0036 0026 0020 0019 0013 0021     /.(.6.&. .....!.
   22e80:	0012 0011 000d 001d 0013 0017 0013 000e     ................
   22e90:	000b fffc fff6 0018 0026 0014 0005 fff6     ........&.......
   22ea0:	0009 0012 0001 0003 0008 fff7 fff1 fff5     ................
   22eb0:	fff1 ffef ffee ffe9 ffe9 ffe2 ffd2 ffd3     ................
   22ec0:	ffe2 ffdd ffdc ffd9 ffde ffe6 ffd7 ffdf     ................
   22ed0:	ffee ffef ffed ffe9 ffe9 ffff fff2 ffdf     ................
   22ee0:	fff7 0000 0001 fffa fff0 ffdf ffe3 ffdf     ................
   22ef0:	ffda ffe6 ffe1 ffe6 ffee fff1 fff3 0004     ................
   22f00:	0001 ffea fffc fff7 fff4 ffff 0012 000c     ................
   22f10:	0000 0011 000c 000f 0018 001c 0026 0029     ............&.).
   22f20:	000f 000e 0007 0012 0015 0017 000e fffd     ................
   22f30:	fff7 ffda ffe9 fff3 fff7 fffd 0010 0012     ................
   22f40:	000e 001d 0007 000a 001c 0012 000e 001c     ................
   22f50:	000a fff5 fffd fff1 fff4 000b 0006 0001     ................
   22f60:	000c 0007 fffe 0003 fffe fff2 ffed ffef     ................
   22f70:	fff1 ffdd ffe0 ffd7 fff4 fff4 ffe6 ffdc     ................
   22f80:	fff2 fffc ffef ffe2 ffdc ffd1 ffd8 ffe0     ................
   22f90:	ffd9 ffed ffe2 ffd9 ffe2 ffe8 ffe7 ffe5     ................
   22fa0:	fff3 0001 fffc ffe9 ffe7 ffeb ffef 0001     ................
   22fb0:	fff6 fffc fffb fffe ffe7 fff3 fffb 0008     ................
   22fc0:	0012 fffb ffff 0002 ffea ffd9 ffe5 ffe2     ................
   22fd0:	ffe3 ffe8 fff4 ffc9 ffbc fff0 ffed ffe8     ................
   22fe0:	ffe1 ffe6 fff1 ffd0 ffc2 fff3 0000 ffda     ................
   22ff0:	ffdb fff9 001b 0000 ffdd ffcd ffce ffd3     ................
   23000:	ffef 0005 0019 0007 ffef fff5 ffec ffef     ................
   23010:	0004 0020 001f fffd fffd 0013 001a 001a     .. .............
   23020:	001d 0021 001f 0018 000b fffb ffdd ffd6     ..!.............
   23030:	ffdc ffdc ffdc ffe3 fff2 fff9 ffe1 ffe2     ................
   23040:	ffee fff6 0000 0005 0000 0016 0031 0041     ............1.A.
   23050:	004a 0045 004c 004b 0047 0047 0053 0060     J.E.L.K.G.G.S.`.
   23060:	005a 0048 003e 003b 0038 0035 002e 0026     Z.H.>.;.8.5...&.
   23070:	0024 001e 0006 fff8 fff2 ffe0 ffd8 ffe4     $...............
   23080:	fffc ffdd ffd6 ffd4 ffd8 fff2 fff5 ffe9     ................
   23090:	ffeb ffea ffeb ffed ffed ffee ffe6 ffea     ................
   230a0:	ffe5 ffdf ffd5 ffcd ffc4 ffcd ffd9 ffcf     ................
   230b0:	ffd4 ffdc ffd7 ffd0 ffe3 fff7 ffef ffea     ................
   230c0:	0000 0001 0002 0000 000c 0025 001b 001d     ..........%.....
   230d0:	001a 0028 002c 001c 0021 002a 002c 001d     ..(.,...!.*.,...
   230e0:	0027 0030 0036 003d 004d 0052 0031 0034     '.0.6.=.M.R.1.4.
   230f0:	002c 003c 0039 002e 0032 0025 001d 0029     ,.<.9...2.%...).
   23100:	003e 003c 0042 0033 002c 0035 0041 0031     >.<.B.3.,.5.A.1.
   23110:	002e 0017 0010 0017 0015 0003 fff4 0012     ................
   23120:	000d 0002 fffb fffe 000f 0008 0008 fffb     ................
   23130:	0005 fffe fffe 000d 0001 ffff fff7 fff2     ................
   23140:	ffe3 ffda ffe7 ffdd fff8 fffc fff2 fff7     ................
   23150:	fff5 0005 0000 fffa fff3 fff8 000b fffd     ................
   23160:	fffe 0005 0000 0005 ffff 000f 0001 fffc     ................
   23170:	fffc fff4 fff4 ffe5 0005 0010 000d fffd     ................
   23180:	fff0 ffeb fff9 ffe9 ffe2 ffe8 ffed fff9     ................
   23190:	0002 fffe 0003 000e 0016 000c 0002 0009     ................
   231a0:	0018 001b 0010 0015 0005 0003 ffea fff1     ................
   231b0:	0002 0000 000b 0009 000f 000d 0000 000a     ................
   231c0:	0020 0018 fffc 0002 000e 0008 000c 000a      ...............
   231d0:	000c 0015 0013 fffe 0004 0005 ffee 0004     ................
   231e0:	0016 0018 001d 0009 0003 0013 0011 0000     ................
   231f0:	fff8 ffeb ffe1 ffec fffa 0009 0002 ffed     ................
   23200:	ffeb ffe7 ffd6 ffe1 fffa 0018 fffc ffe5     ................
   23210:	ffd6 ffe2 fff5 ffe2 ffde ffde fff5 ffea     ................
   23220:	ffda ffdd ffee fffd fff1 fff9 fff0 ffe5     ................
   23230:	fff2 0003 000b ffeb ffdc ffd7 ffd3 ffd3     ................
   23240:	ffea fff4 fff7 ffe9 fff3 0001 fff0 fff8     ................
   23250:	ffea fff6 ffe6 ffdc fff0 ffd0 ffcd ffd8     ................
   23260:	ffe8 ffda ffd5 ffd5 ffe1 ffe7 ffdb ffef     ................
   23270:	0001 ffe4 ffd8 ffd6 ffde ffd2 ffd1 ffdd     ................
   23280:	ffc4 ffc8 ffcc ffde ffe5 ffd8 ffd0 ffd5     ................
   23290:	ffdf fff0 ffe7 ffd8 ffe4 fff2 ffff 0006     ................
   232a0:	000c 0001 000b 0004 fff7 fff9 ffff 0016     ................
   232b0:	0008 fffc fff0 ffec ffe9 ffdd ffe6 fff5     ................
   232c0:	fff2 ffe1 ffc7 ffdf ffdf fff9 0010 fff9     ................
   232d0:	fff3 ffec fff1 ffe9 ffe6 0001 fff1 ffe3     ................
   232e0:	fff2 0006 000f 0003 fffe 0007 0013 001b     ................
   232f0:	001f 0016 001a 0028 0028 0038 002d 0023     ......(.(.8.-.#.
   23300:	0024 0023 0030 002e 001b 0006 0004 000e     $.#.0...........
   23310:	001f 001d 000e 0004 0006 0002 0006 000a     ................
   23320:	0007 000b 000a fffa fffd 0001 0014 0012     ................
   23330:	0009 0014 001f 0016 001a 0025 0007 000e     ..........%.....
   23340:	0013 0026 0035 002b 002a 002b 001d 0006     ..&.5.+.*.+.....
   23350:	000a 0009 000b fffa fffb 0000 0007 0011     ................
   23360:	0009 0015 001f 002f 0030 0034 003f 0035     ....../.0.4.?.5.
   23370:	003f 0047 003f 003d 003f 0030 0027 001f     ?.G.?.=.?.0.'...
   23380:	0031 0030 0025 001a 001d 0023 0030 0026     1.0.%.....#.0.&.
   23390:	001d 0016 0003 000c 0008 0000 0006 0012     ................
   233a0:	0013 000a 000f 0019 0013 0017 0022 000b     ............"...
   233b0:	001c 002a 001f 0015 0005 fff6 ffee fff7     ..*.............
   233c0:	fffe 0006 ffff fff7 ffec ffe8 0002 0004     ................
   233d0:	0009 000f ffff 000d 0009 000e 001c 0012     ................
   233e0:	ffff fff7 fff8 ffec ffdd ffec fffe fff3     ................
   233f0:	fff9 ffea ffd1 ffd1 ffec fff4 fff4 fff2     ................
   23400:	ffea ffdb ffde ffee ffe7 fffd fff6 ffe4     ................
   23410:	ffee 0001 000e 0022 002c 002d 0027 000a     ......".,.-.'...
   23420:	0001 0000 0008 0018 000e 0013 000a fffe     ................
   23430:	0005 0000 fffe 000a 001d 0010 0001 0012     ................
   23440:	0023 0037 002c 0019 0013 0012 0014 fffa     #.7.,...........
   23450:	ffed fff1 fff1 fff3 fff2 ffe8 ffe4 ffd5     ................
   23460:	ffd0 ffdc fff3 fffa fff5 ffee ffde ffd7     ................
   23470:	ffdb fff7 fff6 fff8 ffe9 ffda ffea ffee     ................
   23480:	ffea ffe1 ffdf fffb fffd fff5 ffed ffe5     ................
   23490:	0000 0001 fff0 fff1 fff1 0005 000f 0000     ................
   234a0:	ffeb ffe7 ffec ffee ffe8 ffdc ffd9 ffd5     ................
   234b0:	ffdf ffe0 ffc8 ffd5 ffe3 ffef fff9 0010     ................
   234c0:	0019 0010 ffff 0002 0005 0006 fff8 ffeb     ................
   234d0:	ffec ffd4 ffd4 ffd2 ffcc ffc5 ffca ffd2     ................
   234e0:	ffd1 ffb6 ffb2 ffaa ffbc ffd7 ffdf ffde     ................
   234f0:	ffd4 ffcb ffcb ffdf ffdb ffd2 ffd1 ffde     ................
   23500:	ffd6 ffe2 ffef fffd fffb fff1 0004 0015     ................
   23510:	0011 000a 0009 0003 ffff fff4 0004 0003     ................
   23520:	fffd 0002 fff1 ffe9 ffef 0009 0025 0015     ............%...
   23530:	000d 0012 0011 0017 0009 ffff 0002 000d     ................
   23540:	0003 0002 0001 fff5 ffef ffdf fff7 ffe7     ................
   23550:	ffe4 fff8 000c 0016 000a 001d 0024 001e     ............$...
   23560:	0013 0018 0023 0021 0027 0025 0027 0026     ....#.!.'.%.'.&.
   23570:	0015 0000 ffff 0006 0002 fff7 fff2 ffed     ................
   23580:	fff3 fff2 ffe4 fff9 000b 000a 0019 001e     ................
   23590:	0009 000e 0010 fffc ffed fff4 fffa fffe     ................
   235a0:	fff6 ffe7 ffe1 ffff 000b 0009 0017 0018     ................
   235b0:	001b 002a 0032 0026 0019 0015 0013 0011     ..*.2.&.........
   235c0:	0010 0010 000e 0007 fff4 ffde ffe9 fffd     ................
   235d0:	0006 0019 0027 0030 002e 003e 0050 004a     ....'.0...>.P.J.
   235e0:	004c 0047 003c 0032 001d 0018 001e 000e     L.G.<.2.........
   235f0:	0005 0004 fffb fffd 0004 0028 002a 0031     ..........(.*.1.
   23600:	0025 0027 0028 0016 002b 002c 0010 ffff     %.'.(...+.,.....
   23610:	ffef ffe3 fff9 0006 0005 001c 002d 0026     ............-.&.
   23620:	0015 001d 0016 001a 0023 0032 0039 000a     ........#.2.9...
   23630:	ffeb ffe4 ffee ffed ffe9 ffe1 ffcd ffda     ................
   23640:	fff5 0008 0015 0008 fffc ffff 0001 000b     ................
   23650:	0005 0017 001a 0021 0017 fff8 fffd 000a     ......!.........
   23660:	0016 0014 0006 fff9 0000 000a 000f 0020     .............. .
   23670:	0014 0010 0024 0033 002c 0003 ffed ffe5     ....$.3.,.......
   23680:	ffda fffa fff7 ffd2 fffa ffe1 ffb4 ffd7     ................
   23690:	0001 0006 0001 0022 0007 ffe2 ffe8 fff9     ......".........
   236a0:	0014 0017 0026 0025 0012 0007 ffed ffe0     ....&.%.........
   236b0:	ffcd ffdc ffdc ffe6 0004 0000 fff8 000e     ................
   236c0:	0015 0014 0015 001f 0026 0038 004a 0042     ........&.8.J.B.
   236d0:	0029 0029 001a 0013 001d 001b 0018 0019     ).).............
   236e0:	001b fff8 ffe4 ffd1 ffd9 ffd8 ffd1 ffc3     ................
   236f0:	ffc7 ffd1 ffdb ffd8 ffcb ffce ffc8 ffc7     ................
   23700:	ffd1 ffc1 ffa2 ff96 ffa7 ffa7 ffaf ffa8     ................
   23710:	ffb8 ffc5 ffc2 ffd9 ffd6 ffe3 000a 0008     ................
   23720:	0008 000f 0010 0004 0003 0007 0010 000d     ................
   23730:	0014 0022 0020 0014 0014 0010 001b 0013     ..". ...........
   23740:	fffb 0000 0000 fffd fff5 fff9 fff7 ffff     ................
   23750:	fff8 fff6 0002 0008 000e fff8 fff0 0000     ................
   23760:	fffe fffa 0001 0004 fffe 0007 0014 0003     ................
   23770:	fff4 ffe7 ffe9 fff8 fff1 fffe fffc ffe9     ................
   23780:	ffd2 ffd6 ffdc ffca ffc2 ffd1 ffe5 ffdb     ................
   23790:	ffc3 ffbd ffd0 ffe7 fffd ffef ffe6 ffe4     ................
   237a0:	ffe6 ffe3 ffd2 ffdb fff0 fff3 ffe1 ffe6     ................
   237b0:	fff0 ffeb ffe7 fffb 000a 0009 fff3 fff5     ................
   237c0:	ffe1 ffdf ffe4 ffd5 ffc4 ffdc ffef ffea     ................
   237d0:	fff6 0012 0022 002d 0033 0045 004a 002e     ....".-.3.E.J...
   237e0:	0018 0014 0017 000c 0000 fff7 ffe1 ffe2     ................
   237f0:	fffa 002d 0045 004c 0060 0054 0052 004e     ..-.E.L.`.T.R.N.
   23800:	002a 000a fff6 ffe9 ffda ffce ffc9 ffc4     *...............
   23810:	ffd8 fff2 0009 000b 001a 0033 0041 0050     ..........3.A.P.
   23820:	0061 004e 0043 0033 0011 ffea ffe6 ffe3     a.N.C.3.........
   23830:	ffd9 ffc9 ffcd fff0 fff0 0000 0015 003b     ..............;.
   23840:	004a 0038 003a 003f 0051 002f 0023 0036     J.8.:.?.Q./.#.6.
   23850:	0034 001b 001a 000f 0005 0000 ffff 0006     4...............
   23860:	0021 0018 0019 000a 000c 0027 002a 0045     !.........'.*.E.
   23870:	fff2 fffb fffe 0068 008d 005c ffe6 ff9e     ......h...\.....
   23880:	ffc8 0005 0045 0037 0016 000e ffe5 ffc7     ....E.7.........
   23890:	ffb3 ffc8 ff8d ff37 ff44 ff9a 003e 0035     ......7.D...>.5.
   238a0:	0020 0029 0085 00da 00db 00b1 006f 0038      .).........o.8.
   238b0:	0024 0007 ffe2 ff96 ff8f ff8c ff8a ffb2     $...............
   238c0:	ffa4 ff99 ff8d ffc9 ffe1 ffcd ffc0 ff9e     ................
   238d0:	ffba ffcd 001b 001d 0006 fff8 ffee 0033     ..............3.
   238e0:	0053 005d 0032 0014 0036 0067 008a 0060     S.].2...6.g...`.
   238f0:	0045 0043 0064 0070 0040 003f 001b fffa     E.C.d.p.@.?.....
   23900:	0006 003b 003e 0013 0012 0013 001c 0016     ..;.>...........
   23910:	fffe ffef ffd9 ffe3 fffa fffe fff5 ffe2     ................
   23920:	ffe3 ffdf ffe1 ffe2 ffd2 ffb3 ff8b ff97     ................
   23930:	ff8d ff65 ff3d ff3f ff5a ff50 ff61 ff69     ..e.=.?.Z.P.a.i.
   23940:	ff90 ffaa ffc8 fff7 0001 0000 ffdc ffea     ................
   23950:	fff5 ffdf ffbe ffa3 ffc8 ffe1 ffe3 ffe6     ................
   23960:	ffed 0011 0034 006d 007f 0078 0065 005f     ....4.m...x.e._.
   23970:	0075 0067 0040 0022 001f 0026 0036 003d     u.g.@."...&.6.=.
   23980:	0028 0034 0054 0069 006d 0087 0077 007f     (.4.T.i.m...w...
   23990:	008f 008a 008c 0086 007c 005b 0049 003a     ........|.[.I.:.
   239a0:	0033 0038 0011 000f 000b fffb 0006 001c     3.8.............
   239b0:	002f 002a 001a 001d 0035 0027 0026 000b     /.*.....5.'.&...
   239c0:	fff3 ffe7 ffc9 ffbf ffba ffb6 ff9d ff96     ................
   239d0:	ff9f ff8d ff8d ff9e ffcc ffd6 ffd9 ffce     ................
   239e0:	ffa8 ffac ffa6 ff9d ff9d ff83 ff71 ff5b     ............q.[.
   239f0:	ff5d ff50 ff6c ff89 ff96 ff84 ffa3 ffb6     ].P.l...........
   23a00:	ffb3 ffbb ffab ffa9 ffa8 ffbb ff91 ff85     ................
   23a10:	ff86 ff73 ff61 ff65 ff96 ff9b ff97 ff9f     ..s.a.e.........
   23a20:	ffb8 ffe2 ffe5 ffdd ffd8 ffe1 fff5 0004     ................
   23a30:	0004 0009 0009 fffa fffb fffe 0013 0031     ..............1.
   23a40:	002f 000b 000c 0027 0021 fffa fff0 0021     /.....'.!.....!.
   23a50:	0042 002b 003a 0034 0037 003e 0055 0049     B.+.:.4.7.>.U.I.
   23a60:	002a 003a 0047 0064 0068 0060 0041 0037     *.:.G.d.h.`.A.7.
   23a70:	0046 0056 0060 0052 0064 0050 003c 0058     F.V.`.R.d.P.<.X.
   23a80:	007b 007f 0073 0081 0070 0054 003e 003c     {...s...p.T.>.<.
   23a90:	0037 0025 002d 001a 001b 0027 0022 0009     7.%.-.....'."...
   23aa0:	fff6 000f 0020 0025 fffe fff8 ffeb fff6     .... .%.........
   23ab0:	0019 0017 0003 ffe8 ffde ffed 0000 0008     ................
   23ac0:	0004 fff9 ffe0 ffd5 ffd4 ffcb ffbb ffc5     ................
   23ad0:	ffd9 ffc1 ffac ffbb ffcf ffec fffc fff4     ................
   23ae0:	fffd 0000 0024 0022 0016 0011 0009 ffea     ....$.".........
   23af0:	ffcf ffcb ffe1 fff3 ffdc ffd8 0007 002a     ..............*.
   23b00:	0047 004f 005c 0055 0038 000d 0006 0021     G.O.\.U.8.....!.
   23b10:	0028 0015 ffd2 ffa7 ffb8 ffd2 fff2 ffeb     (...............
   23b20:	fff1 fff4 fff8 001e 004e 0045 0018 000a     ........N.E.....
   23b30:	0011 0025 0022 fffc ffc7 ffac ffcb fff5     ..%."...........
   23b40:	ffe9 ffdb ffd1 0003 002c 002c 0027 000a     ........,.,.'...
   23b50:	000f 0010 003c 004a 0020 fffb 001c 003a     ....<.J. .....:.
   23b60:	003b 003b 001a 0020 001e 0022 0009 0003     ;.;... ...".....
   23b70:	fff2 0004 0020 0020 0008 ffe0 fff4 0036     .... . .......6.
   23b80:	0065 007a 0049 0031 0048 0060 004f 0028     e.z.I.1.H.`.O.(.
   23b90:	fff8 ffdf 0005 0005 0001 ffe4 ffee 0007     ................
   23ba0:	000b 001b 0027 0021 000b 0005 000b fff2     ....'.!.........
   23bb0:	ffdb ffc5 ffce ffea ffe7 ffc4 ffce ffff     ................
   23bc0:	002c 003d 003e 0037 004f 005e 0059 0055     ,.=.>.7.O.^.Y.U.
   23bd0:	002c 000e 0008 000e 0002 ffe9 ffdb ffe2     ,...............
   23be0:	ffda fffa 0019 0028 0023 002b 002b 001d     ......(.#.+.+...
   23bf0:	000a fffb fff0 ffd4 ffdb ffcf ffd4 ffd9     ................
   23c00:	ffdd ffdc ffe1 fff7 fff3 000a fffd fff3     ................
   23c10:	ffdb ffc6 ffce ffae ff83 ff7b ff77 ff76     ..........{.w.v.
   23c20:	ff74 ff93 ffba ffd1 ffe6 ffe0 0003 002b     t.............+.
   23c30:	0036 fff7 ffe2 ffd4 ffda ffda ffcc ffb1     6...............
   23c40:	ffa5 ffa2 ffa6 ffb3 ffc0 ffd1 fff3 0006     ................
   23c50:	0002 fffb ffed 0006 0005 0010 000e 001a     ................
   23c60:	0014 0004 ffe8 fff6 0002 fff0 fff6 0004     ................
   23c70:	fff0 ffec fff7 fff5 0000 000d 0012 000b     ................
   23c80:	000d 0015 0002 ffff 0000 0024 0041 0039     ..........$.A.9.
   23c90:	fffd ffde ffe0 001d 000e ffeb ffde ffe2     ................
   23ca0:	fff2 fff0 0008 000c 0005 fff7 0008 002e     ................
   23cb0:	0016 fff4 fff0 fffb 000e fff1 ffd0 ffaf     ................
   23cc0:	ffbf ffcd fff7 0010 0007 0011 003b 0035     ............;.5.
   23cd0:	0030 001d 0015 0011 0019 000d fff0 ffcc     0...............
   23ce0:	ff92 ff9b ff9a ffb3 ffbc ffb3 ffa3 ffb6     ................
   23cf0:	ffeb ffe0 ffe5 ffcc 003d 0060 0056 002c     ........=.`.V.,.
   23d00:	0033 004a 003c 004e 003f 0013 ffbd 0004     3.J.<.N.?.......
   23d10:	fffb fff7 ffd7 fff2 ffe0 ffe6 ffe3 ffed     ................
   23d20:	ffe2 ffd7 ffea ffc8 ffc2 ffdd ffe9 ffd6     ................
   23d30:	fffb ffe6 001b 0044 0051 001d 0014 0015     ......D.Q.......
   23d40:	000d 0006 ffd3 ffd2 ffd8 ffb4 ffb5 ffcb     ................
   23d50:	0004 0005 002a 004c 0045 0034 0041 004f     ....*.L.E.4.A.O.
   23d60:	000b fffb fff3 0006 fff7 ffce ffe0 ffdd     ................
   23d70:	ffef fff6 0041 0064 0014 0047 007d 006e     ....A.d...G.}.n.
   23d80:	004c 003c 003b 0009 fffe ffff fffd ffbb     L.<.;...........
   23d90:	ffbd fffe 003a 000b 0028 0041 0057 0074     ....:...(.A.W.t.
   23da0:	005e 0059 0026 001d 0028 0034 ffef ffc7     ^.Y.&...(.4.....
   23db0:	ffca ffb6 ffd2 0004 000a ffeb 0000 001a     ................
   23dc0:	0045 002e 001d 0040 003a 003b 0015 0011     E.....@.:.;.....
   23dd0:	0001 0033 003e 0033 0024 0007 002a 0025     ..3.>.3.$...*.%.
   23de0:	001b fffd ffe0 ffe6 0013 002b 000f ffd9     ..........+.....
   23df0:	ffee 002c 0032 003d fffa ffea ffee 001d     ..,.2.=.........
   23e00:	0011 ffea ffc1 ffaf fff2 fff9 fffd ffdd     ................
   23e10:	fffa 001d 0030 004b 0043 0019 0014 002c     ....0.K.C.....,.
   23e20:	0027 000d ffec ffe4 ffd1 ffe3 000f 0007     '...............
   23e30:	ffd6 ffee 004d 005f 0031 0010 0029 0042     ....M._.1...).B.
   23e40:	0047 0062 0028 ffd4 ffab ffdf 0006 ffb9     G.b.(...........
   23e50:	ff83 ff7f ffc1 ffec fffa fff2 fffe 003f     ..............?.
   23e60:	006e 005d 0029 fff8 000f fff1 000e 000c     n.].)...........
   23e70:	ffdb ff60 ff84 ffe9 0018 fffd ffce 0019     ..`.............
   23e80:	0069 0073 0051 0009 ffc5 ffc8 ffc1 0008     i.s.Q...........
   23e90:	0034 0029 0004 0011 003a 007e 004b fff9     4.).....:.~.K...
   23ea0:	ffce ffd1 fff4 fff6 fff0 ffc9 ffd1 ffcd     ................
   23eb0:	fff4 fff8 ffe2 fffa 0010 0019 ffd9 ff96     ................
   23ec0:	ff8c ffd0 ffec ffa9 ff5c ff5a ffa5 ffaf     ........\.Z.....
   23ed0:	ff9e ffa2 ffd1 fff3 0019 000d fff4 fffc     ................
   23ee0:	fff5 fff4 fffe 000c 0004 ffd9 ffe0 ffef     ................
   23ef0:	002b 0009 ffd9 ffc0 ffec 001f 000f fffd     +...............
   23f00:	ffcd ffde ffd1 001c 0003 ffc4 ffca fff7     ................
   23f10:	001b fff7 ffe6 ffd6 fff7 0002 fff4 0014     ................
   23f20:	ffd5 ffd8 ffcd fff6 0001 ffc8 ff9d ff77     ..............w.
   23f30:	ffaa ffc4 ffea ffdc ffa2 ffda 0018 fffd     ................
   23f40:	ffa2 ffa5 ffcd fff5 ffe9 0004 ffd2 ffb2     ................
   23f50:	ffff ffed ffdc ffae ffea 0012 000f ffec     ................
   23f60:	ffe8 fffe 0021 0062 004a 0032 0023 0057     ....!.b.J.2.#.W.
   23f70:	0073 0045 0019 ffff 001e 004c 0034 0006     s.E.......L.4...
   23f80:	ffe4 ffd6 ffff 001b 0035 0012 000e 0067     ........5.....g.
   23f90:	008d 008f 0062 0061 0069 0097 0070 001d     ....b.a.i...p...
   23fa0:	0015 0001 0003 000d fff5 ffe6 fff3 002f     ............../.
   23fb0:	006a 006f 0066 004e 005e 0083 0060 0017     j.o.f.N.^...`...
   23fc0:	ffe1 fffa 0036 002c fff6 ffb9 ffc5 ffdd     ....6.,.........
   23fd0:	fffc fffa fffd 0005 001a 0022 0002 ffe8     ..........".....
   23fe0:	000a 001b ffce ffb8 ff92 ff94 ffb9 ffbf     ................
   23ff0:	ffe3 ffde 000d 001a ffe3 fff9 0016 000f     ................
   24000:	ffc3 ff96 ff80 ff86 ffad ffd4 ffab ffb2     ................
   24010:	ffdf 003e 0035 ffe0 ffec fff4 001d ffdc     ..>.5...........
   24020:	ffb7 ffa3 ff8e 000c fff1 ffde ff9b ffdf     ................
   24030:	000e fffa 001f 000e 0038 0007 0034 0048     ........8...4.H.
   24040:	0057 003a fff3 002c 0053 007b 0043 0037     W.:...,.S.{.C.7.
   24050:	001b 0058 0065 0020 ffcf ffb1 0000 0014     ..X.e. .........
   24060:	0026 fffc ffef ffda fff4 003e 0064 004e     &.........>.d.N.
   24070:	004f 008a 0094 00ba 0095 005d 0043 0075     O.........].C.u.
   24080:	006e 0016 ffe7 ffc1 0003 fff5 fff0 ffb9     n...............
   24090:	ffa2 fff6 0035 003d 0042 fffc ffe7 0037     ....5.=.B.....7.
   240a0:	0065 0065 0032 001e 000f 0024 0013 0000     e.e.2.....$.....
   240b0:	001d 0015 002e fff7 0011 001c 0014 0008     ................
   240c0:	0028 0031 0002 0021 002e 0057 0029 000c     (.1...!...W.)...
   240d0:	fff8 000c 003d 0016 ffe7 ffde 0027 0031     ....=.......'.1.
   240e0:	0015 ffe7 ffd3 0009 0019 0007 ffe8 fff7     ................
   240f0:	0009 ffda ffdc fff9 0006 ffce ff9f ff7c     ..............|.
   24100:	ffa7 ffb5 ffbc ff93 ffa8 ffe4 fff6 ffe3     ................
   24110:	ff92 ffbf ffbd ffca ffb0 ffb1 ffc2 ff8c     ................
   24120:	ffc8 ffd6 fff7 ffd1 ffb1 ffb5 ffc5 0017     ................
   24130:	000b 0001 ffbb ffdc ffde ffb8 ffb1 ff8b     ................
   24140:	ffa4 ffb3 ffd1 ffd8 ffcb ffba ffcd 0005     ................
   24150:	0018 0009 ffd7 ffd5 ffd4 0015 003b 0014     ............;...
   24160:	ffe5 ffd9 fff5 ffe9 ffd0 ffa0 ffc2 ffd6     ................
   24170:	0002 ffe9 ffb2 ffce ffbf ffef 000a 001b     ................
   24180:	0017 0007 0002 0014 0031 001b 0002 fff3     ........1.......
   24190:	000c 000f ffff ffee ffc9 ffc5 ffc2 ffba     ................
   241a0:	ffe7 0033 003f 0039 004b 004f 002b fffe     ..3.?.9.K.O.+...
   241b0:	000d ffff ffe1 ffb5 ffbf ffd5 ffcd ffc4     ................
   241c0:	ffd6 fffa fff2 fffd fffa 0007 000e fffe     ................
   241d0:	ffee 0000 0026 0020 000f 0002 fffb fff5     ....&. .........
   241e0:	ffdd ffe6 ffe2 fff5 ffef ffe6 ffe1 ffaa     ................
   241f0:	ffbb fff0 000f 0036 0033 0025 0034 005e     ......6.3.%.4.^.
   24200:	0055 0026 fffa ffe0 fff2 fff1 ffbe ffb6     U.&.............
   24210:	ffc2 ffd2 ffe7 0004 0009 ffea 0024 0050     ............$.P.
   24220:	003b 0031 002d 0036 004e 0065 0041 0022     ;.1.-.6.N.e.A.".
   24230:	fff9 ffd3 ffea 0008 001c 002b 0021 0020     ..........+.!. .
   24240:	0026 003d 0016 0005 0000 fff6 0015 0006     &.=.............
   24250:	0027 fffa ffed 001e 0038 002d ffe0 0019     '.......8.-.....
   24260:	0031 0061 0055 0004 ffd9 ffdf 0018 000e     1.a.U...........
   24270:	ffc7 ff97 ffe9 0013 001e 0023 0018 0033     ..........#...3.
   24280:	0047 004d 0020 000d 0005 0025 002f 0036     G.M. .....%./.6.
   24290:	003d 0007 0004 0001 0015 0021 000d ffda     =.........!.....
   242a0:	ffd5 000a 0025 0019 ffe4 fff6 0035 0033     ....%.......5.3.
   242b0:	0061 0027 0035 006f 0050 0029 001e 0037     a.'.5.o.P.)...7.
   242c0:	0018 fff2 ffba ffeb 0003 ffee 0022 0052     ............".R.
   242d0:	004e 0015 0018 000e 0020 0031 002d ffff     N....... .1.-...
   242e0:	ffe5 0034 0016 000c ffc9 ffea 0004 0012     ..4.............
   242f0:	002c ffc7 fff9 0028 0049 002e 0026 ffec     ,.....(.I...&...
   24300:	0015 0031 fffb 0003 ffd7 ffdf 0004 0043     ..1...........C.
   24310:	0034 000c fff8 0003 0031 000a ffd2 ffbc     4.......1.......
   24320:	ffeb fff8 ffdd ffd0 ffc4 ffe4 ffdd fffb     ................
   24330:	0014 0022 002b 0043 003c 001e 0015 0017     ..".+.C.<.......
   24340:	0015 fff2 ffff fff0 0019 0035 000d ffcc     ..........5.....
   24350:	ffea 0049 0051 000b ffd2 ffdd 0006 0023     ..I.Q.........#.
   24360:	ffb4 ff99 ffb2 0009 0018 ffa5 ff73 ffb4     ............s...
   24370:	0020 ffe4 ffb2 ffda ffcb fff1 0008 fffd      ...............
   24380:	ffc1 ffde fffa ffc7 ffc0 ffd3 fff5 ff9e     ................
   24390:	ffa2 ffea 001b 0015 ffbe ffa2 ffbe 000a     ................
   243a0:	0021 ffd7 ff8f ffa2 ffcc ffd8 ffc5 ffb0     !...............
   243b0:	ffdb ffef 0007 0042 0022 ffe7 000d 0035     ......B.".....5.
   243c0:	002d 0037 000b ffff fff5 0027 002d ffff     -.7.......'.-...
   243d0:	ffcf ffa5 ffd4 000d 0056 0031 ffe5 ffa3     ........V.1.....
   243e0:	ffda 0026 0021 ffce ffa7 ffdc 0033 0060     ..&.!.......3.`.
   243f0:	ffe8 ff89 ff98 0027 0076 001b ffdd ff6d     ......'.v.....m.
   24400:	ffb4 ffe7 0007 ffc8 ff68 ffbc ffd6 0010     ........h.......
   24410:	fff0 fff0 ffdf ffd5 ffe2 ffda ffff ffb4     ................
   24420:	ffd1 ffbd ffda fff8 001a 0036 fff1 ffe1     ..........6.....
   24430:	000e 0046 0030 0001 fff2 002a 0051 0073     ..F.0.....*.Q.s.
   24440:	0053 0035 0023 0030 0019 ffd6 ff9f ffaf     S.5.#.0.........
   24450:	000e 000f ffc1 ffa6 ffd8 fff1 002c 0045     ............,.E.
   24460:	000f 0003 ffff 0023 0001 ffd3 ffb9 0006     ......#.........
   24470:	0044 001a fffe ffd8 0024 000f 0026 003f     D.......$...&.?.
   24480:	ffff 0005 002a 0013 fff1 0028 0019 ffc9     ....*.....(.....
   24490:	ffbb ffec 0028 0019 fff2 0018 0052 005d     ....(.......R.].
   244a0:	0044 0021 0010 000b 0001 001a 005f 0068     D.!........._.h.
   244b0:	ffe8 ffb0 ffea 0033 002e fff4 ffa1 ffea     ......3.........
   244c0:	007b 0049 0008 ffe7 ffed 0032 0014 ffd9     {.I.......2.....
   244d0:	ff85 ffb7 fff4 ffe0 ff9a ff82 ffe0 ffee     ................
   244e0:	fff1 ffac ffa2 0009 0042 0034 ffd7 ffe8     ........B.4.....
   244f0:	fffd 005a 0040 ffd5 ffee 0020 0066 0018     ..Z.@..... .f...
   24500:	0042 001b fff1 ffff ffef 002c 0020 0035     B.........,. .5.
   24510:	ffe8 ffd8 0004 0031 0022 ffcb 000a 0053     ......1.".....S.
   24520:	008c 0022 ffb8 ffb6 ffed 0062 0066 0048     ..".......b.f.H.
   24530:	ffff 002d 0074 0095 0046 ffe7 0036 0026     ..-.t...F...6.&.
   24540:	004e 0003 fff1 ffee ffdf 0010 fff4 000f     N...............
   24550:	0006 003a 0031 0035 005a 0095 0082 002d     ..:.1.5.Z.....-.
   24560:	0030 0029 003b 0040 0027 0002 001c 0040     0.).;.@.'.....@.
   24570:	0037 001e fff2 ffe6 fffe ffe5 ffe8 ffc3     7...............
   24580:	ffce ffe0 0029 0000 ffc0 ffe2 fff5 0028     ....).........(.
   24590:	0038 0035 0005 0007 0025 0001 ffff fffd     8.5.....%.......
   245a0:	0039 0012 fff1 ffd6 0013 004d fff4 ff9e     9.........M.....
   245b0:	ffad 000a 0030 fffd ff79 ff79 ffd5 0013     ....0...y.y.....
   245c0:	0017 fff1 0002 000b 0023 001b 0005 ffd7     ........#.......
   245d0:	ffc6 0003 fff8 ffda ffe5 ffe1 ffde ffed     ................
   245e0:	0035 0017 ffd4 ffd0 ffcb 0007 0000 ffee     5...............
   245f0:	ffd3 ffd2 0014 001e 0010 ffbd ffbe ffb9     ................
   24600:	ffc6 0003 ffbe ffd3 ffbc fffe 0008 ffd2     ................
   24610:	ffdb ffac 0003 0005 ffdd ff84 ffa7 001f     ................
   24620:	000f ffef ffc2 ffe9 fff7 0021 0034 ffcb     ..........!.4...
   24630:	ffd1 ff84 ffd8 0004 ffd7 ffbc ffa1 ffd7     ................
   24640:	fff3 0045 fff3 ffa5 ff9d ffd8 0034 001f     ..E.........4...
   24650:	ffdf ffbe 0014 006f 0048 ffe2 ffc7 0003     ......o.H.......
   24660:	001f 0051 0042 fffa ffba 000a 005f 0000     ..Q.B......._...
   24670:	ffdd ffc3 ffe9 fff4 003e 0014 ffb3 ffe8     ........>.......
   24680:	0015 003a 0011 fff9 fff3 ffc2 fff8 003d     ..:...........=.
   24690:	0044 ffca ffa2 ffc8 ffee 002f 000d fff6     D........./.....
   246a0:	ffcd 0028 0066 0033 ffdf ffa0 ffcd ffcd     ..(.f.3.........
   246b0:	fff7 ffc2 ff96 ff9c ffdc 002c fff9 fff9     ..........,.....
   246c0:	000d 003c 0058 002a 000b ffc2 ffe3 ffe2     ..<.X.*.........
   246d0:	ffd5 fff0 ffe3 0013 fff9 ffe3 ffd4 0002     ................
   246e0:	fff3 ffcd ffbf ffca fff7 ffde ffb4 ff8a     ................
   246f0:	ff8a ffe6 0007 fffb ffd3 ffe7 000d 0021     ..............!.
   24700:	0048 ffed fffd ffc7 ffab ffcf fff3 ffbd     H...............
   24710:	ffa0 fffa 0019 004c 0016 ffd4 ffdd ffd5     ......L.........
   24720:	0032 001e fff1 ffce ffb8 0003 000f fff6     2...............
   24730:	ffe3 0005 002a 0045 0041 0025 0004 ffeb     ....*.E.A.%.....
   24740:	0020 0059 0077 006d 0039 0005 0040 005e      .Y.w.m.9...@.^.
   24750:	0040 004e ffda 001c 0042 0071 0015 ffd8     @.N.....B.q.....
   24760:	0014 0045 009d 0059 0042 fff4 0050 0070     ..E...Y.B...P.p.
   24770:	0047 0022 ffe0 0019 0032 0060 0024 ffea     G.".....2.`.$...
   24780:	003b 0029 0045 0021 fff6 002a ffe8 ffdc     ;.).E.!...*.....
   24790:	ffec 0024 0010 ffde ffe7 001e 0039 0020     ..$.........9. .
   247a0:	003f 0006 ffff 003a 0037 002b 0008 0008     ?.....:.7.+.....
   247b0:	0001 004b 008b 003a 0019 0026 0058 0087     ..K...:...&.X...
   247c0:	003e ffb4 ff9d fffb 0035 fff9 ff8c ff5f     >.......5....._.
   247d0:	ffbf 003c 004c fffb ffb5 0023 0040 0032     ..<.L.....#.@.2.
   247e0:	ffe3 ffb5 ffe6 ffeb 0010 0023 0010 0001     ..........#.....
   247f0:	0008 fff4 002c 002e 000a fffa ffec 0054     ....,.........T.
   24800:	0061 ffd9 ffc0 ffd7 fff7 ffff ffb1 ffab     a...............
   24810:	ff9b ffbe 0008 0005 ffd0 ffcc 0006 0028     ..............(.
   24820:	fffe ffe7 ffcd fff9 0028 0047 fffc ffc4     ........(.G.....
   24830:	ffd5 002a 004f ffd8 ff82 ffae 0005 0015     ..*.O...........
   24840:	ffe0 ff8b ff74 ffd9 0070 0049 ffb7 ffa5     ....t...p.I.....
   24850:	000a 0080 007a 002c ffc1 ffec 0014 0029     ....z.,.......).
   24860:	0016 ffcc ffd6 ffc8 ffe4 ffde ffe2 0040     ..............@.
   24870:	0035 0048 0038 0058 0057 0044 0063 003c     5.H.8.X.W.D.c.<.
   24880:	ffef ffb9 ffec ffe4 ffa2 ffac ffe8 ffda     ................
   24890:	ff90 ffb2 fffb 002d 0003 ffef ffe9 0045     ......-.......E.
   248a0:	0055 0034 0000 fff9 004b fff6 ffae ff7f     U.4.....K.......
   248b0:	ffda fff4 ffd0 ffe2 ffe3 006d 0028 0011     ..........m.(...
   248c0:	ffdb 0031 00a5 fff8 fff7 ffed 0069 0036     ..1.........i.6.
   248d0:	ffd5 ffc8 ffae 0031 fff3 002d fffe 003d     ......1...-...=.
   248e0:	007b 0050 0017 fff3 005a 0026 ffd3 ff7c     {.P.....Z.&...|.
   248f0:	ffc9 ffdf ffaa ff6a ff97 0014 fff3 ffe7     ......j.........
   24900:	ff91 ffeb 0054 0073 ffff ffc7 ffe3 fffa     ....T.s.........
   24910:	ffec ff8c ffee 0025 0027 0006 ffb0 ffc4     ......%.'.......
   24920:	ffe4 fff4 ffd3 ff78 ff66 ff7a ffc0 ffbb     ......x.f.z.....
   24930:	ffe3 ffd6 000c ffdd fffb 002c 0033 0029     ..........,.3.).
   24940:	ffb3 ffb5 ffb7 ffea ffba ffb4 ffcc ffb9     ................
   24950:	001a ffdb ff92 ffbe ffef fffe 0019 000f     ................
   24960:	003d 0005 ffac 0028 003b 000d ffc2 ffe0     =.....(.;.......
   24970:	ffcf ffce ffd3 fff3 ffd0 ffb7 0022 001c     ............"...
   24980:	006e 001b ffd3 fff9 002a 0033 ffca ffd0     n.......*.3.....
   24990:	ffe1 001a fff9 fffe 0007 ffe8 0012 ffcd     ................
   249a0:	0013 0040 0040 ffe9 ffc4 002e 005b 0074     ..@.@.......[.t.
   249b0:	fff8 ffcf 0004 005c 0000 ffd6 ffec ffeb     ......\.........
   249c0:	0018 000b fffc ffd5 ffe4 ffdd 000f ffd3     ................
   249d0:	0003 0014 0003 001b 0024 0053 0026 0014     ........$.S.&...
   249e0:	001b 004f 003f ffd6 ffe4 ffd0 ffe2 ffe5     ..O.?...........
   249f0:	ffb8 ffd5 ffb9 ffe1 ffdc ffd1 ffd2 0027     ..............'.
   24a00:	008d 0061 0096 005d 007b 0067 0068 005a     ..a...].{.g.h.Z.
   24a10:	0014 003f 002a 0013 ffdd fff3 0002 fff7     ..?.*...........
   24a20:	fff9 000c 007f 008a 006f 0084 0039 0039     ........o...9.9.
   24a30:	005e 007f 0034 ffd8 ffef 000c ffde ffdb     ^...4...........
   24a40:	ffe9 ffdb ffdb fffd 0037 001d 0024 0010     ........7...$...
   24a50:	0026 001e fff0 0032 001d 0040 0008 ffec     &.....2...@.....
   24a60:	0004 001c 0023 ffe5 fffa ffef fff4 ffe5     ....#...........
   24a70:	ffd9 0008 0025 0046 0001 ffe3 ffdb 0011     ....%.F.........
   24a80:	004b 0025 0010 ffe9 fff0 001b 0041 0023     K.%.........A.#.
   24a90:	ffff fffd 0008 ffdf 000f 000e ffc7 ffb2     ................
   24aa0:	ffc9 0012 001c 0020 0036 002a 0039 0061     ...... .6.*.9.a.
   24ab0:	005d 000d 0008 0023 002e ffff ffbf ffbb     ].....#.........
   24ac0:	ffc3 0000 ffbf ff9f ffb5 fff8 001e 0014     ................
   24ad0:	0017 ffb9 fff5 001a ffe8 ffb4 ffbe fff3     ................
   24ae0:	fff9 ffc1 ff9c ffec 0021 001a ffd7 ffac     ........!.......
   24af0:	ffbb ffed ffdb ff95 ffb4 fff2 0003 ffdb     ................
   24b00:	001c 0038 004a 002a 003c 004e 0012 003f     ..8.J.*.<.N...?.
   24b10:	ffe7 0001 ffde ffdc ffbe ff88 ff88 ffa0     ................
   24b20:	0002 ffed ffbf fff4 0078 0062 0014 003d     ........x.b...=.
   24b30:	005f 006e 0019 ffc2 ffc4 0014 004d 001f     _.n.........M...
   24b40:	ffae ffb5 005b 006d 002e ffc4 ffdf 0032     ....[.m.......2.
   24b50:	0037 fff0 ff7a ffb5 001b 0062 0050 ffbc     7...z.....b.P...
   24b60:	ff91 ffdd 004c 004f 0039 0002 0000 001e     ....L.O.9.......
   24b70:	0032 0059 005b 0014 ffa8 ffbd 0027 0053     2.Y.[.......'.S.
   24b80:	fff8 ff7f ff5c ffcf 001f ffea ff79 ff5e     ....\.......y.^.
   24b90:	000a 003f ffcb ff5e ff38 ffc1 003a 0013     ..?...^.8...:...
   24ba0:	ffb9 ffc9 0012 0031 0034 0031 000c ffd7     ......1.4.1.....
   24bb0:	fff2 fffc ffec ff8e ff67 ff83 ffe4 ffe4     ........g.......
   24bc0:	ff9a ff9d ffae 0028 0017 ffe0 ffa6 ffa2     ......(.........
   24bd0:	fff3 001f ffdf ffba ff8c ffc5 fffb 002e     ................
   24be0:	0046 fff2 ffbc fff4 0048 005a ffe6 ff92     F.......H.Z.....
   24bf0:	ffcd ffea ffff ffee ffcf fff9 002d 0031     ............-.1.
   24c00:	0052 0033 fff5 001a fff6 fff3 ffda ffa5     R.3.............
   24c10:	ffc2 fff6 000d 0012 fff6 fffb 0003 004f     ..............O.
   24c20:	007f 006e fff7 ffdb 0007 ffd8 ffe9 ff91     ..n.............
   24c30:	ffae ffa6 ffd0 0004 ffe3 ffd0 ffd6 0009     ................
   24c40:	000d 0016 0038 0035 004e 0057 0055 0060     ....8.5.N.W.U.`.
   24c50:	0011 0022 001a 0057 0063 0034 0035 fff7     .."...W.c.4.5...
   24c60:	0000 000f 0020 ffd0 0018 0019 ffe4 ffe5     .... ...........
   24c70:	ffd0 ffe3 ffea ffde ffb3 fff1 002c 0029     ............,.).
   24c80:	000f 0014 003b 0056 004c 0027 0049 0083     ....;.V.L.'.I...
   24c90:	00a5 004f fff3 0001 004a 005b 0024 ffd3     ..O.....J.[.$...
   24ca0:	fff2 0029 0059 001a ffd1 ffc8 fffd 0015     ..).Y...........
   24cb0:	fff4 0015 0018 001d ffee fff6 0014 002a     ..............*.
   24cc0:	000f ffca fffc 002c 001c ffeb ffd4 ffe9     ......,.........
   24cd0:	0000 0029 0054 0028 fffa 000a 003c 0070     ..).T.(.....<.p.
   24ce0:	0035 fff2 ffff 0031 0060 006e 0033 ffdc     5.....1.`.n.3...
   24cf0:	0002 0018 002a ffdf ffb2 ffdf 000c 0026     ....*.........&.
   24d00:	001d 002e 003e 0053 004b 0036 0016 0014     ....>.S.K.6.....
   24d10:	003a ffff ffe5 0000 ffc2 ffaa ffd2 0001     :...............
   24d20:	ffdb ffe6 0025 0018 001a 0022 ffe9 ffc8     ....%.....".....
   24d30:	fffe 003c 002b ffcd ff6f ff6b ffbd ffc7     ..<.+...o.k.....
   24d40:	ffb7 ff5c ff54 ff8d ffd5 0011 ffda ffce     ..\.T...........
   24d50:	000c 005d 0072 006d fff0 ffd3 0027 0066     ..].r.m.....'.f.
   24d60:	002c ffa1 ff9d ff95 ffec ffff ffbd ff85     ,...............
   24d70:	ff62 fff1 0045 003c ffc5 ffd7 002f 006e     b...E.<...../.n.
   24d80:	0064 ffbd ffca fffd 0032 0034 0013 003e     d.......2.4...>.
   24d90:	001e 0027 001e 002e 0021 0050 0009 ffe4     ..'.....!.P.....
   24da0:	0028 0033 000e ffad ffcc ffd7 0012 ffea     (.3.............
   24db0:	fff2 ffe2 fffa 0020 0028 0024 fffc 0024     ...... .(.$...$.
   24dc0:	0008 0008 ffdb ffc7 fff5 0004 0015 ffed     ................
   24dd0:	0017 0036 004c 0053 0031 003f 004a 003f     ..6.L.S.1.?.J.?.
   24de0:	ffe5 ffe1 ffe8 ffe8 ffe0 ff98 ff99 ffb4     ................
   24df0:	ffed 0023 000b ffda ffe2 ffec 0015 0031     ..#...........1.
   24e00:	000b fff7 ffea 0014 ffff ffea ffe3 ffc6     ................
   24e10:	ff95 ffda 002a 0027 ffe6 ffe2 002c 0049     ....*.'.....,.I.
   24e20:	0001 ffd5 ffcf ffed 0012 ffd4 ffb1 ff87     ................
   24e30:	ffb8 ffd8 ffdd ffbc ffc5 ffda ffdf fff9     ................
   24e40:	ffe1 fffb ffb2 ff9a ffe8 0021 0031 000d     ..........!.1...
   24e50:	ffd1 ffe7 0010 0019 ffe2 ffb9 ffec 0032     ..............2.
   24e60:	0039 ffbd ff86 ffb2 0029 0029 ffe0 ffc5     9.......).).....
   24e70:	ffce 000b 001f 0019 000d 0003 ffe7 000b     ................
   24e80:	0019 0023 fffb ffe8 ffef fff7 000b ffcf     ..#.............
   24e90:	ffbe ffcd 0021 005a 002b ffe4 ffcb 0014     ....!.Z.+.......
   24ea0:	0047 0049 fffb ffb1 ffcf ffdf 000b ffea     G.I.............
   24eb0:	ffd9 ffcf ffe9 0040 0049 0031 0004 0013     ......@.I.1.....
   24ec0:	0027 000b 0002 0010 0012 0032 003f 0042     '.........2.?.B.
   24ed0:	003d 0032 0020 0026 003c 0031 fff3 ffb4     =.2. .&.<.1.....
   24ee0:	ffc7 0009 0006 ffd9 ffb2 ffd0 fffe 003e     ..............>.
   24ef0:	0035 ffca ffc3 001a 002d fffa ffb9 ffc3     5.......-.......
   24f00:	000d 0021 ffe9 ffb1 ffd2 fffc 000d 0029     ..!...........).
   24f10:	0021 0020 003d 0035 000e 0058 0066 0043     !. .=.5...X.f.C.
   24f20:	0012 fffb 002c 0042 0016 ffe5 ffe7 0012     ....,.B.........
   24f30:	0022 005b 0018 ffe5 fffd 0027 0047 0016     ".[.......'.G...
   24f40:	001b 0005 000b 0009 0010 0013 0008 002b     ..............+.
   24f50:	0033 0028 0014 0019 0021 fff6 ffe0 0003     3.(.....!.......
   24f60:	fff8 ffcb ffc7 fff8 001b 0010 fffd fff9     ................
   24f70:	0012 0026 001e ffe9 ffcc 001e 0049 0037     ..&.........I.7.
   24f80:	0016 0011 0017 0008 0009 000a 0020 fffe     ............ ...
   24f90:	0022 0036 0018 0015 0019 0017 ffde fffd     ".6.............
   24fa0:	0019 0013 fff9 ffea 0024 0049 0047 001e     ........$.I.G...
   24fb0:	0010 0007 000f fffd ffc0 ffae ffcc 0015     ................
   24fc0:	0015 ffbe ff9a ffd3 0014 0033 fffe ffc0     ..........3.....
   24fd0:	ffce ffdb ffdf ffcb ffc7 ffe3 0007 0010     ................
   24fe0:	002b 0027 0035 0033 0016 001d 0033 0021     +.'.5.3.....3.!.
   24ff0:	ffe9 0003 001d 001c 001c 001c fff5 000d     ................
   25000:	004b 003f ffff ffd3 ffde 0015 003b 0017     K.?.........;...
   25010:	ffde ffc8 0005 0026 0002 ffcd ffde 0014     ......&.........
   25020:	0046 001f ffef ffe1 fff3 000e 0017 0022     F.............".
   25030:	ffe9 fff7 0027 0030 002d 003b 001c ffeb     ....'.0.-.;.....
   25040:	ffef 0018 001b ffd6 ffce ffd4 ffe8 0001     ................
   25050:	0017 ffe7 ffbb fff2 001c 002a fffd ffd2     ..........*.....
   25060:	ffec 0002 0002 ffd9 ffba ffbf ffcb 0003     ................
   25070:	fff5 ffc0 ffc7 fff3 ffef ffe2 ffe2 ffeb     ................
   25080:	0018 0006 fff1 ffeb ffdb ffde ffdb ffd1     ................
   25090:	ffcb ffc8 ffb1 ffcd ffe0 fff0 fff6 ffc6     ................
   250a0:	ffcd ffe9 ffe4 ffca ffaa ffd3 ffeb ffbd     ................
   250b0:	ffa4 ff9c ffab ffdd ffe6 ffd7 ffeb fff9     ................
   250c0:	000e 0015 000e ffed ffee fff5 fff6 000d     ................
   250d0:	fffe fff9 ffeb 0004 001b 0006 000d 0006     ................
   250e0:	fffd fff1 fffe ffe7 ffe8 fff9 ffe8 ffd4     ................
   250f0:	ffbe ffd0 ffdc ffdf ffc9 ffb7 ffc2 ffd0     ................
   25100:	fff9 ffd6 ffbe ffb6 ffc7 ffea ffd2 ffd7     ................
   25110:	ffb3 ffc5 fff6 0019 fff1 ffdd ffea ffda     ................
   25120:	0000 0004 ffdd ff97 ffb0 fff6 0010 fffc     ................
   25130:	ffcd ffec 0022 0057 002a 0014 0003 0002     ....".W.*.......
   25140:	0026 0023 0017 ffe3 0015 0039 003c 001c     &.#.......9.<...
   25150:	ffff 0028 0039 0055 0041 001d 000f 002b     ..(.9.U.A.....+.
   25160:	0048 003e 0046 0062 0065 0041 0042 0059     H.>.F.b.e.A.B.Y.
   25170:	0057 004c 002c 0030 002b 002a 0032 0026     W.L.,.0.+.*.2.&.
   25180:	0025 0027 002f 004d 0054 002d 003a 004c     %.'./.M.T.-.:.L.
   25190:	0045 004a 004e 003f 0045 0040 0037 0021     E.J.N.?.E.@.7.!.
   251a0:	0025 001c 001e 0013 002c 002c 002a 0025     %.......,.,.*.%.
   251b0:	fff9 ffe6 fffb 002f 0016 000a ffee ffff     ....../.........
   251c0:	0004 ffeb fffc fff0 0005 0023 0033 0006     ..........#.3...
   251d0:	ffe3 ffdf ffe7 fff7 ffe2 ffc7 ffdd fffa     ................
   251e0:	0005 0000 fffd 0003 002e 0060 0048 0020     ..........`.H. .
   251f0:	fff7 000f 001f 000b 0012 ffe5 ffda ffe6     ................
   25200:	0007 0024 0015 fffd ffdf 0003 0021 0019     ..$.........!...
   25210:	000e ffe0 fff5 fffe 0015 0011 fff4 ffeb     ................
   25220:	fff2 000a 000d 000a ffe8 ffee 0013 001d     ................
   25230:	0017 fffd ffeb fffc 0012 0014 0009 fffb     ................
   25240:	0002 0010 0002 fff6 ffed ffed 0003 0020     .............. .
   25250:	0025 0011 fff3 ffe5 fff3 ffd9 ffdd ffc5     %...............
   25260:	ffce ffef 0006 0006 ffd3 ffbc ffcc fffb     ................
   25270:	0003 fff6 ffe9 ffea fff7 fff6 fffc fff3     ................
   25280:	fffd 0005 0013 000e 0003 000b 0007 0017     ................
   25290:	0005 0012 0012 0023 001d 0011 fff8 fff6     ......#.........
   252a0:	000d 000c 000a ffeb fff5 fffb ffe4 ffec     ................
   252b0:	fff1 000f 0005 fffa fff3 ffff 0006 0005     ................
   252c0:	fffa ffef 000a 000e ffee ffcb ffc6 ffed     ................
   252d0:	fffa ffe7 ffef ffff 0011 000d ffe4 ffd2     ................
   252e0:	ffe2 ffe3 ffd1 ffde ffe2 ffc7 ffcd ffe4     ................
   252f0:	ffe8 fffe fff2 fff9 ffed ffef ffd9 ffde     ................
   25300:	ffe9 ffdd ffdb ffe1 ffe2 ffcc ffc3 ffda     ................
   25310:	fff7 0002 fff8 ffe3 ffe0 ffcf ffdf ffd4     ................
   25320:	ffcb ffde ffe8 ffeb ffd9 ffd6 ffe9 ffee     ................
   25330:	ffec ffc8 ffcb ffec ffee ffd9 fff4 000c     ................
   25340:	0003 001d 001a 000a 0005 fff5 ffe5 ffec     ................
   25350:	fff1 fff8 fff6 ffdf ffe7 ffee 0005 0010     ................
   25360:	0011 000e 0012 0015 0018 000c fff5 ffeb     ................
   25370:	ffe9 000a 000c 0007 0001 000a fffc fff9     ................
   25380:	0014 001d ffee ffe3 fff3 fff6 ffef ffe4     ................
   25390:	ffea ffef ffe4 ffe4 ffd1 ffde fff4 0003     ................
   253a0:	fffb ffea fff4 0001 000c fffe fff3 ffed     ................
   253b0:	fffe ffed ffee fff3 fffe 0002 ffff 0007     ................
   253c0:	ffef fff3 fffb 0001 fffc 000e 0020 001d     ............ ...
   253d0:	fff9 fff1 0004 0012 0027 0020 0038 0043     ........'. .8.C.
   253e0:	0053 003d 0020 0027 0038 0031 0012 fffc     S.=. .'.8.1.....
   253f0:	0001 0010 0018 0010 0002 000a 0000 000c     ................
   25400:	0000 fffd fffb 000b fff3 fff6 000f 0020     .............. .
   25410:	0014 ffeb 0006 000f 000d 0019 002e 0031     ..............1.
   25420:	0050 0071 0023 0029 0039 001d 0023 002e     P.q.#.).9...#...
   25430:	0011 fff2 ffe8 ffe7 ffea ffee 0012 000a     ................
   25440:	0019 0036 004b 0044 0034 0028 0025 003b     ..6.K.D.4.(.%.;.
   25450:	0017 fffb fff2 0019 0020 0005 0002 fff7     ........ .......
   25460:	0003 fffb ffff 0004 001e 002e 0020 0018     ............ ...
   25470:	0009 0000 0002 0016 0010 0009 001e 001d     ................
   25480:	0029 0010 0001 0014 0018 000c ffde ffe6     )...............
   25490:	ffe3 ffe4 ffc8 ffa5 ffba ffca ffd0 ffe7     ................
   254a0:	fff3 ffef ffec ffe1 ffe6 ffe2 fff6 0001     ................
   254b0:	fffd 000d fffe fff8 fff9 fffe 0017 001b     ................
   254c0:	001b 0002 ffff 0028 0032 0029 0030 002c     ......(.2.).0.,.
   254d0:	0016 0008 0011 0022 002c 0036 0030 0022     ......".,.6.0.".
   254e0:	001a 0024 0014 0001 001d 0035 0037 003d     ..$.......5.7.=.
   254f0:	0038 001c 000d 001c 0023 0021 0010 fffe     8.......#.!.....
   25500:	fffb 0003 ffeb ffe4 ffeb fffb 000a 0006     ................
   25510:	0001 fff6 ffde ffea fff5 ffe3 ffcd ffd8     ................
   25520:	ffd4 ffc5 ffd7 ffee ffe5 ffc9 ffcb ffd8     ................
   25530:	ffd1 ffe5 ffea ffc9 ffaf ffb9 ffcb ffbd     ................
   25540:	ffbb ffbe ffd1 ffce ffd4 ffcb ffd6 ffe8     ................
   25550:	ffed 0000 fff1 0004 0009 000c ffff ffd3     ................
   25560:	ffdb ffe5 0002 fff5 ffd4 ffca ffd9 ffed     ................
   25570:	ffd6 ffe4 ffdf fff0 0002 0009 000e fffb     ................
   25580:	fff3 0001 000b 0005 0002 0000 ffff fff0     ................
   25590:	fff4 ffdf ffec fff2 fffb ffe4 ffcd ffd5     ................
   255a0:	ffcc ffe1 fff9 0007 0009 000c ffe9 ffdc     ................
   255b0:	ffc7 ffd6 ffee 0004 000a fffc 0009 0009     ................
   255c0:	000c ffd4 ffcb ffe2 fff1 0002 fffb 000b     ................
   255d0:	0008 fffb fff8 0001 0015 002f 0035 0037     ........../.5.7.
   255e0:	002d 0029 0040 0032 0027 0026 0028 0031     -.).@.2.'.&.(.1.
   255f0:	0038 0018 0003 000e 0022 0027 0019 000f     8.......".'.....
   25600:	000d 0037 002b 0020 001d 0027 0032 002f     ..7.+. ...'.2./.
   25610:	0024 000d 0019 000a 0010 0004 fffd 0018     $...............
   25620:	0019 0015 0002 0018 0014 0018 ffff ffe4     ................
   25630:	fff7 fffb ffed ffe1 fff1 fffe fff5 ffe2     ................
   25640:	ffd1 ffc7 ffc4 ffca ffe2 ffde ffca ffbd     ................
   25650:	ffba ffed ffdc ffba ffc0 ffcd ffdb ffcc     ................
   25660:	ffc3 ffa3 ffbf ffe0 ffed ffdf ffcb ffc9     ................
   25670:	ffcf ffcc ffcf ffd6 fff1 fffe 0009 0005     ................
   25680:	fff6 fffa 000f 0024 0011 0015 0018 000f     ......$.........
   25690:	001d 002a 002e 001a 0003 fffc ffff 0005     ..*.............
   256a0:	fffc fffc fff8 fff0 000b 0009 0006 fffb     ................
   256b0:	fff2 0009 000e 001c 0020 0028 001d 002b     ........ .(...+.
   256c0:	0032 0019 001b 0011 0015 0020 0022 0028     2......... .".(.
   256d0:	0014 000c 000a 0015 0020 001c 0010 0012     ........ .......
   256e0:	0014 0019 001d 0022 001c 0025 0023 0031     ......"...%.#.1.
   256f0:	0039 0040 003d 0048 003c 0035 0033 0025     9.@.=.H.<.5.3.%.
   25700:	0028 0026 002e 003d 0026 000c fffc 0006     (.&...=.&.......
   25710:	0019 0008 0009 0008 0000 0012 001d 0032     ..............2.
   25720:	002f 002e 004d 0049 0046 0043 0029 0031     /...M.I.F.C.).1.
   25730:	002d 002d 0017 0016 0019 fffb fff6 0004     -.-.............
   25740:	0000 fff7 fffb fff7 fff6 fffa fff5 fff5     ................
   25750:	fff1 fff8 ffee fff3 fff8 fffa ffeb fff5     ................
   25760:	fff7 fff3 ffeb fffb 0009 ffff fff5 fff5     ................
   25770:	fff4 fff6 0001 fff6 ffe4 fff3 ffeb fff3     ................
   25780:	fffe 0004 fffb fff1 ffef ffe6 ffeb fffa     ................
   25790:	fffe fff1 0004 ffff 0003 0006 fffe 0006     ................
   257a0:	000b 0010 0021 001c 0018 0017 000f 0016     ....!...........
   257b0:	0011 0010 fffe ffef ffd4 ffd6 ffdb ffe1     ................
   257c0:	ffe6 ffd4 ffdc fffa fff4 fff5 fff2 000b     ................
   257d0:	0018 001c 001e 0003 ffeb ffef fffd fff4     ................
   257e0:	fff4 fffa 0014 0009 fffb fff7 000d 0010     ................
   257f0:	0002 fffe fffe fffb 0008 000b 0006 fff8     ................
   25800:	ffeb fff6 0009 fff7 ffe5 ffee ffe2 ffe4     ................
   25810:	ffdf ffcc ffd2 ffd3 ffd3 ffdc ffd7 ffd1     ................
   25820:	ffd4 ffcd ffcd ffda ffd7 ffd4 ffda ffe3     ................
   25830:	ffee ffe0 ffd4 ffcd ffdb ffe1 ffee ffed     ................
   25840:	ffef fffd fff2 fff2 fff4 ffcf ffbe ffc5     ................
   25850:	ffc1 ffd0 ffd0 ffcc ffc0 ffc7 ffe0 ffe8     ................
   25860:	ffe8 ffe2 ffdd ffd7 ffdc ffe4 ffd8 ffcb     ................
   25870:	ffd6 ffe9 0002 fff7 0002 0003 0005 0007     ................
   25880:	001f 0022 0012 0025 0032 003c 002c 0032     .."...%.2.<.,.2.
   25890:	001c 0024 002b 003f 003e 0038 0024 0023     ..$.+.?.>.8.$.#.
   258a0:	001b 0025 0029 0034 0024 0019 0024 0016     ..%.).4.$...$...
   258b0:	0015 001a 000a fffa fff0 fffc 0006 fff9     ................
   258c0:	fff4 fff8 0006 0005 0001 0016 0026 001a     ............&...
   258d0:	000c ffff fff4 ffee ffe8 ffe7 ffe4 ffe0     ................
   258e0:	fff3 ffef ffeb fff3 ffe8 ffe6 fff6 ffdd     ................
   258f0:	ffd6 ffef ffee fff5 ffe4 ffd5 ffe8 ffef     ................
   25900:	fff9 fffc 0009 000f 0023 0034 0016 000e     ........#.4.....
   25910:	fff1 ffe9 fff7 fffa fff4 fff4 0006 fffb     ................
   25920:	ffe9 ffee 0014 0017 0008 ffff fff8 0001     ................
   25930:	0011 002c 0021 0026 001d 0026 001a 0009     ..,.!.&...&.....
   25940:	0011 000f 0018 0011 001c 0010 000d 001a     ................
   25950:	0010 0010 0009 0008 0004 fff1 0005 0014     ................
   25960:	0012 000b fff4 fffe ffff 000a 0003 000b     ................
   25970:	000b 0013 001b 0009 0008 fffb 0007 0007     ................
   25980:	0010 000c 0004 0001 ffec fff1 0007 000b     ................
   25990:	0016 0009 000d 0021 0025 0033 0026 0029     ......!.%.3.&.).
   259a0:	003a 004b 0039 002c 001f 0017 001a 0028     :.K.9.,.......(.
   259b0:	0036 001f 0014 0026 0030 0022 001a 0014     6.....&.0.".....
   259c0:	001b 0023 0015 0013 000e 0009 fff7 0005     ..#.............
   259d0:	000f 0004 001c 0013 0001 0007 0012 0011     ................
   259e0:	001e 001e 001c 000e 000a 001c 0022 0021     ............".!.
   259f0:	0009 000a fff4 ffef fff9 0009 0000 0002     ................
   25a00:	0025 0020 0015 001d 001f 0015 0007 0012     %. .............
   25a10:	0021 0022 001b 0010 fffe 0000 0008 0020     !."........... .
   25a20:	0009 ffff 0017 001d 0017 0002 fffb ffde     ................
   25a30:	ffd6 ffea fff4 fff0 ffe4 fff4 fff8 ffdf     ................
   25a40:	ffcc ffd8 ffed ffd8 ffe0 fff2 ffed ffe1     ................
   25a50:	ffdf ffe8 ffe3 ffd8 ffcd ffcb ffcb ffd6     ................
   25a60:	ffd9 ffcf ffea ffee ffde ffda ffeb fff0     ................
   25a70:	fff5 ffef ffd3 ffcf ffc5 ffcc ffc5 ffb6     ................
   25a80:	ffa6 ffa6 ff9d ffaf ffb7 ffc1 ffd2 ffc9     ................
   25a90:	ffd9 ffe2 ffe7 ffd9 ffd3 ffd8 ffe2 ffe6     ................
   25aa0:	ffe9 ffeb ffef 0002 000c 000b 000f 001b     ................
   25ab0:	0025 001e 0017 0024 0027 0004 0004 0030     %.....$.'.....0.
   25ac0:	0031 0020 ffff fff9 ffff 000b 0013 0009     1. .............
   25ad0:	0005 fffe 0003 fffe 000a 000b 000b 000f     ................
   25ae0:	0004 fffc 0009 001d 0011 001e 0013 ffea     ................
   25af0:	ffeb ffef fff5 ffe7 ffed ffe6 ffec ffee     ................
   25b00:	fff4 0001 fff2 fffe fffd ffef fff1 fff5     ................
   25b10:	0001 0015 ffff fff2 0004 fffb fffe fff5     ................
   25b20:	ffec ffea ffed ffea ffe1 ffd8 ffd6 ffcc     ................
   25b30:	ffb6 ffae ffb4 ffc7 ffdf ffd4 ffc7 ffc1     ................
   25b40:	ffc1 ffdb fff5 fff6 ffeb fff8 fff6 fffe     ................
   25b50:	0008 fff7 ffee fffa fffc fff2 fff2 0000     ................
   25b60:	0011 0016 0013 001b 001c 0006 0007 0012     ................
   25b70:	001f 0016 000c 000f 0013 0016 001b 000f     ................
   25b80:	0000 0005 0022 002e 0021 0018 0019 0021     ...."...!.....!.
   25b90:	001d 000d 0014 0003 fff1 fff9 0003 000a     ................
   25ba0:	fff0 fff4 0012 0027 0032 0037 002f 0027     ......'.2.7./.'.
   25bb0:	0021 002b 002a 0043 0035 0040 004a 004b     !.+.*.C.5.@.J.K.
   25bc0:	0050 0042 0048 002e 002b 0047 004c 002f     P.B.H...+.G.L./.
   25bd0:	0026 002f 0039 0046 003f 0034 002f 0021     &./.9.F.?.4./.!.
   25be0:	0022 002d 002d 0023 001c 0010 000b 0022     ".-.-.#.......".
   25bf0:	0031 001c 0019 0025 0024 001a 0010 0017     1.....%.$.......
   25c00:	0027 0029 0016 0018 000e 0004 0015 0019     '.).............
   25c10:	0008 000c 0014 0019 0015 0007 000e 0008     ................
   25c20:	000e fffe fffc 0007 0000 fffe 0002 fffd     ................
   25c30:	0003 000a 0002 fffa 0004 000e 0007 0005     ................
   25c40:	0006 fffe fffe ffff fff6 ffea ffeb ffec     ................
   25c50:	ffe4 ffd5 ffed 000b fffc fff8 ffe9 fff5     ................
   25c60:	0005 ffff fffe 0002 fff8 ffe2 ffe3 ffff     ................
   25c70:	0008 ffe9 fffa ffff fff5 fff9 0008 ffff     ................
   25c80:	0000 0010 0007 0003 ffec ffec fffe fffd     ................
   25c90:	fff3 ffeb ffe5 ffd9 ffd0 ffec fff5 ffe9     ................
   25ca0:	ffe1 ffe9 ffea 0006 ffff ffe3 ffe4 ffed     ................
   25cb0:	ffe8 fff4 0006 0004 fff2 fff5 0004 0004     ................
   25cc0:	000a 0009 000b ffff fff8 fffc fff8 000b     ................
   25cd0:	000b 0003 0004 ffeb ffeb ffea fff2 ffec     ................
   25ce0:	ffda ffdd fffd 0010 000d fff9 ffe9 ffd6     ................
   25cf0:	ffdf ffe5 ffd3 ffc6 ffc0 ffd0 ffdb ffca     ................
   25d00:	ffb3 ffa3 ffa6 ffc5 ffea ffe7 ffcd ffd0     ................
   25d10:	ffd7 ffeb fff8 fffb fff0 ffe4 ffee ffee     ................
   25d20:	fff0 fff4 ffe5 ffd8 ffee 0006 0013 0012     ................
   25d30:	000a 0015 0005 fff6 0007 0014 0004 0011     ................
   25d40:	000c fffb fff4 0005 001f 0014 ffef ffcc     ................
   25d50:	ffd7 ffe7 ffea fff1 ffe0 ffd8 ffdb ffda     ................
   25d60:	fff0 0002 fff3 ffde ffee ffea ffcd ffc9     ................
   25d70:	ffe3 0006 ffea ffdd ffe6 ffea fff3 fff0     ................
   25d80:	fff1 0003 ffff fffb 0004 000e 0004 fff5     ................
   25d90:	fff1 ffde ffde fffa 0011 0015 0001 ffec     ................
   25da0:	fffc fff9 000a 0018 0018 0021 0014 0013     ..........!.....
   25db0:	0011 0021 0028 002a 0034 0025 0017 0011     ..!.(.*.4.%.....
   25dc0:	0006 0009 ffff fff4 ffed ffe0 ffe7 fff7     ................
   25dd0:	ffe7 fff2 fff3 ffe2 fff0 fff6 000a 0016     ................
   25de0:	0006 000b 000f 000a 0021 0028 0010 0002     ........!.(.....
   25df0:	ffef ffeb 0000 000a fff2 ffeb ffea fff3     ................
   25e00:	fffc fffa 0000 0008 0022 0019 000c 0012     ........".......
   25e10:	0010 0012 0023 001d 0009 0001 000a 001b     ....#...........
   25e20:	0018 0011 001c 0024 001d 0012 002a 0027     ......$.....*.'.
   25e30:	001e 001b 0011 0017 0004 0012 001e 001d     ................
   25e40:	001f 001e 001e 0007 001d 0029 0029 002c     ..........).).,.
   25e50:	002a 001b 001d 0035 0034 0025 0014 0019     *.....5.4.%.....
   25e60:	001f 0022 001b 0013 000f 0008 0013 000c     ..".............
   25e70:	fffa fff8 fffd fffb fffb fff4 fff5 0005     ................
   25e80:	fff7 ffef ffe1 ffe8 000c 000f 000e 000e     ................
   25e90:	0013 0012 0007 0019 001c 0007 fff9 000a     ................
   25ea0:	0018 0014 000f 0015 001b 0013 0024 0028     ............$.(.
   25eb0:	000d 0009 0027 0034 002e 0021 001c 0020     ....'.4...!... .
   25ec0:	002c 0031 002c 0031 0027 001a 001b 0026     ,.1.,.1.'.....&.
   25ed0:	0029 001f 001c 0012 ffff ffff fffd fffb     )...............
   25ee0:	0006 0010 0009 fffa ffef ffff ffff 0009     ................
   25ef0:	0012 000d 0000 fff6 000f 0014 fffb fffe     ................
   25f00:	0009 000a fffe 000b 000a fff9 fffc fffe     ................
   25f10:	fff3 ffe9 ffea fff4 0001 fffe ffe8 fffb     ................
   25f20:	fffc fff0 fff6 fff8 fffd ffe9 ffe4 ffea     ................
   25f30:	ffd6 ffe6 fff6 ffe5 ffda ffdc fff5 0009     ................
   25f40:	0007 000d 0013 0013 0014 001d 0019 0000     ................
   25f50:	fff7 fffa 000a 000a 0007 0000 fff3 ffe2     ................
   25f60:	ffe4 fff9 000b 0007 fffc ffdc ffd6 ffe1     ................
   25f70:	ffee fff1 ffee ffeb ffed ffe8 fff9 ffe8     ................
   25f80:	ffed ffe6 ffde ffdb ffd7 ffcd ffc0 ffc6     ................
   25f90:	ffd2 ffeb ffe2 ffc7 ffb3 ffb6 ffd3 ffdd     ................
   25fa0:	ffd0 ffcb ffc9 ffd3 ffd3 ffe1 ffda ffe1     ................
   25fb0:	ffe2 ffdc ffeb 0004 fffd fff4 fffc 0003     ................
   25fc0:	000f 0006 fff3 fff5 ffed ffe7 ffd6 ffe5     ................
   25fd0:	fff2 ffed fff0 ffe6 ffdd ffe3 ffee ffe4     ................
   25fe0:	ffec ffec ffeb fff2 fffe fffa fffb fffc     ................
   25ff0:	000a 0005 001a 001c 001b 0018 000a 0003     ................
   26000:	fffe fffc fff6 000c 0009 0002 ffff fff2     ................
   26010:	ffe9 ffeb ffe8 ffea 0009 001a 0000 fff7     ................
   26020:	0009 0002 fffb fff5 0008 0012 0008 ffec     ................
   26030:	ffdc ffeb fff1 fff5 fff8 ffee ffe4 ffe9     ................
   26040:	ffef ffeb ffd8 ffd9 ffe1 fff2 fff3 ffeb     ................
   26050:	ffe4 ffe2 ffe5 ffe7 fff1 ffee 0000 000b     ................
   26060:	000a 000c fff4 fff5 0004 000e 0006 fffe     ................
   26070:	0002 fff6 fff4 0001 0004 fffb ffe6 fff6     ................
   26080:	0000 fff9 ffef fff5 0003 0003 000f 0006     ................
   26090:	fffb 0002 000a 001d 001d 0018 0014 001e     ................
   260a0:	0025 001b 0019 0022 002b 0038 003b 0031     %.....".+.8.;.1.
   260b0:	002f 0027 0019 0013 0013 0011 001a 002b     /.'...........+.
   260c0:	002e 002a 0019 0014 0022 001b 001e 001e     ..*.....".......
   260d0:	0022 0016 0000 fff3 fffd 0011 000f 0016     "...............
   260e0:	000f 0006 0002 fff8 fff9 fffe 0018 0012     ................
   260f0:	0011 ffff fff3 0003 000f 002a 0030 0011     ..........*.0...
   26100:	0010 0025 0038 0030 0019 000c 000e 0022     ..%.8.0.......".
   26110:	0017 0009 001c 0024 001e 0027 0026 002a     ......$...'.&.*.
   26120:	002d 0024 0039 0047 0041 0038 0032 002b     -.$.9.G.A.8.2.+.
   26130:	0037 0038 003e 0041 003b 001a 0014 0023     7.8.>.A.;.....#.
   26140:	0034 0032 0026 0009 0005 ffff 001c 002a     4.2.&.........*.
   26150:	001c 0016 000d 0015 000f fffe ffee 0004     ................
   26160:	0003 0008 ffeb ffe4 ffe3 fffa ffee ffde     ................
   26170:	ffe5 ffe3 ffe4 ffec 0009 0010 fffe ffe8     ................
   26180:	fffe 0007 000a fffa ffe4 ffd7 ffda ffe6     ................
   26190:	ffed ffe3 ffe4 ffe2 ffee fffc fff5 fff8     ................
   261a0:	fff2 0004 fffb ffe6 ffe4 ffe2 ffef fff6     ................
   261b0:	fffb ffe9 ffd6 ffd6 ffeb 0000 000f 0004     ................
   261c0:	fff4 fff9 ffff 0008 001a 001e 000d 0004     ................
   261d0:	fffd 0005 fff1 ffeb ffee fff4 fffc 0003     ................
   261e0:	fff0 ffec 0008 0008 fff2 0001 0017 0007     ................
   261f0:	fff5 ffd8 ffda ffd7 ffdf ffea ffe5 ffe3     ................
   26200:	ffbb ffc9 ffd3 ffdd ffed ffe8 ffdf ffd9     ................
   26210:	ffce ffe3 fff0 ffe6 ffe8 ffeb ffd5 ffe3     ................
   26220:	ffe8 ffdf ffe7 ffd7 ffca ffbf ffcb ffca     ................
   26230:	ffc7 ffba ffbf ffbf ffcd ffce ffdb ffe6     ................
   26240:	ffe2 fff5 fff5 fff0 fff3 0000 fff9 fffc     ................
   26250:	0005 0000 ffeb fff0 0000 ffef ffd6 ffd5     ................
   26260:	ffdb ffd5 ffc0 ffbe ffce ffdc ffd1 ffca     ................
   26270:	ffd0 ffd4 ffd9 ffd7 ffe7 ffeb fff6 0001     ................
   26280:	fff9 ffe7 ffe2 fff7 fff2 0006 001b 0016     ................
   26290:	0014 0004 0010 0015 0014 0026 0014 0028     ..........&...(.
   262a0:	0028 001c 001f 0015 000a 001b 002a 0024     (...........*.$.
   262b0:	0016 0005 000d 001c 0029 0021 002b 002b     ........).!.+.+.
   262c0:	0021 0016 0015 0014 000a 000e 001a 0008     !...............
   262d0:	fff1 ffef 0003 0009 0008 0010 000e 000a     ................
   262e0:	0005 0017 002d 002b 001d 000d 0003 000d     ....-.+.........
   262f0:	0010 0013 0003 0008 0000 000d 001a 0013     ................
   26300:	0014 001b 0025 001a 001b 0014 fffe 000c     ....%...........
   26310:	0011 ffff 001a 001d 0009 fffc fff2 0001     ................
   26320:	000d 0003 000c 0006 000b fff5 fff7 001b     ................
   26330:	001c 000f 000d 001c 0020 0024 002e 002c     ........ .$...,.
   26340:	001e 0012 000c 0016 001e 0023 0014 0001     ..........#.....
   26350:	000b 000b ffff 0003 000e 000f 001d 0013     ................
   26360:	001d 0004 ffff 0009 0015 0012 000e 0009     ................
   26370:	0019 001f 0026 0035 002d 0025 0021 0028     ....&.5.-.%.!.(.
   26380:	002d 002b 001f 0019 0027 0023 0017 0008     -.+.....'.#.....
   26390:	0001 fff8 fffe fff6 fff8 fff1 ffe9 fff2     ................
   263a0:	ffeb fffd 001b 0029 0016 001f 0024 001e     ......).....$...
   263b0:	0021 0020 001f 000d 000c 0011 fff5 ffec     !. .............
   263c0:	fff8 000b 0010 000b fffd fffd fff2 fff6     ................
   263d0:	ffff fff7 fff5 fff4 fff4 0002 0012 0008     ................
   263e0:	fff5 ffea ffe2 ffe0 ffe5 ffe7 ffeb ffee     ................
   263f0:	ffe7 fff9 0017 0014 fff7 ffe5 ffde ffe6     ................
   26400:	fff8 0006 ffe7 ffca ffd6 ffe6 ffe3 fff6     ................
   26410:	0009 000e 0009 0008 000b 0001 fffb 0011     ................
   26420:	0018 0015 001c 0011 0015 0006 0008 001e     ................
   26430:	0022 0004 0011 001f 0013 000f 0000 fffe     "...............
   26440:	000c 0016 000e 000a 0005 0005 0006 0003     ................
   26450:	0004 ffff fffc 0004 0007 000a fffa ffea     ................
   26460:	fff5 fffa fff8 fffe ffe7 ffd0 ffdd ffee     ................
   26470:	ffe4 ffd6 ffd1 ffd0 ffce ffd4 ffd6 ffd3     ................
   26480:	ffde fff7 0001 fffa fff8 fffe 000e 0001     ................
   26490:	0004 fff3 ffde ffd8 ffd6 ffd1 ffd0 ffde     ................
   264a0:	ffd7 ffda ffe0 ffd5 ffe3 fff4 fff8 ffe6     ................
   264b0:	ffe5 ffdd fff3 fff9 ffe1 ffdf ffe0 ffec     ................
   264c0:	ffea ffdf ffd5 ffde ffdf ffdb ffd9 ffdb     ................
   264d0:	ffe7 ffd4 ffc9 ffd9 ffce ffbf ffdb fff3     ................
   264e0:	fff4 fff9 fffd fffd 0004 0002 0006 fffe     ................
   264f0:	fff5 fffa 0005 fff6 ffd2 ffd3 ffda fff7     ................
   26500:	fff0 ffe9 ffec ffe6 ffec ffe6 ffe2 ffe4     ................
   26510:	fff8 fff2 ffe0 ffd3 ffe3 fff9 fff5 fffd     ................
   26520:	0007 000a fffb ffe1 ffe1 0002 0017 0019     ................
   26530:	001e 0009 ffff 000a 0012 0008 000d 001f     ................
   26540:	0016 0000 fff7 0007 0014 000d 0012 001f     ................
   26550:	0026 002c 0028 0027 001b 001d 0021 001c     &.,.(.'.....!...
   26560:	0016 0018 0018 0011 0013 001a 002c 0032     ............,.2.
   26570:	0034 0026 0014 000d 0019 0028 0028 0028     4.&.......(.(.(.
   26580:	002c 0035 002a 0026 0026 002a 0029 0017     ,.5.*.&.&.*.)...
   26590:	0012 0027 000f fffa 0003 0002 000e 0010     ..'.............
   265a0:	000f fff7 ffe9 ffee fff5 0003 000a 000c     ................
   265b0:	0009 000b 0000 fffe 0002 fffb fff6 fffd     ................
   265c0:	fff2 fff8 0007 fffd fff6 fff4 fff6 ffed     ................
   265d0:	ffed ffff 0007 0005 000d 001d 0014 0003     ................
   265e0:	fff3 fff6 fffd 0001 0005 fff7 ffef ffee     ................
   265f0:	fff4 0003 fff8 fff1 ffed ffec 0006 0018     ................
   26600:	0019 0015 0017 001a 0019 001e 0023 0013     ............#...
   26610:	ffff 0006 0008 000b fffe ffe8 ffe4 ffe7     ................
   26620:	0004 0007 fffe fff6 fff6 fff1 ffff 000d     ................
   26630:	0016 0012 0013 0019 0013 001c 001b 001b     ................
   26640:	0020 0017 001c 0026 0025 0015 0008 0008      .....&.%.......
   26650:	000a 0017 0012 000b fff1 ffe2 ffdd ffd9     ................
   26660:	ffdb ffe8 fff4 0005 0019 0008 000c 0009     ................
   26670:	0007 0009 ffff fff5 0001 0005 0007 000e     ................
   26680:	0008 ffed fff2 fffd 0009 001f 0023 002b     ............#.+.
   26690:	0031 002b 0026 003a 003a 002c 002f 0013     1.+.&.:.:.,./...
   266a0:	0018 0019 0020 0028 000d 000a 0012 0011     .... .(.........
   266b0:	001c 001d 001c 0039 0038 002e 003e 003e     ......9.8...>.>.
   266c0:	0037 002f 0031 0033 001c 0011 0019 000e     7./.1.3.........
   266d0:	fffe 0007 000c ffee ffed fff4 fffa 0002     ................
   266e0:	fff9 fff2 fff5 fff0 ffe7 ffea ffe8 ffde     ................
   266f0:	ffd3 ffdb ffe0 ffd4 ffc6 ffcb ffcb ffb9     ................
   26700:	ffb9 ffc3 ffc9 ffe0 ffde ffdf ffd5 ffc3     ................
   26710:	ffd2 fff3 ffff fff7 000b fffe 000b 0012     ................
   26720:	0004 fffb fffc fff5 ffe7 fff1 fff9 ffe7     ................
   26730:	ffd7 ffe8 ffe7 ffea ffee fff4 fffa ffec     ................
   26740:	ffe7 ffeb fff2 ffdf fff7 fffa ffe6 ffe4     ................
   26750:	fff1 ffe5 ffcb ffcd ffd8 ffea ffef ffee     ................
   26760:	ffe3 ffdb ffd7 ffea ffdf ffdf ffe1 ffd4     ................
   26770:	ffdb ffd5 ffbe ffb8 ffc6 ffbf ffc4 ffcb     ................
   26780:	ffcd ffd0 ffc7 ffb2 ffc0 ffde ffeb ffef     ................
   26790:	ffe7 ffdc ffd5 ffe0 ffef ffe6 ffdf ffe9     ................
   267a0:	ffe5 fffc 000f 0002 fff0 fff6 fffb 0013     ................
   267b0:	0012 0011 0000 fffb 000a 001a 003e 0029     ............>.).
   267c0:	0017 0014 0012 0020 0013 000c 0009 0005     ...... .........
   267d0:	0006 0021 002a 000d 0002 000a 0004 fff9     ..!.*...........
   267e0:	fffe 0009 0017 0009 0003 0000 000a 0017     ................
   267f0:	001c 001b 0026 0021 0010 0003 0004 0006     ....&.!.........
   26800:	0014 0024 0007 ffec ffe8 ffe4 fffc ffff     ..$.............
   26810:	0002 0006 000a 000f 0008 0018 0017 0016     ................
   26820:	001d 0025 001e 001d 0013 0003 000a 0011     ..%.............
   26830:	0022 0031 0019 0006 0006 000d 000b fffc     ".1.............
   26840:	0001 000a 0006 0012 0012 0008 ffff fff1     ................
   26850:	fff8 0007 fffe 0009 0027 0020 0009 0002     ........'. .....
   26860:	0007 0008 0012 0014 0010 ffff fffb fff0     ................
   26870:	fff8 0019 001c 0027 0026 001d 0013 000d     ......'.&.......
   26880:	0013 0018 001c 0008 0012 0013 0005 fff0     ................
   26890:	0006 000f fffe fff3 ffe7 ffdf ffe5 ffe1     ................
   268a0:	fffb 0008 0009 0015 0014 0018 0015 0014     ................
   268b0:	0019 001e 000e 0013 000d 001f 001a 000e     ................
   268c0:	001e 001e 001e 001c 0010 001d 000d 0011     ................
   268d0:	0016 0016 0017 000a ffff 000f 002f 002c     ............/.,.
   268e0:	0026 0029 002a 0020 0024 0032 0036 0046     &.).*. .$.2.6.F.
   268f0:	004b 004b 0030 001d 0019 001b 0022 000c     K.K.0......."...
   26900:	0020 000d fff4 0001 0000 fff7 ffdd ffea      ...............
   26910:	fff8 fffa fff8 ffed fff3 0000 0002 fffb     ................
   26920:	fff7 fff9 fffd fff1 ffee ffee ffd4 ffcc     ................
   26930:	ffd8 fff3 0004 0009 fff0 ffe9 fff1 fff8     ................
   26940:	0000 000a 0017 0006 fffc fff1 ffe3 ffd6     ................
   26950:	ffe3 fff6 000c 0021 001a 001d 000b ffff     ......!.........
   26960:	fffd 0004 0008 001e 0020 000d fffc 0002     ........ .......
   26970:	0009 0002 ffec ffe5 fff7 fff3 0007 000e     ................
   26980:	000d 0008 fffb fff9 fffd 0006 0017 0015     ................
   26990:	000c 0004 0002 ffe7 ffde ffe4 ffe9 ffe9     ................
   269a0:	ffd1 ffca ffba ffad ffb3 ffb6 ffba ffbf     ................
   269b0:	ffb9 ffb5 ffbd ffbe ffd4 fff0 fff4 fffb     ................
   269c0:	ffff 0000 fff9 0005 0014 0021 0018 ffec     ..........!.....
   269d0:	ffe9 ffea ffe5 ffde ffd7 ffd8 ffe4 ffdd     ................
   269e0:	ffde ffe9 fff5 fff6 fffc 001f 0015 000b     ................
   269f0:	0012 0010 000f fffd 0004 000e 0003 fffd     ................
   26a00:	fff8 fffa fff2 ffe3 fff1 fff4 ffe0 ffdc     ................
   26a10:	ffdf ffdb ffcf ffc3 ffce ffcc ffc2 ffbd     ................
   26a20:	ffdd ffd4 ffc3 ffc8 ffcd ffd5 ffd1 ffd3     ................
   26a30:	ffcc ffde fff1 fff1 fff0 fff4 ffdd ffdd     ................
   26a40:	ffe7 ffe8 ffef ffe8 ffe8 ffe1 ffcc ffde     ................
   26a50:	fff1 ffed ffeb ffe8 ffdb ffe4 0005 0006     ................
   26a60:	0005 fffa 0001 0005 0016 0010 000b 000c     ................
   26a70:	fffa 0003 0010 0010 000d 0018 001c 0001     ................
   26a80:	0005 0014 0027 0033 0037 003c 0035 000f     ....'.3.7.<.5...
   26a90:	ffff 0016 0028 002b 0028 0011 0005 0019     ....(.+.(.......
   26aa0:	001a 0016 0018 0003 0009 0012 0015 0026     ..............&.
   26ab0:	001e 0014 0019 0022 0013 0008 0007 0015     ......".........
   26ac0:	0010 0016 0014 fffe 0008 0008 0013 0017     ................
   26ad0:	0012 fff7 0006 0010 0018 0020 002a 0039     .......... .*.9.
   26ae0:	0031 002a 0024 0035 0037 0036 0036 0039     1.*.$.5.7.6.6.9.
   26af0:	0038 0033 0035 0034 002b 001d 0024 0029     8.3.5.4.+...$.).
   26b00:	001d 0016 000f 0015 0018 0026 002e 0020     ..........&... .
   26b10:	000f 0000 000d 0017 0014 0021 002b 002c     ..........!.+.,.
   26b20:	0035 002b 0030 003c 003c 0038 0024 001b     5.+.0.<.<.8.$...
   26b30:	000f 0003 000d ffff fff6 fff1 fff3 ffe7     ................
   26b40:	ffec fffa fff4 0003 0005 0009 0004 ffe9     ................
   26b50:	fff0 0001 0003 fff0 fff9 0009 0005 000e     ................
   26b60:	000e 001a 000c 001a 001a 000c 0000 0002     ................
   26b70:	0010 000b 0006 fff7 ffdd ffe5 fff2 ffdd     ................
   26b80:	ffd7 ffdd ffd6 ffe6 fffb fffa 000c 0009     ................
   26b90:	0009 000c 000b 0003 0008 001c 0023 0022     ............#.".
   26ba0:	0020 0014 0003 fffd ffff 0016 001e 001f      ...............
   26bb0:	0020 000b fff1 ffef fff4 fffd fff5 fff0      ...............
   26bc0:	ffe4 ffe7 ffde ffd4 ffeb fff7 0001 000a     ................
   26bd0:	0017 fffa ffe4 ffe6 ffff 0004 fff1 ffe8     ................
   26be0:	ffdb ffe6 ffeb ffe7 ffda ffe0 ffe1 ffcf     ................
   26bf0:	ffc5 ffed 0000 ffea ffe6 ffe1 ffec fffd     ................
   26c00:	ffff fffb ffee ffdf ffe8 ffe7 ffe2 ffe6     ................
   26c10:	fff7 fff8 ffe0 ffdc ffe2 fff9 fffa fff3     ................
   26c20:	fffc 0000 0001 ffee ffeb ffea 0004 000b     ................
   26c30:	0012 ffff 0004 fff9 ffe9 0005 000b 0001     ................
   26c40:	ffea ffee fff8 fffb fff1 ffe8 ffe0 ffe8     ................
   26c50:	ffe4 ffea fff1 ffea ffdb ffef fff6 ffe7     ................
   26c60:	fff3 ffea ffde ffeb fff3 fffd 0003 ffff     ................
   26c70:	ffeb fff0 fff7 fff1 0004 0006 fff7 0008     ................
   26c80:	000b fff9 fff0 fffc 0012 0017 0015 0002     ................
   26c90:	0001 fff9 fff7 0012 fff8 ffe9 fff3 fff3     ................
   26ca0:	ffe6 ffee fff2 ffdc ffed 0007 fffd ffea     ................
   26cb0:	ffee fff3 fff8 fff5 fffc ffeb ffdd ffe1     ................
   26cc0:	fff1 fff1 ffe2 ffdf ffe2 ffec fffd ffea     ................
   26cd0:	ffe4 ffed ffee fff1 fff6 ffe8 ffdb ffd1     ................
   26ce0:	ffce ffd7 ffda ffda ffd1 ffd8 ffd9 fff7     ................
   26cf0:	0006 0001 fffd fffb ffed fffe 0006 000f     ................
   26d00:	0008 fffe 0001 ffe9 fffb 0014 0022 0016     ............"...
   26d10:	0018 0022 0025 001e 0013 001e 001d 0014     ..".%...........
   26d20:	0019 0015 001b 0010 000b 0015 001d 0017     ................
   26d30:	0006 0014 0020 001d 0014 000c 000a 0017     .... ...........
   26d40:	0008 0005 000b 0013 000a 0008 0000 0001     ................
   26d50:	0007 0014 0019 0012 000d 0003 000e 000d     ................
   26d60:	0024 0028 001f 000d fff5 0004 0021 002b     $.(.........!.+.
   26d70:	0015 0008 0014 0015 0015 001c 002f 002c     ............/.,.
   26d80:	0025 0013 0004 001c 002c 002c 0014 0004     %.......,.,.....
   26d90:	0008 000e 0018 0027 002e 002f 0021 002c     ......'.../.!.,.
   26da0:	001b 0015 0028 002d 0026 0025 002e 0026     ....(.-.&.%...&.
   26db0:	001e 0020 0019 0018 0015 0017 0013 0011     .. .............
   26dc0:	001f 001f 0005 0001 0017 001f 001d 0021     ..............!.
   26dd0:	0015 0017 0019 0001 0007 000c 000a 0012     ................
   26de0:	0011 0003 fff6 ffef fffe fff5 ffed ffe6     ................
   26df0:	ffea fffa fff3 fffa fff3 fff3 fff0 0005     ................
   26e00:	0015 0007 000a 0004 0000 0008 0012 0008     ................
   26e10:	0006 0013 0010 001a 0013 fff9 ffe6 fffb     ................
   26e20:	0011 fff2 fff1 ffe8 fff9 0005 0007 0004     ................
   26e30:	ffef fff1 ffe9 ffe2 ffe5 ffe5 fff1 ffe8     ................
   26e40:	ffe7 fff0 fff6 ffe2 fff3 0009 0006 ffff     ................
   26e50:	fff7 ffe0 ffe9 fff0 fff3 ffee ffd9 fff1     ................
   26e60:	ffef ffda ffea 0006 fffb ffea 0000 fffc     ................
   26e70:	fff3 fff6 fff8 fff9 fff3 ffef fff7 0000     ................
   26e80:	0001 fff2 ffeb ffed ffec ffea fffe ffde     ................
   26e90:	ffcc ffc8 ffe2 fffd fffd fffb fff0 ffef     ................
   26ea0:	ffe1 fff4 fff1 ffe2 ffdf ffde ffda ffd8     ................
   26eb0:	ffe8 ffe5 ffef ffeb ffeb ffe7 ffea fff7     ................
   26ec0:	0006 0002 0003 0005 fff4 fff4 ffe3 ffee     ................
   26ed0:	fffe 0003 0003 0006 0001 ffef fffc 0004     ................
   26ee0:	fffa fff4 ffef fffc 0001 fff6 ffe5 ffdf     ................
   26ef0:	ffda ffd7 ffd0 ffe7 ffe3 ffdf ffe5 ffe6     ................
   26f00:	ffec ffe8 fffd 0007 fff9 fffc ffff 0000     ................
   26f10:	fff3 ffe5 fffa ffef fffd 000a 000f 0005     ................
   26f20:	fffb fff8 0007 fffd fffd 0001 0002 fff7     ................
   26f30:	fff1 fff8 fff7 ffe3 ffe8 fff4 0000 ffee     ................
   26f40:	ffe0 ffed fff0 fff6 fff4 0001 fffa fff9     ................
   26f50:	ffe9 fff3 fffe fff9 ffde ffe5 fff3 fff3     ................
   26f60:	fff5 ffee fff5 fffc fffa 000d 000e 0004     ................
   26f70:	ffea ffed 0002 0001 fffc fff4 0002 fffb     ................
   26f80:	0006 0011 000c 0007 0007 0019 0025 0012     ............%...
   26f90:	0002 fff7 ffff 0003 fff9 fffb 0018 0013     ................
   26fa0:	0002 ffff 0011 000e 0006 0012 001f 0032     ..............2.
   26fb0:	0028 0012 0014 0012 0019 002c 002b 001e     (.........,.+...
   26fc0:	0033 0042 0038 0026 0019 000d 001b 0028     3.B.8.&.......(.
   26fd0:	0033 0037 0029 0023 0016 000b 001d 0027     3.7.).#.......'.
   26fe0:	0038 0037 001a 0018 001a 001e 001a 0017     8.7.............
   26ff0:	0025 003b 0046 003b 0021 001a 001b 0020     %.;.F.;.!..... .
   27000:	0036 0034 0032 0017 000c 000b 0007 000d     6.4.2...........
   27010:	fffc 000e fff8 fff5 000f 0007 fffb 0011     ................
   27020:	0016 0028 001a 0007 fff5 ffff 001d 0004     ..(.............
   27030:	000b 0008 fff7 fff9 0001 0009 fff8 0007     ................
   27040:	0009 0006 fffe 0001 0002 fff9 000d 000e     ................
   27050:	000e 0005 0004 0007 0012 0013 0014 000f     ................
   27060:	0010 0021 0026 0016 0003 fff5 ffed ffe4     ..!.&...........
   27070:	ffe2 ffde ffec ffec ffe1 ffd1 ffc2 ffd5     ................
   27080:	ffdb ffdb ffd8 ffde ffea ffef 0008 fffb     ................
   27090:	fff0 ffef fff6 0003 0002 fff9 0002 001c     ................
   270a0:	000c 0003 0015 000d 0015 0008 0002 0008     ................
   270b0:	fff7 0006 ffee fffe 0004 ffff ffff ffeb     ................
   270c0:	fff1 ffec 000e 0011 fffe 0005 0005 001f     ................
   270d0:	0026 0006 0004 ffff 0009 000a 0004 fffc     &...............
   270e0:	0002 001a 0019 0001 0000 ffe6 ffec 0009     ................
   270f0:	ffff ffed ffeb fff8 fffc fffb ffe6 ffde     ................
   27100:	ffd3 ffe2 ffe9 ffe8 ffe2 ffd0 ffe5 ffe3     ................
   27110:	ffee 0000 fffa fff1 ffed ffdd ffde ffe5     ................
   27120:	ffea ffe3 ffea ffea ffdb ffe9 ffdd ffda     ................
   27130:	ffe2 fff1 0016 001e 002b 0013 0000 ffe2     ........+.......
   27140:	ffe5 ffef fff3 fff2 ffe5 fff9 fffd fffa     ................
   27150:	ffea fff6 ffe3 ffc3 ffe0 fff0 ffe5 ffe7     ................
   27160:	ffe9 ffdd ffd1 ffd8 ffe6 ffe0 ffe8 ffe1     ................
   27170:	ffdf fff1 ffdc ffd9 fff3 ffe9 ffdc ffdd     ................
   27180:	ffe3 fff8 fff8 fff4 ffd5 ffc0 ffd5 ffde     ................
   27190:	ffd5 ffbd ffb6 ffc2 ffca ffed fffb fff3     ................
   271a0:	ffec fffd fffa fffb 0015 001f 001f 001c     ................
   271b0:	0029 0023 0022 0027 002f 002c 0025 001d     ).#.".'./.,.%...
   271c0:	0010 0009 0005 ffff 0010 000f 000a fffb     ................
   271d0:	fffa ffef ffde ffe1 ffe1 ffe8 fff1 fff4     ................
   271e0:	ffe2 ffee 0006 0002 fff6 fffe 0008 001a     ................
   271f0:	0011 0010 000d 000c fff7 ffeb 0000 ffeb     ................
   27200:	fff4 ffff fffb ffee fff0 fff4 0001 0009     ................
   27210:	fff9 0013 001a 0022 001f 002b 0020 0007     ......"...+. ...
   27220:	000e 000d 0022 0026 0033 002d 000f 0007     ....".&.3.-.....
   27230:	0010 0010 000a 0012 000b 000d 0012 001f     ................
   27240:	0007 fff6 fffb ffff fffd 0014 000d 0013     ................
   27250:	0014 ffff 0010 000e 0020 001c 0010 001a     ........ .......
   27260:	0035 002d 0020 000e 0000 001f 0029 0030     5.-. .......).0.
   27270:	001b 000f 0015 000a 0007 fffe 000a 0006     ................
   27280:	000a 0004 fff4 000f 0012 000f fff9 fffa     ................
   27290:	000d 001c 0014 ffff 0000 0004 0014 0019     ................
   272a0:	001d 0008 0016 000e 0006 fffa 0006 0025     ..............%.
   272b0:	0024 002c 0010 001a 0014 0019 001d 002d     $.,...........-.
   272c0:	0036 002f 002a 0019 001c 0022 0026 001a     6./.*.....".&...
   272d0:	001b 002d 0032 0022 002c 002c 0028 002c     ..-.2.".,.,.(.,.
   272e0:	002f 002b 0026 0026 001f fffe ffd9 ffe1     /.+.&.&.........
   272f0:	0008 0016 0008 ffec ffee ffe3 ffe9 fff3     ................
   27300:	fff2 0006 0009 0017 0004 ffed ffe5 ffe2     ................
   27310:	ffec ffef 0006 0000 fffe ffee fff5 0005     ................
   27320:	0002 fff9 ffef ffe7 ffeb fffe 0014 0014     ................
   27330:	fffe fff1 ffe5 fff6 0004 fff7 ffe4 ffe6     ................
   27340:	fff2 ffe9 fffe 0012 0012 fff3 ffee 0005     ................
   27350:	fff8 fff3 ffd9 ffee ffe4 ffe7 ffd9 ffc4     ................
   27360:	ffdc ffd7 ffd9 ffd9 ffc8 ffd9 fff2 fffc     ................
   27370:	ffff ffee ffef ffe8 fff1 fff0 ffed fffb     ................
   27380:	fff9 fff5 ffe6 ffe3 ffeb fff5 fff7 ffdf     ................
   27390:	ffd6 ffe4 ffcf ffdc ffe0 ffd4 ffe2 ffd9     ................
   273a0:	ffd3 ffdc ffdd ffe4 ffe8 ffe3 ffec ffea     ................
   273b0:	fff3 000e 002d 001f 0010 0002 0001 0017     ....-...........
   273c0:	0014 0018 001b fffd ffeb ffdd ffdc ffef     ................
   273d0:	ffea ffec ffdc ffd6 ffea ffe3 fff2 fffe     ................
   273e0:	000c 0017 000b fffb fffb 0009 000c 000f     ................
   273f0:	001d 0015 001e 0015 0018 0026 001a 0011     ..........&.....
   27400:	000d 001b 001d 0006 0016 0013 fffe ffff     ................
   27410:	fffa 0004 fff6 fff4 fffc 000f 0018 0011     ................
   27420:	001c 0008 0005 0009 0003 000d fff9 ffec     ................
   27430:	fff5 0006 000d ffed ffd3 ffe4 fffe 000c     ................
   27440:	fff9 ffdc ffdd fff5 ffe8 ffd7 ffcc ffd1     ................
   27450:	ffce ffcb ffeb ffed ffee fff8 ffe1 fff0     ................
   27460:	0000 0019 0009 fffa fff2 0007 000d fff7     ................
   27470:	ffdb ffb5 ffca ffc1 ffea fff5 ffdf ffea     ................
   27480:	ffeb fff6 fffc fffb fff5 ffe1 ffee 0017     ................
   27490:	000c 000f 0003 ffeb ffef ffeb ffee fff7     ................
   274a0:	0008 0001 0001 fff0 ffe2 0005 000b fff4     ................
   274b0:	fff1 fff7 ffed 0006 0008 fffb fff2 fff4     ................
   274c0:	0007 0012 0005 0003 fffd 0008 0022 0042     ............".B.
   274d0:	0023 0013 0018 000d 0032 002c 001a 002f     #.......2.,.../.
   274e0:	0032 001e 002f 0039 0028 0025 0024 0025     2.../.9.(.%.$.%.
   274f0:	001c 001d 0020 003c 0032 0022 0025 001b     .... .<.2.".%...
   27500:	0027 001a 001b 000b 0008 0020 0024 0029     '......... .$.).
   27510:	0005 ffff 0002 0006 0018 000c 0007 fffa     ................
   27520:	000c 0006 fff3 000f 0002 000c 0006 000f     ................
   27530:	0013 001c 0028 0023 0013 000e 0005 0006     ....(.#.........
   27540:	001d 0016 001a 001c 001c 001e 001d 001a     ................
   27550:	0029 002f 0029 0017 0012 0016 0011 0020     )./.)......... .
   27560:	001d 001c fff9 000c 0034 0031 001f 0015     ........4.1.....
   27570:	0028 0021 0030 001d 0003 0006 ffff 000d     (.!.0...........
   27580:	0009 000b 000f 0010 fffe ffee ffe0 ffde     ................
   27590:	ffe4 ffdd ffe7 ffe5 ffd5 ffda ffeb fff1     ................
   275a0:	000a ffeb ffdb ffe7 0007 0013 0003 fff4     ................
   275b0:	ffd9 ffd8 ffe3 ffe8 ffeb fff7 fff4 fffa     ................
   275c0:	fff1 ffed fff2 ffe8 fff3 ffee ffd9 ffe6     ................
   275d0:	ffe5 fff4 ffeb fffc 0007 fffb fff1 fff0     ................
   275e0:	ffee fffa fff6 ffe9 fffc fff8 ffe6 fff6     ................
   275f0:	ffee fff1 fff2 ffe6 fff9 ffda ffde ffe6     ................
   27600:	ffe9 ffe2 ffdc ffe0 fff0 fff0 ffee ffdf     ................
   27610:	ffc4 ffc0 ffcc ffe4 fff6 fff9 ffec ffd5     ................
   27620:	ffd2 ffd2 fff7 0006 0004 fff9 ffe2 ffe9     ................
   27630:	fff1 ffea fff1 fff7 0004 0014 0007 0009     ................
   27640:	fff5 0004 0019 0025 0032 0032 003c 0034     ......%.2.2.<.4.
   27650:	0032 0041 0026 0029 0020 002c 0036 002f     2.A.&.). .,.6./.
   27660:	0029 000a ffe8 0000 0017 0009 fffd fff6     )...............
   27670:	fffb 0003 fff7 ffee fffd 0009 fffa ffec     ................
   27680:	ffdb ffeb fff6 ffef ffe3 ffd7 ffe8 ffdc     ................
   27690:	fff1 ffed 0008 0008 fff7 fff8 ffe4 ffef     ................
   276a0:	ffe1 ffd7 ffd1 ffbf ffbb ffd0 ffd0 ffc2     ................
   276b0:	ffc4 ffcb ffe6 ffe0 ffdb 0003 ffff 0005     ................
   276c0:	fffa ffef ffd5 ffe2 ffef ffec ffef ffde     ................
   276d0:	ffe3 ffd5 ffc8 ffde ffd4 ffd4 ffd4 ffea     ................
   276e0:	ffda ffdb fff1 ffd1 ffc6 ffd5 fff0 ffe2     ................
   276f0:	ffe3 ffef ffe6 fff2 ffde fff4 fff5 ffe9     ................
   27700:	fff1 0001 0014 fff5 ffe9 ffdd ffdd fff1     ................
   27710:	fff4 0003 fff4 0004 000b fff9 fff0 0009     ................
   27720:	0026 000b 0002 0001 000b 0000 0004 0018     &...............
   27730:	0020 002a 0023 0017 0000 fffe 0006 0017      .*.#...........
   27740:	0017 000d 000d 0007 0020 002c 0032 001d     ........ .,.2...
   27750:	0000 0004 001f 0027 0011 0018 0022 0027     ......'.....".'.
   27760:	000e 001e 0028 0031 0040 004e 0052 0037     ....(.1.@.N.R.7.
   27770:	0027 0029 0043 004b 0043 0044 0049 003e     '.).C.K.C.D.I.>.
   27780:	003a 003c 0034 002e 002b 0021 0019 0025     :.<.4...+.!...%.
   27790:	0026 0034 0035 0037 001e 0003 0012 002a     &.4.5.7.......*.
   277a0:	002b 001b 0011 0013 0009 000b 0016 0013     +...............
   277b0:	000e 0009 0029 0020 0014 000f 000a 001a     ....). .........
   277c0:	001d 0023 002b 0033 001c 0007 0023 0029     ..#.+.3.....#.).
   277d0:	001c 0006 0018 0012 fffe 000e 001a 0023     ..............#.
   277e0:	0019 0000 0012 000f 002f 0014 000e 0012     ......../.......
   277f0:	0019 0022 000c 0011 0000 000c fff9 fff3     ..".............
   27800:	0002 ffee fffb ffe8 fff5 ffdc ffdd ffe1     ................
   27810:	ffd2 ffcd ffdd fff6 ffc3 ffc9 ffdf ffd3     ................
   27820:	ffe7 ffe8 ffdf ffde fff6 ffe5 ffec ffe7     ................
   27830:	0000 fffe ffe9 ffff 0001 0005 fff3 000a     ................
   27840:	001b 001c 0014 0016 0025 fffe 0006 0005     ........%.......
   27850:	0009 fffc ffea fff1 fff2 fffc 0012 fffe     ................
   27860:	0023 0027 0010 0015 0026 002a 0008 fff0     #.'.....&.*.....
   27870:	fff7 0012 0028 fff9 fff6 000c 000f ffff     ....(...........
   27880:	0017 0019 0011 0015 001b 0007 0016 0012     ................
   27890:	0011 001e fff8 ffe5 fffa ffd6 ffd7 ffe0     ................
   278a0:	ffdc ffc9 ffd5 ffd7 ffba ffbe ffd8 ffda     ................
   278b0:	ffc8 ffc6 ffc1 ffed ffe1 ffe7 ffed ffde     ................
   278c0:	ffc8 ffeb fffe ffdb ffd4 ffdc ffde ffdd     ................
   278d0:	ffdf ffc6 ffc8 ffc8 ffd5 ffdc ffc3 ffc7     ................
   278e0:	ffba ffc7 ffbc ffdf ffeb ffe1 ffe6 0013     ................
   278f0:	0009 000f 001f 002a 0021 000f fffe ffee     ......*.!.......
   27900:	ffeb 0005 fff1 fffe fff4 ffc5 ffc6 ffc5     ................
   27910:	ffe5 fffc fff9 ffdd ffd5 ffed ffed 0001     ................
   27920:	000c 0008 0004 0014 0004 fffa ffee fff3     ................
   27930:	fffd 000c 0008 0005 fff8 0003 0020 0020     ............ . .
   27940:	0018 001b 0007 0013 0002 002c 001c ffff     ..........,.....
   27950:	ffe9 fff3 fff4 001c 001f 001e 000a ffea     ................
   27960:	ffec fff1 0013 000a 0010 fff4 fff3 0000     ................
   27970:	fff7 ffee ffea ffe1 ffdf ffee ffeb fff9     ................
   27980:	000f 001a 000c 0013 001b 0018 001f 0025     ..............%.
   27990:	0026 0034 002f 0027 002b 0026 0009 0005     &.4./.'.+.&.....
   279a0:	0013 0013 000e 0026 0015 001e 0010 ffec     ......&.........
   279b0:	ffe2 ffe2 fff0 fffb fffb ffeb ffe5 0014     ................
   279c0:	fffc 0007 fffa 0011 ffec ffe1 fffa fffb     ................
   279d0:	0021 0008 000d ffff 0013 000c 0016 0016     !...............
   279e0:	0007 000b 0006 0004 0002 001c 001d 000c     ................
   279f0:	fffc 0002 000a fffe 0007 ffff fffa fff6     ................
   27a00:	0002 0011 fffe 0024 001f 0014 0009 000c     ......$.........
   27a10:	001c 0025 0018 0019 000a 0003 0015 000e     ..%.............
   27a20:	000f 0014 001a 001b 0018 0011 0029 0010     ............)...
   27a30:	000d 001a 0025 0013 0005 0005 fffa ffff     ....%...........
   27a40:	fff9 000e fffc 000f fffc fff8 ffd1 ffd4     ................
   27a50:	ffea fff5 0002 0007 0018 0018 001b 0011     ................
   27a60:	0014 fffb 0009 fff8 0014 fff7 0006 fff2     ................
   27a70:	fffc fff1 fffb ffee 0000 fff6 fffa 000e     ................
   27a80:	001c 001f 000e 0016 000e 0031 0026 002c     ..........1.&.,.
   27a90:	001e 0025 0033 0030 002a 000e 000e 002c     ..%.3.0.*.....,.
   27aa0:	0030 0022 001a fffd 0004 000b fff7 ffe9     0.".............
   27ab0:	ffdf ffed fffb fff2 0001 0013 0011 fffc     ................
   27ac0:	000a fffd fffb fff6 0005 fff2 000e 0014     ................
   27ad0:	ffff fffb 000c 0013 000d 000f 001b 0019     ................
   27ae0:	0009 000c 001a 002c 002b 001e 000d fffa     ......,.+.......
   27af0:	fff4 0012 000f fff3 ffdc ffd1 ffec ffea     ................
   27b00:	ffeb ffe3 ffd7 fff4 000a fff3 ffda ffd2     ................
   27b10:	ffd8 ffd2 ffcc ffd9 ffc6 ffc4 ffd5 ffe2     ................
   27b20:	fff0 fff5 ffe3 ffc8 ffd9 ffec ffe0 ffdd     ................
   27b30:	ffd1 ffc9 ffc7 ffdd ffe7 ffe2 ffd8 ffd0     ................
   27b40:	ffde ffe3 ffef 0000 0004 ffef ffdf ffdc     ................
   27b50:	ffef 0005 0019 0008 ffe6 ffe2 ffe4 ffe8     ................
   27b60:	ffed fff4 ffef fffe 0005 fffb ffe7 ffec     ................
   27b70:	ffd4 ffe0 ffd8 ffe5 fff7 ffea ffea ffec     ................
   27b80:	ffe4 ffea ffe6 ffee ffef ffe8 fff7 fffc     ................
   27b90:	ffff 0009 0018 0029 001a 0005 0009 0010     ......).........
   27ba0:	0010 0017 000f 000c 0003 0006 0009 fff9     ................
   27bb0:	fffc 0003 fff1 0005 0015 0015 0017 0018     ................
   27bc0:	0008 fff1 0009 000a 0003 ffe5 ffe8 000c     ................
   27bd0:	0012 0007 ffee ffe6 ffe6 ffef fff6 fff6     ................
   27be0:	ffea ffdf ffe4 ffe7 ffe1 ffed 0005 fff0     ................
   27bf0:	fff9 ffe5 ffd9 ffe0 ffdb fff7 fffc 000e     ................
   27c00:	0006 0009 0015 0017 001e 000a 0001 fff8     ................
   27c10:	fff4 0012 000e ffef fff0 ffe5 fff3 0013     ................
   27c20:	0019 fffa ffef 0009 000a 0001 001b 0026     ..............&.
   27c30:	0012 000c 0024 002b 0019 0000 0004 0013     ....$.+.........
   27c40:	0011 0009 0023 0011 fff7 0009 0006 0004     ....#...........
   27c50:	fff7 fffc 000d 000a 000b 0011 ffed ffea     ................
   27c60:	0000 0007 0011 0009 0016 001a 001c 001e     ................
   27c70:	000b 0019 0018 001b 002f 003a 0034 003c     ......../.:.4.<.
   27c80:	003b 0043 002a 0026 002a 0024 0025 002e     ;.C.*.&.*.$.%...
   27c90:	0021 000d 0014 0009 000b 0015 0022 0015     !..........."...
   27ca0:	fffa fff2 ffee 0005 0016 0013 0013 0011     ................
   27cb0:	000a 001f 002e 0020 0014 0008 001b 001d     ...... .........
   27cc0:	0024 0009 ffe8 fff3 fffb 0015 001e 000a     $...............
   27cd0:	fffd 0006 0000 0001 fffe ffff ffec ffe3     ................
   27ce0:	ffef ffd9 ffe6 0010 0009 fff9 ffee 000c     ................
   27cf0:	001b 001d 0019 0024 0010 0010 0011 001a     ......$.........
   27d00:	0020 0014 000d 0000 fff3 ffef ffee 000c      ...............
   27d10:	0012 fffe ffe2 ffed 0008 0011 0009 0017     ................
   27d20:	0015 0017 0014 0007 0004 fffe 0008 0012     ................
   27d30:	0012 0020 0012 0014 0005 fffa 000c 0011     .. .............
   27d40:	0012 000d 0000 fffc ffef ffe9 ffe6 ffeb     ................
   27d50:	fff1 fff2 0002 0004 fff7 fff8 fffb 0004     ................
   27d60:	fffc fff3 fff7 fff4 000f 001a 0000 ffdb     ................
   27d70:	ffc5 ffca fff8 0017 0006 fff9 ffea ffdc     ................
   27d80:	fff2 0010 001e 0010 fffd fff0 0004 ffee     ................
   27d90:	ffef fffe fffc fff5 fffa fff4 0000 0005     ................
   27da0:	0011 0011 0002 fff5 fff2 fffb 000e 0008     ................
   27db0:	0002 000b 0006 fffb fff4 0002 0004 ffff     ................
   27dc0:	fff4 fff5 0004 000e fffb ffee ffeb fff4     ................
   27dd0:	fffa fff7 fff3 fff1 ffde ffcc ffc5 ffd5     ................
   27de0:	ffeb fff0 fff7 fff1 ffd2 ffd4 ffe1 ffe4     ................
   27df0:	ffee fff6 ffdb ffd3 ffd7 ffcc ffd9 ffe1     ................
   27e00:	ffdd ffe7 ffd1 ffc2 ffc2 ffcc ffe5 ffdc     ................
   27e10:	ffc6 ffd6 ffd6 ffd1 ffd3 ffe1 ffdb ffe8     ................
   27e20:	ffea ffd9 ffed ffe9 fff0 ffec fffb fff9     ................
   27e30:	0008 0010 0009 000a 0009 fffb ffe4 fff8     ................
   27e40:	000c 0009 ffe1 ffed fff9 fff3 ffe4 ffed     ................
   27e50:	fff3 0008 0019 0014 0019 0001 0006 001c     ................
   27e60:	0028 0017 0012 0002 fff9 fff7 fffb fff9     (...............
   27e70:	ffe5 ffea fff2 ffec ffee ffef 0001 fff4     ................
   27e80:	ffdd ffd9 ffeb 000c 0001 0000 000e 001c     ................
   27e90:	001b 0007 0012 0003 0002 fffd 0003 0005     ................
   27ea0:	001f 002f 0000 fff0 fff5 0000 0012 0016     ../.............
   27eb0:	0016 000c 0011 0013 ffff fff5 0003 0009     ................
   27ec0:	fffb fff0 0006 0012 000b 001e 001a 0013     ................
   27ed0:	0015 0009 001e 001e 002d 002e 0026 001e     ........-...&...
   27ee0:	001c 001a 0021 002d 0027 0016 000c 0012     ....!.-.'.......
   27ef0:	000a 0009 0008 0007 0007 fffa 0005 0008     ................
   27f00:	0006 fffb ffff 0008 0007 0006 0000 0010     ................
   27f10:	0017 0014 000e 0004 0010 0018 0012 0017     ................
   27f20:	0015 0020 0022 002c 002d 0033 0036 0033     .. .".,.-.3.6.3.
   27f30:	002f 0024 0018 0018 001d 0009 fff7 fff5     /.$.............
   27f40:	0006 0017 001b 0023 0018 0017 000f 0019     ......#.........
   27f50:	002d 0031 002c 001e 001d 0021 0012 0005     -.1.,.....!.....
   27f60:	0013 001f 000d 0005 fff8 fffa fffc 0001     ................
   27f70:	fffc fff7 000d 0001 ffee fff7 fffa 0000     ................
   27f80:	0001 fff1 000e 000f 0000 000a 0013 0016     ................
   27f90:	0009 000e 000a 0009 0003 000f 0012 000c     ................
   27fa0:	0002 fff3 ffe7 ffee fff6 ffff 000e fffc     ................
   27fb0:	fff4 0005 fffb 0005 0002 0012 0015 001f     ................
   27fc0:	0005 fff7 fff9 0002 0007 0000 0009 ffff     ................
   27fd0:	fff8 0005 0004 fff7 ffde ffdf fffa fffc     ................
   27fe0:	fff1 ffeb ffe1 ffe0 ffde ffdd ffdc ffd3     ................
   27ff0:	ffcd ffd5 ffdf ffd4 fff3 0007 fff7 fff1     ................
   28000:	001e 0012 fff9 0001 fff9 ffed 0005 ffeb     ................
   28010:	fffc fff3 ffe0 ffb1 ffa7 ffd4 ffe3 ffee     ................
   28020:	ffe2 ffb5 ffbb ffd6 ffe2 ffe3 ffe9 ffec     ................
   28030:	ffdf fff1 fff3 0004 ffbd 0027 ffae 00ad     ..........'.....
   28040:	feeb 018a fd2a fdb1 05b9 04cf fb3f f7c6     ....*.......?...
   28050:	ff89 0278 08c4 08f1 fbac f2a4 f7a9 0099     ..x.............
   28060:	05e0 04ac 003e 0053 07a0 05a1 fd9b fc79     ....>.S.......y.
   28070:	fafb f9b5 0258 095a 01d0 fcca fa9a fc7b     ....X.Z.......{.
   28080:	0198 060e fcf9 f7a7 fa84 fe7d 01c6 08e5     ..........}.....
   28090:	0611 0471 067b 071b 0324 02c0 ffcb f94f     ..q.{...$.....O.
   280a0:	f77d f838 f75a fa65 fea2 ff56 ff73 0466     }.8.Z.e...V.s.f.
   280b0:	066d 0647 06eb 048c fef1 fec7 ff05 fc9f     m.G.............
   280c0:	fa1c f9c5 f91e fcbd 023c 03fe 0306 01c5     ........<.......
   280d0:	00b4 0133 0213 0044 fd11 fc17 fc61 fd86     ..3...D.....a...
   280e0:	ff4d ff44 fe8a 0011 0174 ffa6 0025 ff6e     M.D.....t...%.n.
   280f0:	fe9a fec5 00e2 0041 0022 0114 005a ffa9     ......A."...Z...
   28100:	0197 02af 025c 017e 00a7 01ab 0304 02c7     ....\.~.........
   28110:	00a1 ff2d ffd4 0014 0048 01cf 034a 04a3     ..-.....H...J...
   28120:	0591 0562 024c 009d 00a5 009a 0026 000d     ..b.L.......&...
   28130:	ff9b ffe9 0112 013d 0040 ff51 00ba 00d0     ......=.@.Q.....
   28140:	ffdc ff51 feec ff0b ffc5 010f 01da 0138     ..Q...........8.
   28150:	ffb6 ff20 ff35 fed4 fd24 fa8a f991 fa92     .. .5...$.......
   28160:	fa5c f970 f83c f718 f78e f9b0 faa3 f86b     \.p.<.........k.
   28170:	f8cd fc45 fdc4 fe37 fed0 feab feda ff88     ..E...7.........
   28180:	0184 0401 04b2 0377 024e 03a6 0655 0644     ......w.N...U.D.
   28190:	04fa 0532 048a 06d2 0b42 0b0a 0253 fb4c     ..2.....B...S.L.
   281a0:	fbb1 050e 0eed 0c83 fee9 f47e f285 f4d4     ..........~.....
   281b0:	f953 fdf8 fe83 01de 0959 0e22 0c07 0717     S.......Y.".....
   281c0:	00df fb9d f84a f414 ef5e f069 f59e f939     ....J...^.i...9.
   281d0:	fb54 fcff fc81 fcd8 fe2d fd9a fb91 fb00     T.......-.......
   281e0:	fc02 ff26 03b3 056e 050b 065c 0757 0852     ..&...n...\.W.R.
   281f0:	09af 091b 06b5 068d 09c1 0b53 08bc 0473     ..........S...s.
   28200:	045e 0aa1 104a 0a16 06da 0cec 0f94 050b     ^...J...........
   28210:	fa3e f840 ffb0 07cf 08f4 02c9 f8a6 efb0     >.@.............
   28220:	edf4 f587 fcaa fdc4 ff67 045a 0755 06d3     ........g.Z.U...
   28230:	03d4 fddd f6d5 f066 ed87 eea1 f26b f543     ......f.....k.C.
   28240:	f669 f6f9 f635 f56e f6da f8eb f935 fa1c     i...5.n.....5...
   28250:	fba8 fd2c ff31 01c0 02b8 03fe 04fb 0623     ..,.1.........#.
   28260:	07f4 08c7 05cc 030d 02d9 03b7 04ab 054f     ..............O.
   28270:	0563 05c5 083e 0b85 0b49 0719 0436 055f     c...>...I...6._.
   28280:	097e 07eb 00f7 ff42 01bd 0001 fa37 f853     ~.....B.....7.S.
   28290:	fcd8 04a5 08b6 06cc 0004 f705 efc1 ef96     ................
   282a0:	f45e f826 fa57 fd88 0237 05a0 0472 017c     ^.&.W...7...r.|.
   282b0:	fcd3 f609 efd0 f01a f4b2 f9d4 fbc1 faca     ................
   282c0:	f8da f830 faa7 fdfd ff90 00e3 02bd 04b1     ..0.............
   282d0:	0507 047f 03e3 03a7 030a 03d3 06a6 0920     .............. .
   282e0:	0852 05ee 0451 04a9 0651 0740 0756 04e2     R...Q...Q.@.V...
   282f0:	04d1 06a3 086d 07f6 068c 056e 0543 0503     ....m.....n.C...
   28300:	03b6 0554 04e5 fddb f98f fed7 0459 ffe9     ..T.........Y...
   28310:	f8a4 f91c ff68 0415 05b0 01ae f5d9 eaef     ....h...........
   28320:	eb18 f2ba f959 fc9d fee7 01c1 0378 03fc     ....Y.......x...
   28330:	0359 fef8 f811 f41e f562 f97a fd53 ff6c     Y.......b.z.S.l.
   28340:	fd52 f831 f6d8 fb6d ffe3 0165 01f9 03b0     R.1...m...e.....
   28350:	049f 0277 ff6d febe 01b7 0546 0738 084b     ..w.m.....F.8.K.
   28360:	074b 0381 00b1 01d3 058f 0778 0521 0463     K.........x.!.c.
   28370:	0646 0754 04bc 045e 04f8 0596 061b 073e     F.T...^.......>.
   28380:	04d5 00d9 fee9 0184 fffd fa3c fb30 0340     ..........<.0.@.
   28390:	033a f931 f342 f6b8 fe2e 0554 0734 fdd5     :.1.B.....T.4...
   283a0:	f15c ecd1 efe8 f387 f7c3 fbf3 fecc 0314     \...............
   283b0:	0693 082c 0447 fdbb f71f f55f f917 fe18     ..,.G....._.....
   283c0:	0017 feb3 fbe5 f933 f91a fb75 ffa2 01db     ......3...u.....
   283d0:	0292 0358 04eb 0406 0079 fe7a 0100 042f     ..X.....y.z.../.
   283e0:	0684 07c2 05de 0222 00a9 02ae 069e 082e     ......".........
   283f0:	08e7 06c6 02ea 01df 03c3 04d8 0626 074e     ............&.N.
   28400:	07b7 07cf 06c6 022b fd99 faab fd44 013a     ......+.....D.:.
   28410:	0162 fe50 fe26 fe6c fa5c f778 fafa 011b     b.P.&.l.\.x.....
   28420:	0367 0230 fdab f5d4 f01c f0d8 f621 fb81     g.0.........!...
   28430:	0034 053c 0898 06e8 0242 ffae 0006 fce3     4.<.....B.......
   28440:	f72f f64a fb9a 016d 032c 01ad fc3b f5d9     /.J...m.,...;...
   28450:	f653 fdfa 0366 03f8 037f 031c ff45 fe06     S...f.......E...
   28460:	0133 043e 0207 01ba 056b 06b9 03be 01fc     3.>.....k.......
   28470:	01f0 0375 06f9 08ce 0538 0216 0386 03aa     ..u.....8.......
   28480:	0240 045d 08da 08a6 03b4 000f ff10 fd85     @.].............
   28490:	fdf4 0155 00c1 fba8 fb50 003d 011e fbe7     ..U.....P.=.....
   284a0:	f824 f8c5 fba5 0187 0622 01f1 f6d1 f0e5     $.......".......
   284b0:	f26e f699 facb 0025 0331 0377 0509 065f     n.....%.1.w..._.
   284c0:	050d 015c fc9d f69a f515 fa9d 0120 01bd     ..\......... ...
   284d0:	fe4d fa62 f81f f918 fe2d 0221 0203 000e     M.b.....-.!.....
   284e0:	0060 0144 00c8 002e 0035 fff5 01d4 0799     `.D.....5.......
   284f0:	0a43 04ee fe25 feec 0522 0a8d 0b85 07d6     C...%...".......
   28500:	020e ff2e 0287 0859 0ae0 0678 00a1 0035     ......Y...x...5.
   28510:	0410 0525 01c3 fe60 fc50 fbcd fd61 ff96     ..%...`.P...a...
   28520:	ffad fe34 fcab fc01 fcdc fe1e fe62 fc7e     ..4.........b.~.
   28530:	fa04 f9aa fb5d fd5a fdca fbc9 f9d8 fc0f     ....].Z.........
   28540:	00c5 0306 012d fe8b fd88 ffcc 0226 ffa1     ....-.......&...
   28550:	fa2e f907 fbf1 fe57 ff40 ff12 fd32 fd3a     ......W.@...2.:.
   28560:	ffd8 00dd feef fdec fe3c feb8 0261 0554     ........<...a.T.
   28570:	0360 ff34 fef4 00a6 020c 05fe 0887 06b2     `.4.............
   28580:	03dc 0396 04f2 05b3 0637 02f6 0002 03e8     ........7.......
   28590:	0b63 08bb fd7b f8dc fee3 06d5 077f 0329     c...{.........).
   285a0:	fb75 f887 fc7c 0149 ffce f860 f549 f8e1     u...|.I...`.I...
   285b0:	008c 0053 fa29 f700 f9ba fec9 03e7 079a     ..S.)...........
   285c0:	0215 fa57 f8ab fb96 fc2e fd3b 00b3 00e3     ..W.......;.....
   285d0:	0037 003c ffad fc09 fb16 fd43 fc91 faf1     7.<.......C.....
   285e0:	fd07 01cd 0226 fffd 002a 01ac 01a3 00b2     ....&...*.......
   285f0:	0097 fe98 fd97 0189 05bc 058b 0179 ff96     ............y...
   28600:	ff5f 02fd 082e 08d0 0434 0014 0218 030a     _.......4.......
   28610:	0371 02b4 017a 00cb 0338 0522 0283 ff90     q...z...8.".....
   28620:	ffb5 000f 007b 012d 02b3 00aa ff2a 0038     ....{.-.....*.8.
   28630:	0083 fc18 f674 f75f fbb0 fede 0010 00b6     ....t._.........
   28640:	fdfd fa6c fdd3 043c 02ac fc70 fb5d ff8f     ..l...<...p.]...
   28650:	015b 0305 02e0 fbea f56c fab8 046e 02c9     [.......l...n...
   28660:	fe6b fd6a fd03 fa39 fcc4 0038 ff1c fe84     k.j...9...8.....
   28670:	01de 043b ff53 fe2d 0143 01e3 fcbf fc52     ..;.S.-.C.....R.
   28680:	0364 059c 029b 01f9 034d 0084 012c 051e     d.......M...,...
   28690:	03cb ffac 0141 0538 0470 03f1 02b0 ff39     ....A.8.p.....9.
   286a0:	fd4f 00e5 029d 0089 0136 03d1 02ac ff11     O.......6.......
   286b0:	fec2 fee3 fc73 fe8e 03d6 0217 fc67 fc98     ....s.......g...
   286c0:	ff0b fc3e fc27 ff74 ff91 fee8 049f 076c     ..>.'.t.......l.
   286d0:	02e2 ff7f feba fd1f fcaa 002e 0037 fe05     ............7...
   286e0:	fe8b 0075 ff2f fc86 fc72 fbd0 fbc7 fd6e     ..u./...r.....n.
   286f0:	0098 fff6 fdef fc19 fa6d fcab 0171 036f     ........m...q.o.
   28700:	ffc3 fddb fdc8 ff61 02b1 0502 01e6 fe16     ......a.........
   28710:	0045 02ec 0307 02fe 01e7 ff09 ffef 0361     E.............a.
   28720:	04b0 041a 01fe fe7f fcd3 fed5 02af 04ea     ................
   28730:	048f 0077 fce2 fe84 02ba 0331 014a 0070     ..w.......1.J.p.
   28740:	fef3 fc4e fbbd ffca 019a 00aa 003f 03e8     ..N.........?...
   28750:	0681 0467 ff86 fb04 fb13 fef4 020d 0019     ..g.............
   28760:	fdbe fd6a ff7b 0168 0202 fe4c fa55 fbdf     ..j.{.h...L.U...
   28770:	ffec 0066 fdb9 fb8a fbdc ff37 04c7 03df     ..f.......7.....
   28780:	faa4 f785 ffa4 04ca 02a8 ff3a fcb1 f964     ..........:...d.
   28790:	fd7b 078e 0833 ffd0 fd13 0171 025c 025a     {...3.....q.\.Z.
   287a0:	03f0 014c fc31 fdd0 038b 03e2 00cb ffc1     ..L.1...........
   287b0:	ff04 ff34 03b3 06a0 020c fba9 fbab feaa     ..4.............
   287c0:	00f7 043e 045e ff38 fa0b fbc7 00d6 0127     ..>.^.8.......'.
   287d0:	0016 027e 0402 01fc 0148 0185 fe9f fc6e     ..~.....H.....n.
   287e0:	00c5 03cb fdac f8d5 fb89 ff4b 00d7 0392     ..........K.....
   287f0:	0245 fa59 f7c4 ff0a 038a fec2 fb21 fdff     E.Y.........!...
   28800:	0110 02c6 032b 0053 fbe5 fe8f 0496 0336     ....+.S.......6.
   28810:	fc7e fc0f ffe9 01dd 028c 02e3 0006 fb8b     ~...............
   28820:	fe46 0347 0481 012a ffb5 fe4e fd6b fff9     F.G...*...N.k...
   28830:	020a ffcc fcdb fe52 0050 0037 ffab 026b     ......R.P.7...k.
   28840:	04b1 0398 ffc6 fbdb faa2 fcd4 0080 0348     ..............H.
   28850:	03f3 0122 ff52 0059 00d0 fe6a fd4b fffa     ..".R.Y...j.K...
   28860:	0340 03c5 0291 008d fd8b fe61 01fa 018f     @.........a.....
   28870:	fbfc f8a7 fc03 0174 0266 fe49 fa61 fbd5     ......t.f.I.a...
   28880:	ffca 007d fd35 fbaf fee9 020b 0298 ffb6     ..}.5...........
   28890:	fbf1 fbff 0273 078d 0535 fe70 fb49 fe5e     ....s...5.p.I.^.
   288a0:	02b0 058c 04aa 00f8 fe5c 0057 0388 03b6     ........\.W.....
   288b0:	febd fc04 0134 06f2 03f2 fc2a fc1e 0158     ....4.....*...X.
   288c0:	0383 0140 feec fcb1 fcdf 00cf 0377 ffd3     ..@.........w...
   288d0:	fa92 fc14 0165 03fa 00e9 fd4c fdc7 00eb     ....e.....L.....
   288e0:	0150 ff0c fe58 0073 0276 02d3 0225 fe65     P...X.s.v...%.e.
   288f0:	fa83 fae3 004d 0505 0560 0253 fe27 fe12     ....M...`.S.'...
   28900:	0214 0436 ff9a fc7c ff57 0337 01cf fd8a     ..6...|.W.7.....
   28910:	fbfe fd22 ff86 ffa7 fe4c fd86 fe5f fe5a     ..".....L..._.Z.
   28920:	fe2b ff4b fffe 00ba 01b0 011b ff4f 0036     +.K.........O.6.
   28930:	0381 0400 0154 ff6b 0006 0063 006c 0051     ....T.k...c.l.Q.
   28940:	00c7 00e2 004b 0227 03a7 01e1 fdad ffaa     ....K.'.........
   28950:	03d8 0244 fe8e fdd7 fea2 fdff 00ee 02e1     ..D.............
   28960:	ff25 fb12 fe7e 0326 0255 ffd0 fe9e fdfc     %...~.&.U.......
   28970:	ff43 046e 05ad ffbe fa99 fdd2 0394 03e7     C.n.............
   28980:	0113 fea4 fc6d fc64 0090 035b 0068 fd77     ....m.d...[.h.w.
   28990:	0086 0383 006f fc4d fcc2 ff82 0044 0030     ....o.M.....D.0.
   289a0:	ffa4 fd6c fb6a fd5f 025c 03f9 ffb2 fc03     ..l.j._.\.......
   289b0:	fd3f 003d 0061 fe70 fcb9 fb2a fc0b 0083     ?.=.a.p...*.....
   289c0:	041d 029f fe84 fe94 0134 0191 0007 0137     ........4.....7.
   289d0:	046a 037d ff73 fe20 0187 036e 0252 013e     j.}.s. ...n.R.>.
   289e0:	01b1 017a 0113 0224 01af ff85 fe81 0109     ..z...$.........
   289f0:	0355 032c 0094 feab feba 009f 00e5 0099     U.,.............
   28a00:	ff8e fd97 fd61 0068 0315 ffe9 fcf3 ff84     ....a.h.........
   28a10:	03a1 02b8 006c 009f 014c ff55 fe15 ff69     ....l...L.U...i.
   28a20:	007a 0011 000c 00ee 003d fea3 fda9 fe73     z.......=.....s.
   28a30:	feed ffbd 0054 0018 fdf4 fc8c fe7d 01bb     ....T.......}...
   28a40:	0191 fe17 fc00 fc70 fdb3 fe00 ff10 fff5     ......p.........
   28a50:	ff4d fdd8 fd2b fd6f fd17 fd4c ff76 0232     M...+.o...L.v.2.
   28a60:	0204 ff0e fd05 fcab fde4 0035 02d7 0397     ..........5.....
   28a70:	017c ff0e fe8b 0068 0212 027d 00fe 0075     |.....h...}...u.
   28a80:	0203 046f 0402 00b7 fd87 fe1d 02fe 0666     ..o...........f.
   28a90:	03c7 fe80 fd9b 017a 049d 028c fedc fd48     ......z.......H.
   28aa0:	ff42 01a2 02b5 01bb ff99 fefc 0048 0172     B...........H.r.
   28ab0:	000d fe44 fe60 ff6a ff8f fffe 00c7 0050     ..D.`.j.......P.
   28ac0:	fe75 fe77 0021 010a ff91 fe93 ff3a 002f     u.w.!.......:./.
   28ad0:	0030 ffd8 0046 ff2d fc8c fc05 ff2d 022e     0...F.-.....-...
   28ae0:	016e ff16 fe3b fee4 fef3 fe7e ff2c ff91     n...;.....~.,...
   28af0:	fee9 febf 0047 0124 ffb2 fddc fd16 fd29     ....G.$.......).
   28b00:	fdc9 fe9b ffd5 ff97 fe3c fe9f 0019 00d8     ........<.......
   28b10:	0006 ff8f 0048 0115 0123 0108 011c 00e0     ....H...#.......
   28b20:	ffd2 ff50 0059 010c 00f0 00ed 0170 01cc     ..P.Y.......p...
   28b30:	015d 00f6 00a2 0039 0038 0159 01d9 0115     ].....9.8.Y.....
   28b40:	ffba 006f 0267 02af 0114 ff6a ff99 fffa     ..o.g.....j.....
   28b50:	ffda ffde 00f1 018c 014f 00a5 0040 0009     ........O...@...
   28b60:	ffbf ffea 00e0 0178 00c1 ff73 fe7d fee4     ......x...s.}...
   28b70:	ff6b ff92 ff05 fec6 ff0f ffe1 0063 0063     k...........c.c.
   28b80:	0002 ff4e febf fece ffed 0050 0066 003b     ..N.......P.f.;.
   28b90:	0043 fffa 001c ffce ff0b fe70 ff0b 0022     C.........p...".
   28ba0:	0027 0005 0010 ffaf fed4 fec6 ff36 ff9d     '...........6...
   28bb0:	0003 0050 fffe fed9 fe68 ff4e 005a ffdf     ..P.....h.N.Z...
   28bc0:	fedd fe56 ff1a 00a6 0207 01b9 ffde feb5     ..V.............
   28bd0:	ff84 014a 01fb 00e6 ffd1 000c 0108 0174     ..J...........t.
   28be0:	00d4 ff97 fee8 ff8a 00e8 0179 00b3 ffb9     ..........y.....
   28bf0:	ffa9 0074 013f 0143 0090 fff2 004a 015a     ..t.?.C.....J.Z.
   28c00:	0236 01be 007b fff6 005e 0117 0105 ffde     6...{...^.......
   28c10:	fefe ff4f ffeb 0026 0014 ffaa ff07 fefd     ..O...&.........
   28c20:	ffa0 004f 0009 ff3b fef5 ffe9 009e 0043     ..O...;.......C.
   28c30:	ff9b ff5a ff9e 000a 0034 0002 ffa5 ff94     ..Z.....4.......
   28c40:	ffe4 0026 0025 ffdd ffce ffd2 fff2 000d     ..&.%...........
   28c50:	fff6 ffde ffe5 0011 fff2 ffbb ffb8 ffbf     ................
   28c60:	ffd3 ffef 0010 002a 005a 005a 004a 0052     ......*.Z.Z.J.R.
   28c70:	0067 006c 0043 0026 003e 0064 008a 0062     g.l.C.&.>.d...b.
   28c80:	000e ffd3 ffd1 001f 0056 0028 ffd6 ffc8     ........V.(.....
   28c90:	0012 003a 0008 ffb3 ffc8 ffe7 0010 0049     ..:...........I.
   28ca0:	0032 ffd5 ffbb ffe7 0003 0005 0008 ffe4     2...............
   28cb0:	ffd4 ffe2 fff5 ffd7 ffb4 ffdc fff5 000e     ................
   28cc0:	0000 ffc7 ff8b ffb4 fff0 ffda ffc5 ffc0     ................
   28cd0:	ffdd ffcc ffba ffb3 ffb3 ffb9 ffae ffbc     ................
   28ce0:	ffbc ff9d ff97 ffab ffa8 ff97 ff9e ffa9     ................
   28cf0:	ffc8 ffbf ffa5 ffc5 ffe1 ffd5 ffe6 ffed     ................
   28d00:	ffde ffd2 ffe6 0004 ffe7 ffd1 ffd5 fff6     ................
   28d10:	0000 ffe7 ffcd ffe6 000d 0002 ffdf ffd2     ................
   28d20:	ffd2 ffcd 0001 0012 fffc 0002 fff8 000e     ................
   28d30:	001c 0009 0015 0023 0021 0019 ffff fffb     ......#.!.......
   28d40:	000f 0010 0017 003f 002e fff9 ffdf fff2     ......?.........
   28d50:	0000 ffff fff0 fff2 0010 000c 001a 0042     ..............B.
   28d60:	003c 001d 0028 003d 002a 0010 0039 0031     <...(.=.*...9.1.
   28d70:	002a 003d 004b 0044 0006 000c 000c 0034     *.=.K.D.......4.
   28d80:	0049 0033 001f fff9 0003 0009 001b 0014     I.3.............
   28d90:	0002 fff8 fffe 000e 0005 0009 fff6 ffdc     ................
   28da0:	ffef fffb fffc ffd6 ffc8 ffc3 ffd5 ffe5     ................
   28db0:	ffd8 ffb8 ffa9 ffc1 ffd6 ffe1 ffc4 ffa3     ................
   28dc0:	ffaa ffba ffcd ffce ffc9 ffc9 ffe8 ffef     ................
   28dd0:	ffce ffb9 ffcd ffeb ffec ffe8 fffa 000e     ................
   28de0:	0006 fffb ffe3 ffee 0004 001e 002c 0002     ............,...
   28df0:	ffe2 0007 0021 0010 001c 001b 0016 0028     ....!.........(.
   28e00:	0035 002b 0016 001c 0029 003a 003e 0044     5.+.....).:.>.D.
   28e10:	0051 004b 0044 0048 0041 002a 0019 0025     Q.K.D.H.A.*...%.
   28e20:	002a 0032 0042 0036 001d 001b 0014 0018     *.2.B.6.........
   28e30:	0006 0012 0030 0037 0027 0042 0031 000a     ....0.7.'.B.1...
   28e40:	0015 001e 0011 0000 0011 0017 ffe4 ffdc     ................
   28e50:	ffe6 0005 0001 ffe2 ffea 000d 0023 0007     ............#...
   28e60:	fffc fff9 0010 0019 0020 002e 0031 0015     ........ ...1...
   28e70:	000d 001a 0028 0017 001b 000b 0018 0032     ....(.........2.
   28e80:	0032 0034 001f 0013 0021 0030 001d 0008     2.4.....!.0.....
   28e90:	0007 000e 0005 000b 0012 001d fffc ffe4     ................
   28ea0:	ffe6 0003 001a 0019 000c 000c 000c fff7     ................
   28eb0:	ffe4 fffb 001e 001c 0012 0025 0030 0008     ..........%.0...
   28ec0:	fff7 001b 0034 0029 0007 fffd fff8 0009     ....4.).........
   28ed0:	0024 0010 000e 0000 0009 0011 001a 0015     $...............
   28ee0:	0010 0015 001c 001f 0002 ffde ffe3 ffe3     ................
   28ef0:	fff9 001a 0021 0004 ffe4 fff6 0001 fffb     ....!...........
   28f00:	ffec ffe2 ffeb ffd3 ffcc ffec fff1 ffdd     ................
   28f10:	ffdd ffde ffe4 ffd8 ffdb fff4 fff7 000a     ................
   28f20:	fff4 fffc 0001 0002 ffeb ffe5 0000 fffa     ................
   28f30:	ffe4 ffe1 ffef ffe6 ffde ffdc ffca ffba     ................
   28f40:	ffb8 ffcb ffd2 ffca ffd7 ffe1 ffd1 ffc4     ................
   28f50:	ffe4 0004 fff5 ffea ffe5 fffd ffee ffe4     ................
   28f60:	ffe3 ffd4 ffde 000d 002b fffe fff3 ffe7     ........+.......
   28f70:	ffdd ffef fffb 000d 001f 0001 ffed fff3     ................
   28f80:	fff2 ffe8 fff3 fff5 0005 001c 001d fffd     ................
   28f90:	fff6 fff4 fff7 0016 002c 0016 fff1 0005     ........,.......
   28fa0:	000f 000e 0006 ffe1 ffc6 fff7 0003 ffdc     ................
   28fb0:	ffd6 ffe5 ffe8 ffe2 ffe6 ffe8 ffe0 ffda     ................
   28fc0:	ffef fff0 ffd2 ffdc fff0 ffc6 ffa1 ffd2     ................
   28fd0:	ffe0 ffc6 ffe1 fff0 ffe3 ffd0 fff7 0007     ................
   28fe0:	fff0 ffd7 ffef ffee ffee fff0 0011 fffe     ................
   28ff0:	ffe8 fff3 ffd8 ffca fffc 0013 fff4 fff0     ................
   29000:	000a ffde ffed 0021 000d 0016 001f 0005     ......!.........
   29010:	fff0 fff0 fff1 ffe4 ffea 0005 fff2 fff0     ................
   29020:	fffc ffd9 ffce ffd2 ffcc ffe1 fff1 0000     ................
   29030:	ffeb ffdb fff3 0003 ffef fff2 ffeb ffd6     ................
   29040:	ffdd 0018 0038 0006 ffef 0007 0017 002b     ....8.........+.
   29050:	0027 000c fff3 ffeb 000a 002b 002e 001c     '.........+.....
   29060:	ffed ffdd fffe 0014 0010 0011 001c 0003     ................
   29070:	fffb 0029 0022 0021 002e 0021 001a 001f     ..).".!...!.....
   29080:	0025 0027 000b fffd 0011 0038 0036 001c     %.'.......8.6...
   29090:	0017 0012 fffd 003a 0051 000f 0005 0032     ......:.Q.....2.
   290a0:	0022 002b 0035 0004 0001 0020 0024 003d     ".+.5..... .$.=.
   290b0:	0037 0025 0035 0011 0012 004a 0035 0019     7.%.5.....J.5...
   290c0:	001a 0021 000c 0007 001f 0013 ffef fffe     ..!.............
   290d0:	001c 001c 0034 0024 0017 0021 0023 0011     ....4.$...!.#...
   290e0:	001f 0011 0001 000e 0018 001b 0014 0040     ..............@.
   290f0:	000d ffdd fff9 0014 000e 001e 0020 000e     ............ ...
   29100:	001c 0014 0004 0003 fffd ffff 0005 0014     ................
   29110:	001d 0010 0005 0007 0011 0031 0022 000b     ..........1."...
   29120:	0032 0034 0050 ffda ffea 0045 0019 ff74     2.4.P.....E...t.
   29130:	fff5 0046 000a 0020 ffb8 0057 ff92 005e     ..F... ...W...^.
   29140:	ffb5 0075 00c9 fc4d 02ab 056f fc78 f73a     ..u...M...o.x.:.
   29150:	033d 0718 005c fb63 0088 0180 ff5a fc6d     =...\.c.....Z.m.
   29160:	feac 0165 020b ff94 0122 0484 023e ff74     ..e....."...>.t.
   29170:	ff82 00a3 fe68 fe32 fc7b fc26 fe98 fff8     ....h.2.{.&.....
   29180:	feba ff0f 0271 0231 00d4 007a 03f9 0209     ....q.1...z.....
   29190:	ffbe 006e 01d5 ffbd 002e ffd0 ff86 ff2f     ..n.........../.
   291a0:	ff10 fefb ff19 ff14 ffe9 ff51 ffc0 006e     ..........Q...n.
   291b0:	0066 ff19 004d 0160 00da ff0d fe90 00ce     f...M.`.........
   291c0:	0018 fd8f fd43 0018 ff93 fe01 fe48 016e     ....C.......H.n.
   291d0:	00e6 ffab ffeb 0118 00a9 014b ffcb ff40     ..........K...@.
   291e0:	0074 00ae ff29 fec4 0158 00ff feb7 feed     t...)...X.......
   291f0:	01b0 0164 0015 ff73 0157 ffe3 00ed 0103     ..d...s.W.......
   29200:	0178 0001 f8df 0689 0c8e fa41 ea5f 071d     x.........A._...
   29210:	1018 025e f29d 02ea 084b fd87 f140 fbd6     ..^.....K...@...
   29220:	06ff 02f9 fddf 02eb 0ac7 028d fd3f fd14     ............?...
   29230:	01c6 ff19 f914 faf0 021c 01f7 f6ba f9ef     ................
   29240:	051f 0819 fc32 fadd 0265 024b fd48 fa1a     ....2...e.K.H...
   29250:	0130 01b5 ffb1 fec8 072f 05c7 00f9 0078     0......./.....x.
   29260:	036f 00aa fc13 ff19 fff9 fecf f8ee fc23     o.............#.
   29270:	0047 02b1 fe27 0408 0423 fb34 fd3c 08ac     G...'...#.4.<...
   29280:	05a7 f0f8 fb3b 0795 060a f419 fa6c 0446     ....;.......l.F.
   29290:	0521 f6b7 f779 059a 067e fb29 fbbc 09ab     !...y...~.).....
   292a0:	0523 f91d fc4a 062f 0408 f9ed fa32 0240     #...J./.....2.@.
   292b0:	0353 fbe1 fb34 0240 01da fe8f 0186 0585     S...4.@.........
   292c0:	02ad 00e2 03d8 04a4 00c4 fec9 011b 0156     ..............V.
   292d0:	fea0 fcba 0161 01c9 00f3 fe72 0285 030e     ....a.....r.....
   292e0:	02f1 001d 049f 0371 0160 fffc 023a 00a6     ......q.`...:...
   292f0:	feed 0048 ffd9 ff48 fe58 ffd0 00c6 0181     ..H...H.X.......
   29300:	fe1e ff57 01bc 017d fdbb ffda ffdb fe4a     ..W...}.......J.
   29310:	fd92 fedd fdd2 fdaa fd55 fe2f fd2b fefd     ........U./.+...
   29320:	fdc3 fe08 fdbc 0122 0143 ffe9 fe0c ff22     ......".C.....".
   29330:	ff6a 001d fdb0 fcb7 feef 01ef fe9d fcaf     j...............
   29340:	ff43 0265 00d7 feb6 fe84 0125 02ad ff48     C.e.......%...H.
   29350:	fe4e 0012 011b ff8e fe45 00bf 0106 015c     N.......E.....\.
   29360:	0005 0116 025d 00e4 ff82 003f 020c ff87     ....].....?.....
   29370:	ff36 ff6b 02a1 00ac 0008 00a4 0592 01fb     6.k.............
   29380:	fe8d ffbb 04c5 0240 fe70 fe97 037c 00ee     ......@.p...|...
   29390:	fd79 ff68 032e fff3 fe41 0280 04db 00fa     y.h.....A.......
   293a0:	ffa8 0171 01ac 0048 fef1 ff00 0046 fe75     ..q...H.....F.u.
   293b0:	fe32 ff99 01cb fe17 ff0a 0137 026a feb6     2.........7.j...
   293c0:	ff62 021a 01ef fe66 fe07 0128 00eb fcd4     b.....f...(.....
   293d0:	fc49 002c 0288 fe03 fd80 00bd 02df ffa8     I.,.............
   293e0:	ff54 029e 01a0 fddc fe6c 0254 019d fe05     T.......l.T.....
   293f0:	fc7f ff6b 017c 0042 fe04 ff32 01b2 01e5     ..k.|.B...2.....
   29400:	ff9d fff2 ffe8 00a9 ff93 ffe7 ff3c ffd4     ............<...
   29410:	ffda fef0 fe3f 01c9 0303 fdaf fbbc 0234     ....?.........4.
   29420:	0515 fe2b fa6d 013c 0616 ffaa f935 fe50     ..+.m.<.....5.P.
   29430:	04e1 0378 fc2c fbcb 00c2 03af 000f fda2     ..x.,...........
   29440:	fd6f 0002 0018 0020 fda4 fd80 0055 0469     o..... .....U.i.
   29450:	ff9b fb69 fec7 0498 01d0 fba9 fbfe 023e     ..i...........>.
   29460:	03d1 fead faec 003c 03dd ff8b fd89 0319     ......<.........
   29470:	00ce fa65 fef6 0516 ff7e fa14 00b2 04d3     ..e.....~.......
   29480:	fef7 fbf5 0218 044e ffa8 fb29 fecf 0588     ......N...).....
   29490:	0214 f9bf fc47 0501 0387 fc6e fd84 02ab     ....G.....n.....
   294a0:	01a6 ffaa 012b ff98 fdb8 ffb8 016a fe75     ....+.......j.u.
   294b0:	fe01 0125 0037 fd64 0135 04ae 00aa fc06     ..%.7.d.5.......
   294c0:	00b2 04c9 0013 fce4 ff63 ff08 fe49 021a     ........c...I...
   294d0:	02cd fcd9 fa6d 021b 04cf ffba fbc3 ff4c     ....m.........L.
   294e0:	0348 0412 003d fc90 ff10 036d 0305 fda9     H...=.....m.....
   294f0:	fc42 0214 0493 0098 fc5e fff8 02d6 00c5     B.......^.......
   29500:	fceb 00c1 035d 0123 fc78 ff8f 038d 01b6     ....].#.x.......
   29510:	fcec fd47 025a 04d3 00c4 fb9b ff4f 04b5     ..G.Z.......O...
   29520:	01a6 f898 fc09 0466 0423 fcf4 fcf5 ff7a     ......f.#.....z.
   29530:	020a 012c fd1f f8f0 fe60 0573 034b fbac     ..,.....`.s.K...
   29540:	fd38 03d5 03e4 fc13 f819 fcde 03ac 0150     8.............P.
   29550:	fc85 fcce 02d8 038a 0113 feba ff49 ffe0     ............I...
   29560:	0311 03bf ff8b fd53 03e9 0682 ff7d fbe9     ......S.....}...
   29570:	02d7 0659 0267 ffce 002d 01b6 0310 038c     ..Y.g...-.......
   29580:	ffab ffc3 016e 02c1 0164 02af 0080 ff56     ....n...d.....V.
   29590:	ffdd 0186 fd71 fb1b fc63 ffe7 fe4f fc19     ....q...c...O...
   295a0:	fd7c ffc8 feb4 fc87 fd5e fccd fce5 feab     |.......^.......
   295b0:	ff6c fc81 fd1e 0025 ff91 fc97 fb3e fa35     l.....%.....>.5.
   295c0:	fc2c ffa2 fe97 f900 fb69 02c7 02f0 fd14     ,.......i.......
   295d0:	fd19 0193 0326 0385 04a7 0450 02d6 04c7     ....&.....P.....
   295e0:	091b 0865 02cd 0081 07a0 0d6c 0612 fd56     ..e.......l...V.
   295f0:	04e9 10f5 0986 fd2a 0017 09e0 04f3 fe1a     ......*.........
   29600:	ff92 0239 0099 023d 0322 fb8a f656 fcb2     ..9...=."...V...
   29610:	03d8 fd85 f422 f788 ff41 fde7 f63e f6dc     ...."...A...>...
   29620:	fbc3 fd12 fb5a fcee fe31 fd75 fd03 fdc1     ....Z...1.u.....
   29630:	fbab f951 fa55 fd73 fc2c f9d8 fb4f fe18     ..Q.U.s.,...O...
   29640:	fd69 fa7e fb2b fd3c fdcf fe37 0018 0082     i.~.+.<...7.....
   29650:	ffbc 02f9 06d0 06d1 0507 05a0 0733 08b2     ............3...
   29660:	0bd2 0890 02e2 06f3 100c 0c95 0205 0535     ..............5.
   29670:	0ef5 0e28 03ff 029e 0575 065d 02a2 0164     ..(.....u.]...d.
   29680:	fe0b faf0 fd0e 0419 02cf f9c7 f643 fa17     ............C...
   29690:	fc66 f85b f5a5 f546 f763 fc7b 00af fde4     f.[...F.c.{.....
   296a0:	f818 fa29 0075 ff94 f803 f6c9 faa0 fbe5     ..).u...........
   296b0:	f9bb f845 f78b f7e0 f983 fa24 f89b f9d3     ..E.......$.....
   296c0:	fd06 fe8b fcc2 fd03 00a7 0356 02bc 0091     ..........V.....
   296d0:	02e4 071d 0a21 08b7 06bb 0826 0d7b 0e71     ....!.....&.{.q.
   296e0:	0a22 055d 0829 0c1b 0be4 08ff 0812 07a7     ".].)...........
   296f0:	05e6 05bd 06f5 05ac ff76 fc4f fdf5 0106     ........v.O.....
   29700:	00fc fe8e fbd4 f984 fa42 fb26 f886 f3bb     ........B.&.....
   29710:	f48d f996 fdba fde7 fc63 fb31 fb72 fd31     ........c.1.r.1.
   29720:	fc2c f785 f4df f7c5 faa8 f98f f7a4 f9af     ,...............
   29730:	fbde fad5 f86d f8d3 fb38 fdc1 fe42 fcc8     ....m...8...B...
   29740:	fd1e 02b3 0656 03d8 008c 0453 08cf 08e4     ....V.....S.....
   29750:	0784 088d 0961 0b0f 0d5d 0c51 0529 0570     ....a...].Q.).p.
   29760:	0ed8 1145 06b1 01e2 09b7 0d6e 04b9 ffbb     ..E.......n.....
   29770:	0428 0583 ff2f fc41 fdc0 fee6 ffac 0123     (.../.A.......#.
   29780:	fd77 f6c3 f6b5 f9cb f7f5 f3aa f54c fae6     w...........L...
   29790:	fe95 fe6a fd7f fd7a fd4b fbe6 f935 f696     ..j...z.K...5...
   297a0:	f66d f7f3 f8f0 f843 f8cb fa5a fa73 f96f     m.....C...Z.s.o.
   297b0:	f939 fa3a fbfa fdf2 fdaa fc9f fe5c 02a2     9.:.........\...
   297c0:	02db 0084 0294 08bb 0963 060e 07a2 0e67     ........c.....g.
   297d0:	0caa 0484 0637 0f5b 0d6d 031c 0500 0ef9     ....7.[.m.......
   297e0:	0fa5 06ec 03f7 0648 0777 06ca 0550 00e9     ......H.w...P...
   297f0:	fc00 fca4 ffe4 ff13 fc52 fcc2 fdc7 fca7     ........R.......
   29800:	fb98 fa90 f7fb f59c f61a f93b fc73 fdd2     ..........;.s...
   29810:	fc5f fac8 fb92 fd97 fc98 f883 f591 f665     _.............e.
   29820:	f913 fac7 f98d f822 f9a2 fb48 fae6 fac1     ......"...H.....
   29830:	fc0c fc24 fd3c ff8d 01be 0173 0149 01f9     ..$.<.....s.I...
   29840:	035c 06cf 0935 06ed 03e8 0a31 0fa0 0ae0     \...5.....1.....
   29850:	040e 086d 0e0f 0ce8 07f3 05ba 07f7 0d98     ..m.............
   29860:	0d6d 02fa fb8f 032e 0d30 0703 f934 f756     m.......0...4.V.
   29870:	0086 04ad 005f fb51 fa58 fc4b fe47 fb26     ...._.Q.X.K.G.&.
   29880:	f3cc f189 f816 fce3 fbe2 faa3 fc42 fde1     ............B...
   29890:	fe8b fcad f90a f707 f8fd fa8e f895 f642     ..............B.
   298a0:	f8eb fd1f fd1e fa6c f9a3 fb2f fcdd fd83     ......l.../.....
   298b0:	fcab fc28 fe21 0352 04e4 012f 0073 0567     ..(.!.R.../.s.g.
   298c0:	09aa 0843 05bb 0605 0b9b 0cc7 06ae 0514     ..C.............
   298d0:	0c0e 0d52 0563 0493 0c3c 0eca 0610 0244     ..R.c...<.....D.
   298e0:	0667 085c 0364 0200 029d fee6 fb1c fd7b     g.\.d.........{.
   298f0:	fe32 fad2 faa1 ff05 fe47 f8a9 f7e4 f990     2.......G.......
   29900:	f7c7 f445 f630 f9ed fac3 fa8a fc0c fcf8     ..E.0...........
   29910:	fc5f fb91 f9ed f7e6 f824 f9c2 f932 f91d     _.......$...2...
   29920:	fbc8 fdba fc47 fb58 fcd9 fd61 fc8f fd68     ....G.X...a...h.
   29930:	fe97 fdee ff9f 0430 0536 01a6 0230 070b     ......0.6...0...
   29940:	08fa 05d8 060a 0982 0b1f 0917 08c3 0b3e     ..............>.
   29950:	0a4f 066b 05dd 0bb0 0dc4 07d2 020d 04e6     O.k.............
   29960:	09eb 061e ff0e ff84 040a 0167 fb46 fb63     ..........g.F.c.
   29970:	fed0 ffa4 ff03 feca fc6d f992 f94a f7a4     ........m...J...
   29980:	f210 f136 f78a fd15 fc80 fb5f fcec feb6     ..6......._.....
   29990:	fd89 f9c8 f613 f5b6 f831 fa9d fa95 f9f7     ........1.......
   299a0:	fbb5 fda5 fc94 fa55 fa1f fbfb fdbc fe65     ......U.......e.
   299b0:	feb9 fe7f fff2 0314 043a 02e5 039d 06b5     ........:.......
   299c0:	087e 08c1 0921 0734 07b1 0aab 09a9 0685     ~...!.4.........
   299d0:	0701 0a59 08e2 0894 0a27 099f 06a3 069d     ..Y.....'.......
   299e0:	085d 053b fecc fd7e 026f 043a fe08 f88a     ].;...~.o.:.....
   299f0:	fba7 01e0 012b fba3 f924 fa62 fa22 f712     ....+...$.b."...
   29a00:	f41a f32c f5e1 f9af fbf7 fb8e fafc fc8b     ..,.............
   29a10:	fe11 fc31 f82a f7ea fa78 faf6 f89b f871     ..1.*...x.....q.
   29a20:	fb1c fd3d fd97 fd0f fcef fd81 fed8 fee0     ..=.............
   29a30:	fdb8 fe10 0029 01ac 0266 03d8 0574 05e3     ....)...f...t...
   29a40:	064a 0735 0814 08ce 0ad4 0a3c 07be 0758     J.5.......<...X.
   29a50:	0c3c 0d09 07a1 0462 0a05 0f3d 0b2c 03b5     <.....b...=.,...
   29a60:	0198 04b9 05fd 023b fda0 fd2e ffc8 ff28     ......;.......(.
   29a70:	fd0f fbf9 fb48 fbb5 fca2 fbaf f72c f641     ....H.......,.A.
   29a80:	f8be f9af f7d4 f7d4 fbac fe0e fd7f fb2e     ................
   29a90:	fada fbb4 fc87 fa74 f704 f651 f963 fb6a     ......t...Q.c.j.
   29aa0:	fa30 f93e fb19 fcac fc0d fc04 fcc6 fd6f     0.>...........o.
   29ab0:	fd81 ff35 006b 0132 02c6 0420 0412 0502     ..5.k.2... .....
   29ac0:	07e4 0a15 082d 06ec 0944 0c54 0b1e 0746     ....-...D.T...F.
   29ad0:	07b9 0997 0b01 0852 064f 0752 0cb7 0b68     ......R.O.R...h.
   29ae0:	0332 fe70 0337 0446 007e 0045 0307 0060     2.p.7.F.~.E...`.
   29af0:	fc5b fc2a fb40 fa4e fc99 fdb3 f978 f733     [.*.@.N.....x.3.
   29b00:	f90a f7f3 f486 f47a f7fa f9f3 fbc8 fcac     ......z.........
   29b10:	fbae fafb fcbb fc5c f870 f619 f7dc f9d0     ......\.p.......
   29b20:	fb25 fc37 fcac fd41 fed1 fe97 fcde fd9d     %.7...A.........
   29b30:	ff2a fee5 ff69 01d9 01d0 0162 0482 0678     *...i.....b...x.
   29b40:	0562 05fc 08fd 08e8 07ce 09a6 0a23 08b7     b...........#...
   29b50:	088e 0b1b 0afb 088f 0753 0994 0ca1 0aa1     ........S.......
   29b60:	03f8 0065 0468 06f3 01ab fd2d ff48 012e     ..e.h.....-.H...
   29b70:	fcf9 fa41 fab8 fad7 fc50 ff34 fd9a f81f     ..A.....P.4.....
   29b80:	f78e f86f f5fc f45d f6ce f837 fa8b fe63     ..o...]...7...c.
   29b90:	fe04 fac8 fc5f fe33 f8bc f4a2 f874 fbb6     ...._.3.....t...
   29ba0:	f991 f8bf fbf9 fe65 fe43 fd12 fc23 fd54     ......e.C...#.T.
   29bb0:	ffce ffb9 fe67 ffed 0266 026b 02be 05c6     ....g...f.k.....
   29bc0:	070f 0675 06ed 0846 084b 09d9 0aff 088d     ..u...F.K.......
   29bd0:	0576 0797 0a9f 0922 05a5 0585 08b2 093f     v.....".......?.
   29be0:	0676 0372 044b 0276 00b5 0028 0081 fbf2     v.r.K.v...(.....
   29bf0:	fb9b ff0b ff79 fc4b fd91 fed3 fadf f78c     ....y.K.........
   29c00:	f83c f7de f553 f548 f796 fa67 fb76 fabe     <...S.H...g.v...
   29c10:	f9fb fb2a fb04 f888 f6e6 f7d9 f921 f948     ..*.........!.H.
   29c20:	f92b f97e fb0e fcd4 fca5 fb5f fbeb febc     +.~......._.....
   29c30:	ffc3 fee5 ff90 01c0 0220 01f4 03de 04ed     ........ .......
   29c40:	04e7 06b2 08c4 0769 080c 0ad2 0a5c 074b     ......i.....\.K.
   29c50:	0990 0b37 0719 0496 0a84 0de3 073c 0103     ..7.........<...
   29c60:	055c 0c82 088a ffdf ff39 04e3 0351 fc6b     \.......9...Q.k.
   29c70:	fa3d fdcf 0047 ff8a fcf4 fac6 fa50 fb1b     =...G.......P...
   29c80:	f9c5 f72e f725 fb2b fe5d fcf4 fb34 fd31     ....%.+.]...4.1.
   29c90:	ffab fd0a f8dd f7f5 f99c fa78 f9da f9dd     ..........x.....
   29ca0:	fbe4 fe90 fede fcf9 fc34 fda0 fe5e fd66     ........4...^.f.
   29cb0:	fc9a ff3c 0277 0330 022f 038e 05d1 065c     ..<.w.0./.....\.
   29cc0:	0550 05a1 07d8 0908 0807 067f 08df 0a07     P...............
   29cd0:	07c1 05f4 088d 09ea 068a 04a7 0654 089f     ............T...
   29ce0:	0616 011e fe51 015c 0211 fce2 f922 fcfa     ....Q.\....."...
   29cf0:	00a3 fec3 fd11 fcf8 fb5f f902 f7e8 f637     ........_.....7.
   29d00:	f4cb f6ad f9a2 f9d1 fa8b fd18 fdef faaf     ................
   29d10:	f850 f84a f84a f772 f7a6 f8a8 f9c1 fbf5     P.J.J.r.........
   29d20:	fe11 fdd4 fbc1 fbda fdad fec2 fe60 fe6b     ............`.k.
   29d30:	ffb9 0246 03ae 0219 01a3 0551 07a6 059b     ..F.......Q.....
   29d40:	0529 0842 0870 07c1 090e 0747 035e 0632     ).B.p.....G.^.2.
   29d50:	0b25 07eb 02cc 0575 09dd 079e 02e3 021e     %.....u.........
   29d60:	03e4 0343 ff6d fc70 fdb4 ffe1 0023 fde9     ..C.m.p.....#...
   29d70:	fd81 fe19 fde4 fa99 f8a7 f931 fa1f f9d3     ..........1.....
   29d80:	fa7f fc0a fd38 fd10 fb96 faed fafe f9f1     ....8...........
   29d90:	f820 f8a3 fa98 fc56 fce4 fd6c fd13 fdc4      .....V...l.....
   29da0:	fe6e fd9b fd6f ff56 008d 0025 013e 034c     n...o.V...%.>.L.
   29db0:	03d9 03ed 0546 0550 05e9 07c6 090a 0664     ....F.P.......d.
   29dc0:	055d 07ec 0984 0741 0540 064c 07af 0752     ].....A.@.L...R.
   29dd0:	05dd 0632 0677 05a0 038f 037d 0322 0014     ..2.w.....}."...
   29de0:	fc9b fe09 0013 fec7 fd39 fefc 0007 fe13     ........9.......
   29df0:	fb23 f9f7 fa97 fa76 f849 f84f fc90 ff09     #.....v.I.O.....
   29e00:	fbfc faf5 fdf2 fd1f f821 f7b7 fa87 fa0a     ........!.......
   29e10:	f830 f9ce fc9d fd25 fc32 fc52 fdd6 fe91     0.....%.2.R.....
   29e20:	fe83 ff16 0044 00dd 016b 0241 0310 03ea     ....D...k.A.....
   29e30:	0479 05b8 06c3 06c4 068f 07cb 0819 0642     y.............B.
   29e40:	0630 06f0 0682 0548 05cc 0581 04b1 04f9     0.....H.........
   29e50:	05c2 0467 0202 016b 01b9 ffe4 fd63 fd3b     ..g...k.....c.;.
   29e60:	fe7f fe12 fd1b fd43 fdcc fd4a fbe5 fab6     ......C...J.....
   29e70:	fa93 fb6f fb3c fa54 fb95 fd59 fc6a fa14     ..o.<.T...Y.j...
   29e80:	f9cd fafe faee f8a9 f841 fb59 fccd fabe     ........A.Y.....
   29e90:	fa2a fc83 fdd2 fcd7 fbfd fd14 fef6 ff8b     *...............
   29ea0:	ff24 006f 024b 02e6 02da 03aa 041d 04c9     $.o.K...........
   29eb0:	056d 05cd 06b8 0707 05ce 05e6 0720 05f0     m........... ...
   29ec0:	0520 052d 0491 0489 0567 048e 0322 02a8      .-.....g..."...
   29ed0:	02e6 02a6 006e fe6f fee5 ff34 fe48 fdf7     ....n.o...4.H...
   29ee0:	fed1 ffa7 fe8b fd13 fce7 fc9f fb02 fb9c     ................
   29ef0:	fc51 fc3a fcd7 fe03 fd45 fc22 fbbd fb0a     Q.:.....E.".....
   29f00:	fa1e fa02 faa8 fab6 fafd fb87 fbab fc41     ..............A.
   29f10:	fd51 fd0a fccc fe53 ff68 ffe7 0090 016d     Q.....S.h.....m.
   29f20:	01cf 02a7 033e 03e5 045f 04e4 05c8 071b     ....>..._.......
   29f30:	06c4 062a 06ef 0730 0559 04de 0520 0532     ..*...0.Y... .2.
   29f40:	0459 045b 0485 04b5 041b 03b4 0320 0242     Y.[......... .B.
   29f50:	00ae ff56 ff2e ff31 feb7 fdf9 fdc4 fe82     ..V...1.........
   29f60:	fe8b fcb4 fc3c fd2f fcb0 fb50 fc30 fc9d     ....<./...P.0...
   29f70:	fc14 fbaa fbcf fb9b fb83 fafa fabc fb0a     ................
   29f80:	fafa fb11 fc0a fbe5 fb94 fcb4 fdc1 fd18     ................
   29f90:	fdc5 ff6a ffbb fff0 0116 0160 0170 021d     ..j.......`.p...
   29fa0:	0270 031f 03f6 0424 04df 05bb 0634 0565     p.....$.....4.e.
   29fb0:	0508 057b 04f0 045a 0492 03e7 03b2 04b3     ..{...Z.........
   29fc0:	03a9 02dc 0448 03b1 0109 0157 0237 000f     ....H.....W.7...
   29fd0:	fe2f fef2 ff59 fe62 fe58 febd fe45 fded     /...Y.b.X...E...
   29fe0:	fdf1 fd37 fc64 fc78 fc79 fb89 fb93 fc23     ..7.d.x.y.....#.
   29ff0:	fbf3 fbb2 fbc4 fc23 fba2 fbaa fc0c fbf1     ......#.........
   2a000:	fb92 fbf6 fcb5 fd17 fd6e fe1a fea6 feb5     ........n.......
   2a010:	ff99 004a 000e 0011 013e 01a0 01c0 02ff     ..J.....>.......
   2a020:	0428 03d7 041b 0561 058e 04f4 0511 0471     (.....a.......q.
   2a030:	0498 05b1 0557 040d 0479 052a 03cb 0375     ....W...y.*...u.
   2a040:	0425 03f7 030d 02dd 01dc 0240 01b7 ff9c     %.........@.....
   2a050:	ff09 0031 ffbf feba fe83 fe74 fefc fdfd     ..1.......t.....
   2a060:	fcf6 fd20 fccb fb92 fc01 fc96 fc8d fc3b     .. ...........;.
   2a070:	fca8 fcab fd0d fc5d fbc7 fbba fc09 fb4b     ......].......K.
   2a080:	fba4 fcc7 fd0d fd49 fe04 fe72 feaa ff12     ......I...r.....
   2a090:	fea5 ff41 005a 0026 0050 01fb 0278 023a     ..A.Z.&.P...x.:.
   2a0a0:	02dc 0371 039e 042c 03d2 03eb 04d7 0402     ..q...,.........
   2a0b0:	03d8 04b6 0424 035d 03ed 0390 0334 0348     ....$.].....4.H.
   2a0c0:	0251 01d9 028f 01af 007a 001e 005d ffb5     Q.......z...]...
   2a0d0:	ff8e ff24 febe fec8 feaa fdf0 fdee fe1d     ..$.............
   2a0e0:	fda4 fd69 fdad fd66 fc73 fc2d fcbf fcb3     ..i...f.s.-.....
   2a0f0:	fbe0 fbf3 fc8c fcbd fc6f fc66 fc6b fc90     ........o.f.k...
   2a100:	fcea fcec fcef fdf5 fe79 fe7e ff53 0014     ........y.~.S...
   2a110:	000c 0047 0116 013e 0100 0193 028f 02a2     ..G...>.........
   2a120:	0245 0351 03dc 03a1 034f 0399 03f0 03af     E.Q.....O.......
   2a130:	0374 02e7 037e 0395 0271 0209 02ca 01e7     t...~...q.......
   2a140:	0185 02c5 0218 00e1 0178 012a 0056 ffe5     ........x.*.V...
   2a150:	ff6b ff19 ffb7 ff24 fe76 ff1b feef fdd7     k.....$.v.......
   2a160:	fe1f fe07 fcbd fcdb fd62 fcb8 fc7c fcf5     ........b...|...
   2a170:	fc86 fc94 fd0d fc72 fc66 fd79 fd6b fceb     ......r.f.y.k...
   2a180:	fdd0 fe48 fe43 fe6f fe7c fef3 ff2b ff1a     ..H.C.o.|...+...
   2a190:	ffc0 004e 0035 008e 0159 0188 0180 01bb     ..N.5...Y.......
   2a1a0:	020c 0240 035a 030f 021e 033a 044a 02a8     ..@.Z.....:.J...
   2a1b0:	0264 039a 026e 01b8 028c 0288 017e 01d8     d...n.......~...
   2a1c0:	01d4 01f0 01d5 0112 004a 0124 0137 0035     ........J.$.7.5.
   2a1d0:	ff2b ffbc ffe8 ff1f fec3 ff39 fefb fe75     +.........9...u.
   2a1e0:	fe54 fe97 fe3e fe20 fdd5 fe44 fe40 fddf     T...>. ...D.@...
   2a1f0:	fd2b fd88 fdc7 fccd fcef fdb6 fdbd fd87     +...............
   2a200:	fe45 fe8d fed0 ff47 fef8 fea7 ff59 ff96     E.....G.....Y...
   2a210:	ff8c 001e 0029 0042 0102 00f0 00e0 012e     ....).B.........
   2a220:	0160 0119 01e2 0217 020d 024b 0278 0257     `.........K.x.W.
   2a230:	0259 0239 019a 01c7 01e5 01be 01b5 0206     Y.9.............
   2a240:	01ab 01ff 01a6 0185 0182 01df 0110 00ed     ................
   2a250:	00f4 00be 0069 ffe7 ffad 0026 ff73 fed4     ....i.....&.s...
   2a260:	ff7b ffa6 feb2 fef0 ff5c fe95 fde1 fe13     {.......\.......
   2a270:	fe81 fe19 fd8c fdcf fe86 fe61 fe2c fea9     ..........a.,...
   2a280:	fedc fea4 fef0 ff53 ff38 ff34 ffc4 ffea     ......S.8.4.....
   2a290:	ffb5 ffb0 ffef 001f ffec ffd4 003a 0073     ............:.s.
   2a2a0:	0011 008f 0133 010f 008a 010a 0176 010e     ....3.......v...
   2a2b0:	00ee 0161 0163 0144 0198 013d 0103 01e5     ..a.c.D...=.....
   2a2c0:	0210 0129 0149 0233 01b5 013b 013c 0167     ..).I.3...;.<.g.
   2a2d0:	00b1 0055 0030 006f ffdd ff8c ffb5 ff96     ..U.0.o.........
   2a2e0:	fef0 fef2 ff3f feff fefe ff17 fec9 fedc     ....?...........
   2a2f0:	ff01 fed3 fe88 fe7a fea9 fed3 feca feb9     ......z.........
   2a300:	fef8 ff04 fef8 feff ff2e ff5d ff73 ff79     ..........].s.y.
   2a310:	ff95 ff9f ffd0 0002 002a 0007 ffc8 ffe7     ........*.......
   2a320:	004c 0030 0004 00bb 00ff 00bd 00eb 00e6     L.0.............
   2a330:	006c 0084 00af 00b5 0086 008e 00c6 0104     l...............
   2a340:	00ea 00b3 00ac 007b 00a2 00af 00a1 0074     ......{.......t.
   2a350:	00eb 0103 0050 0045 00da 003c ff5e 0034     ....P.E...<.^.4.
   2a360:	0068 ffa9 ffd8 0011 ff9a ff3e ff36 ff1b     h.........>.6...
   2a370:	ff16 fef4 fef0 ff20 feb4 fed6 fefb fe96     ...... .........
   2a380:	feae ff68 ff10 fed8 ff95 ffb7 ff50 ffa7     ..h.........P...
   2a390:	fff0 ff8d ff97 000b 000e ffcd ffdc 0037     ..............7.
   2a3a0:	fff1 ffe1 002a 0026 ffd1 000a 000c ffbf     ....*.&.........
   2a3b0:	fff4 ffea ffd3 0027 001a ffd7 002d 0061     ......'.....-.a.
   2a3c0:	0003 0044 006c 0023 0055 0083 004b 001f     ..D.l.#.U...K...
   2a3d0:	00bf 00b6 0034 001a 007b 0036 ffe3 0015     ....4...{.6.....
   2a3e0:	0011 ffc4 ffe7 0013 ffb4 ff7d ffad ffcb     ..........}.....
   2a3f0:	ff88 ff8c ffcb ffa3 ff60 ff7e ff99 ff3d     ........`.~...=.
   2a400:	ff60 ffc3 ffbe ff89 ffdf ffdb ffaf ffba     `...............
   2a410:	0009 ffd5 ffe2 0028 002f 0002 004a 005d     ......(./...J.].
   2a420:	ffe5 0021 005d fff7 ffbe 0027 0039 fff0     ..!.].....'.9...
   2a430:	0002 0001 0016 001a 000f 0024 ffda ffe7     ..........$.....
   2a440:	0024 0022 ffad ffd4 0036 0046 0049 001b     $.".....6.F.I...
   2a450:	000d 001a 0015 0029 0049 0023 0007 0054     ......).I.#...T.
   2a460:	007a 002d 0037 0040 0018 ffce fff1 ffe8     z.-.7.@.........
   2a470:	ffad ffb8 fff6 000c ffbb ffe5 fff1 ffa5     ................
   2a480:	ff61 ffde ffc9 ff87 ffbd 0010 ffda fff5     a...............
   2a490:	0038 0011 0028 0010 fff1 000f 0049 ffe5     8...(.......I...
   2a4a0:	000d 0077 0042 0004 0042 0015 ffe9 0035     ..w.B...B.....5.
   2a4b0:	0074 0036 005b 0083 0075 0082 0076 003f     t.6.[...u...v.?.
   2a4c0:	0022 0053 005b 0057 005d 005f 004a 0022     ".S.[.W.]._.J.".
   2a4d0:	0038 0031 0005 0003 000c 0009 fff9 0017     8.1.............
   2a4e0:	ffe6 0008 0025 ffd8 ffcd ffc5 ffd8 ffd9     ....%...........
   2a4f0:	ffea fff2 002d 0034 0012 0039 002c 0013     ....-.4...9.,...
   2a500:	0034 005a 0023 003b 0045 0038 0013 fffb     4.Z.#.;.E.8.....
   2a510:	ffec 0012 0005 0006 000b ffeb ffd0 ffcc     ................
   2a520:	ffff ffe3 ffe3 0014 0026 ffeb fff4 002c     ........&.....,.
   2a530:	0022 000b 004c 0062 005c 0051 0019 001c     "...L.b.\.Q.....
   2a540:	003f 0054 0019 0041 0041 0018 0017 0025     ?.T...A.A.....%.
   2a550:	ffef ffcd fff4 ffd7 ffb0 ffcb ffe8 ffb1     ................
   2a560:	ffa9 ffc1 ffba ffbe ffe3 ffe5 ffe9 fff5     ................
   2a570:	0005 0013 0014 0018 001d 000d ffe2 ffd0     ................
   2a580:	ffd2 ffcf ffdb ffb7 ffc0 ffca ffbf ff9c     ................
   2a590:	ffb7 ffcc ffb8 ffcb ffd6 ffcc ffd7 ffe6     ................
   2a5a0:	ffec ffd5 ffd5 ffee fff3 fff1 0022 0036     ............".6.
   2a5b0:	003a 002c 004f 0090 0061 0026 003b 0078     :.,.O...a.&.;.x.
   2a5c0:	0034 001f 004c 004b 0030 0025 000b fff8     4...L.K.0.%.....
   2a5d0:	0011 0021 0014 0034 0033 fffe fffc ffff     ..!...4.3.......
   2a5e0:	000e fff8 0004 0011 ffde ffe0 fff4 0003     ................
   2a5f0:	fffe ffe0 fff1 ffdc ffd1 ffee fff5 001a     ................
   2a600:	000e 0000 fff1 ffe1 ffc9 ffd2 ffed ffe0     ................
   2a610:	ffce ffd0 fff9 ffe8 ffac ffb2 ffd9 ffd2     ................
   2a620:	ffd3 ffe7 ffd1 ffb5 ffcd ffb7 ff95 ffb8     ................
   2a630:	fff3 ffde ffac ffd4 fff7 fff6 0004 0006     ................
   2a640:	ffef fff3 0029 001c ffde fff7 0019 fffe     ....)...........
   2a650:	ffee fff3 ffe5 ffe1 fffb fff6 ffd3 ffd6     ................
   2a660:	ffee ffef 0002 fff4 0005 fff3 ffd0 fff2     ................
   2a670:	0007 0010 0020 003a 003a 002d 0011 fff0     .... .:.:.-.....
   2a680:	fff1 ffdb ffc1 ffc5 ffcc fff2 fff0 ffce     ................
   2a690:	ffc9 ffec fff4 ffc5 ffcd ffee fff3 ffda     ................
   2a6a0:	ffd4 ffe9 ffde fff1 001c 000c ffeb 0008     ................
   2a6b0:	001e 0013 fffa 000c 0038 0038 0006 0003     ........8.8.....
   2a6c0:	000d fffc 000a 0002 002a 0028 0017 fff7     ........*.(.....
   2a6d0:	ffed 0011 0017 0008 000b 0007 0004 000a     ................
   2a6e0:	002d 0017 ffea 0002 0015 0021 0014 001d     -.........!.....
   2a6f0:	0027 0014 ffee 0000 000f 000c 0019 0009     '...............
   2a700:	fff1 ffe6 ffef ffe3 ffcf ffe4 ffcd ffce     ................
   2a710:	ffe8 ffda ffcc ffdb 0012 0006 fffc ffdd     ................
   2a720:	ffce fffc fff3 fffb ffe9 ffbb ffc1 ffcf     ................
   2a730:	fffe 0000 fff6 ffe5 ffd5 ffe3 0000 ffff     ................
   2a740:	fffb fff6 ffe3 ffd5 ffe8 fffc 0004 0023     ..............#.
   2a750:	002b 0055 0048 002b 002c 0039 003a 003f     +.U.H.+.,.9.:.?.
   2a760:	008c 0083 0084 006d 0079 00a7 008c 0076     ......m.y.....v.
   2a770:	0066 004c 003d 0053 0065 0069 0058 0064     f.L.=.S.e.i.X.d.
   2a780:	0054 0034 0037 003f 0025 000b 0022 fffb     T.4.7.?.%..."...
   2a790:	ffd2 ffe4 fff4 0005 ffeb ffde ffd5 ffdf     ................
   2a7a0:	ffe5 ffd3 ffcd ffd9 ffeb ffd6 ffb3 ffbe     ................
   2a7b0:	ffb7 ffab ffb4 ffcf ffde ffea ffd8 ffc1     ................
   2a7c0:	ffdc ffff 0017 0022 002f 0037 0034 0054     ......"./.7.4.T.
   2a7d0:	0049 0024 0031 0042 001f 000f 0037 003c     I.$.1.B.....7.<.
   2a7e0:	0029 0023 000d 0017 002a 0026 000f 0011     ).#.....*.&.....
   2a7f0:	0024 002e 001d 0007 001a ffed ffdb fffe     $...............
   2a800:	fff2 ffd0 ffcb fff7 fff5 fff0 fff1 ffe0     ................
   2a810:	ffca ffb5 ffa2 ffc1 ffc3 ffc5 ffd4 ffd7     ................
   2a820:	ffb9 ffa2 ffc1 ffb0 ffa7 ffbf ffe5 fffe     ................
   2a830:	0010 ffed fff1 000b ffed ffef fffd 0004     ................
   2a840:	fffa ffe7 000c 003d 0052 003e 0036 0052     ......=.R.>.6.R.
   2a850:	0034 0047 006f 006f 005d 005b 005a 0053     4.G.o.o.].[.Z.S.
   2a860:	0039 0043 002d 003b 004a 0016 0011 002e     9.C.-.;.J.......
   2a870:	0032 001c 0011 ffe9 ffc7 ffe2 ffe4 ffeb     2...............
   2a880:	ffeb fff0 ffe4 ffea ffe8 ffe9 fff3 ffe7     ................
   2a890:	ffd7 ffc7 0003 0017 000d ffe1 ffe1 ffe4     ................
   2a8a0:	ffe2 ffe6 ffc3 ffc2 ffb1 ffd0 ffe1 ffc7     ................
   2a8b0:	ffa6 ffbe ffd4 ffcd ffdf ffd4 ffcd ffe9     ................
   2a8c0:	fff8 ffd5 ffd6 ffeb 0004 fff4 0001 0012     ................
   2a8d0:	000e 0001 0015 001d 0022 0020 fffc fff8     ........". .....
   2a8e0:	000d 0007 0011 0016 0002 000b 0009 fffa     ................
   2a8f0:	ffd8 ffda ffe3 ffd1 ffd5 ffc8 ffc6 ffdb     ................
   2a900:	ffdc ffd4 ffda ffd4 ffc8 ffc8 ffd5 ffd6     ................
   2a910:	ffcf ffcb ffca ffbe ffb4 ffb2 ffae ffb4     ................
   2a920:	ffa1 ffb3 ffd3 ffcd ffd0 ffb6 ffbe ffd3     ................
   2a930:	ffd1 ffd6 ffd1 ffd0 ffd9 0001 fff6 ffd5     ................
   2a940:	ffe8 0012 003a 0012 fff9 000e 002a 0040     ....:.......*.@.
   2a950:	0039 0031 001f 003a 003d 002b 002c 0021     9.1...:.=.+.,.!.
   2a960:	0013 0009 001d 0019 0005 000c 0018 0009     ................
   2a970:	0003 0015 0028 fffc fffa 000e fff4 ffe8     ....(...........
   2a980:	ffc8 ffc5 ffcf ffe2 ffe1 ffdb ffda ffd0     ................
   2a990:	0001 fff8 ffd7 fff0 ffec ffe9 0003 0015     ................
   2a9a0:	0005 fffc 0018 001b 0007 ffe7 ffd7 fff5     ................
   2a9b0:	0001 0007 fffe 001f 0031 0006 fffe 0017     ........1.......
   2a9c0:	003e 002f 001e 001f 003a 004b 0033 0029     >./.....:.K.3.).
   2a9d0:	0038 0051 003b 0045 0035 002c 003d 003c     8.Q.;.E.5.,.=.<.
   2a9e0:	0046 0033 0022 0031 0030 0030 0031 002b     F.3.".1.0.0.1.+.
   2a9f0:	003d 002d 0027 0027 0015 0018 001f 0019     =.-.'.'.........
   2aa00:	000d 0004 fffb 0001 fff8 fff6 ffea ffec     ................
   2aa10:	ffdc ffd5 ffd0 ffd1 ffdf ffc8 ffc6 ffe2     ................
   2aa20:	ffcc ffe5 fffc ffee ffef fff9 000e 0007     ................
   2aa30:	0018 ffff ffef 0002 0024 0032 0040 0045     ........$.2.@.E.
   2aa40:	0034 003e 0069 006a 0068 0052 0058 0044     4.>.i.j.h.R.X.D.
   2aa50:	004d 005b 0053 006b 006c 005e 0056 0058     M.[.S.k.l.^.V.X.
   2aa60:	0059 0052 0062 004d 004b 003b 0029 001c     Y.R.b.M.K.;.)...
   2aa70:	002b 0043 002c 0015 fffe ffe7 ffeb ffe2     +.C.,...........
   2aa80:	ffe1 ffe5 ffd6 ffc9 ffc8 ffcc ffb7 ffc9     ................
   2aa90:	ffdf ffe0 ffcd ffb5 ffbf ffd8 ffb5 ffb2     ................
   2aaa0:	ffbd ffba ffba ffda ffeb ffe6 ffef ffe1     ................
   2aab0:	fff2 fffc fff0 000e 002b 0002 ffe7 fff9     ........+.......
   2aac0:	001c 002f 001d 000e fffd 0007 000e 000a     ../.............
   2aad0:	0020 002c 0027 0022 002b 001c 001c 0027      .,.'.".+.....'.
   2aae0:	0011 000d 000e fffb 0009 001d 0009 fff2     ................
   2aaf0:	0006 0015 000b 0004 ffe9 fffa ffed ffde     ................
   2ab00:	ffef fff4 ffe6 ffd2 ffad ff91 ffb3 ffcd     ................
   2ab10:	ffb7 ffa5 ff9e ffb2 ffb6 ffbd ffc6 ffc3     ................
   2ab20:	ffd3 ffdc ffe2 ffda ffdb ffe0 fffa fffd     ................
   2ab30:	ffd2 ffc7 fff9 0009 fff6 ffe0 ffd4 0001     ................
   2ab40:	000b ffef fff1 0004 ffe9 ffc1 ffd4 fff2     ................
   2ab50:	ffed ffe1 ffe4 ffe4 fff2 fff8 ffee fff1     ................
   2ab60:	0001 fff5 000e 0024 0001 ffe5 ffd3 fffb     ......$.........
   2ab70:	000c ffe3 ffc6 ffc1 ffcc ffdd ffd2 ffd5     ................
   2ab80:	ffdd ffd0 ffd7 ffe1 ffea ffea ffd6 ffc9     ................
   2ab90:	ffd9 ffde fff3 0007 0004 fffd ffd3 ffc0     ................
   2aba0:	ffda 000e 0012 0007 0008 fffe ffe3 ffed     ................
   2abb0:	fff1 ffef ffe7 ffdd ffe4 ffed fffd 0002     ................
   2abc0:	fff9 fff9 fffb fff3 0005 0001 fff0 0014     ................
   2abd0:	0014 000d 0005 000f 001d 0008 0017 0022     ..............".
   2abe0:	001e 000a 000b fff8 fffb 001b 0026 001c     ............&...
   2abf0:	0025 0015 ffe7 fff6 0015 ffed ffef 000f     %...............
   2ac00:	fff8 ffde ffd3 fff9 0008 fffd 001e 0011     ................
   2ac10:	001e ffff fffa 0006 001e 001b fffa 0003     ................
   2ac20:	ffe6 ffec fffb 000e 000d 0004 0008 0014     ................
   2ac30:	000e 001a 0011 0030 005e 0071 0059 002a     ......0.^.q.Y.*.
   2ac40:	0031 003e 0057 006a 0067 0072 004e 0034     1.>.W.j.g.r.N.4.
   2ac50:	0042 0059 0068 0044 0039 0042 003a 003e     B.Y.h.D.9.B.:.>.
   2ac60:	0038 0033 002e 002e 0032 0014 0001 fff5     8.3.....2.......
   2ac70:	0009 0007 ffda ffe9 0007 fff9 ffe0 ffe3     ................
   2ac80:	ffe7 0000 0015 fff6 ffbc ffa5 ffce fff4     ................
   2ac90:	ffca ffb9 ffba ffd1 ffd8 ffe6 ffdd ffc3     ................
   2aca0:	ffcf ffc9 ffe0 fff5 0018 0014 000a 0002     ................
   2acb0:	fffb fff6 001b 0038 0014 0009 0018 0029     ......8.......).
   2acc0:	0025 0021 0023 003b 0055 0044 0020 002f     %.!.#.;.U.D. ./.
   2acd0:	002c 0037 0046 0034 002f 002f 003f 0024     ,.7.F.4././.?.$.
   2ace0:	0027 0043 002f 0010 0007 0005 fff2 0002     '.C./...........
   2acf0:	0009 fff8 0007 0019 0004 ffdd ffe8 ffe5     ................
   2ad00:	ffe1 ffe5 ffd6 ffc9 ffcb ffde ffd4 ffb8     ................
   2ad10:	ffba ffbb ffba ffb4 ffbb ffbe ffba ffbe     ................
   2ad20:	ffb6 ffc7 ffeb 0001 0009 0007 0004 0018     ................
   2ad30:	001a 000e 000b 0003 0014 0027 0019 0013     ..........'.....
   2ad40:	0013 0026 002e 003b 0030 001b 0031 0042     ..&...;.0...1.B.
   2ad50:	0053 0041 002b 0024 001f 0029 002d 000c     S.A.+.$...).-...
   2ad60:	0002 0006 fffc 0003 0003 fff9 ffde ffeb     ................
   2ad70:	0000 fff2 fff7 ffe5 ffe4 fffe ffe2 ffc7     ................
   2ad80:	ffc4 ffca ffcd ffe8 ffff ffec ffcd ffcf     ................
   2ad90:	ffe0 ffcf ffbe ffc8 ffd6 ffd4 ffc5 ffb5     ................
   2ada0:	ffd5 ffcf ffbc ffc7 ffba ffb5 ffd2 fff8     ................
   2adb0:	ffff ffff 0015 0010 0016 001c 002c 0035     ............,.5.
   2adc0:	0041 0029 000e 001e 0025 0012 0002 001e     A.).....%.......
   2add0:	0033 000f fff4 0002 0001 ffee ffee fff8     3...............
   2ade0:	ffd6 ffe6 ffea ffde ffd8 ffef ffef ffda     ................
   2adf0:	ffe2 ffeb ffdd ffcb ffd5 ffe7 ffd4 ffb8     ................
   2ae00:	ffca ffb2 ffb1 ffca ffcd ffbc ffc7 ffc7     ................
   2ae10:	ffb5 ffd7 ffdc ffd6 ffd0 ffdc fff9 0020     .............. .
   2ae20:	0021 0008 fff2 0008 001c 0025 002a 001e     !.........%.*...
   2ae30:	000e 0006 002c 0036 0023 0027 0024 0028     ....,.6.#.'.$.(.
   2ae40:	002a 0029 0031 003a 0034 002d 0046 0030     *.).1.:.4.-.F.0.
   2ae50:	002e 002b 0022 000d 0018 0029 001b fffd     ..+.".....).....
   2ae60:	ffed ffed ffe5 0000 fffa 0007 fffe ffd7     ................
   2ae70:	ffeb ffdf ffd9 ffe2 ffda ffcf ffc3 ffb7     ................
   2ae80:	ffb0 ffc5 ffce ffcf ffc7 ffcc ffc7 ffc2     ................
   2ae90:	ffc9 ffdb ffd9 ffc2 ffc0 ffda ffe7 ffe2     ................
   2aea0:	ffdd ffe0 fff4 fff8 fff4 fffc 0008 000a     ................
   2aeb0:	0001 fffb 0009 0019 0025 0021 0020 001a     ........%.!. ...
   2aec0:	002f 0040 0022 fff5 000c 0032 001e 0028     /.@.".....2...(.
   2aed0:	0033 0023 0049 005d 0043 0035 0032 003c     3.#.I.].C.5.2.<.
   2aee0:	003f 0045 003a 0032 0023 001d 0025 001c     ?.E.:.2.#...%...
   2aef0:	0027 0034 0016 ffed ffdb ffe6 000b 0018     '.4.............
   2af00:	000c fffc fffb fff6 fff1 ffed ffe6 0007     ................
   2af10:	0017 0001 fff1 0014 0025 002a 0011 0009     ........%.*.....
   2af20:	0010 002d 004b 0038 002b 0031 0031 0015     ..-.K.8.+.1.1...
   2af30:	001a 0028 0030 0033 002b 003a 0045 002a     ..(.0.3.+.:.E.*.
   2af40:	0021 002b 0027 002b 003c 0039 0011 0009     !.+.'.+.<.9.....
   2af50:	0013 0017 002b 0037 001f 0011 0012 0029     ....+.7.......).
   2af60:	0023 0018 001b 001c 0024 0004 fff2 ffed     #.......$.......
   2af70:	ffda ffd8 ffea ffea ffe0 ffd4 ffdb ffd8     ................
   2af80:	ffe2 fff6 fff5 ffde ffdf ffe3 ffc3 ffce     ................
   2af90:	fff5 ffec ffe7 fff2 ffe2 ffdb ffef 0007     ................
   2afa0:	ffec ffec 0011 0017 001d 0022 000e 000a     ..........".....
   2afb0:	000b 0001 fffd 000f 002d 0048 0033 001f     ........-.H.3...
   2afc0:	0015 0025 003a 002c 0023 002b 0028 001d     ..%.:.,.#.+.(...
   2afd0:	0016 001f 002a 0027 001e 0002 ffe3 0012     ....*.'.........
   2afe0:	0025 0003 000b fffc ffe7 fffb 0002 fff8     %...............
   2aff0:	fff3 fffc fffd fffb ffe7 ffec ffde ffce     ................
   2b000:	ffc3 ff9d ffa8 ffd0 ffbd ffa6 ff93 ff9b     ................
   2b010:	ffb9 ffc1 ffaf ff94 ffaf ffd4 ffe8 ffd3     ................
   2b020:	ffc7 ffcc ffd6 ffdd ffea 000b 0012 0003     ................
   2b030:	0005 0018 0016 002d 0032 002a 0013 0011     ......-.2.*.....
   2b040:	0014 0010 0004 ffe9 fffe 0018 001e 0013     ................
   2b050:	fff5 ffdc ffe7 fff6 0011 fff5 ffd7 ffef     ................
   2b060:	fff0 ffe2 ffcd ffe8 fffd fffa ffd9 ffcf     ................
   2b070:	ffd9 ffe5 ffe5 ffe6 ffec ffda ffd5 ffd2     ................
   2b080:	ffe4 ffee fffe fffa 0000 fffe fffe fffd     ................
   2b090:	ffea ffe6 fff5 fffb 0005 001f 0009 0001     ................
   2b0a0:	0005 000e 0024 0024 0027 0023 001e 001e     ....$.$.'.#.....
   2b0b0:	0025 0026 0023 0011 fff5 ffed fff7 0009     %.&.#...........
   2b0c0:	ffdf ffd0 ffe0 ffdc ffd6 ffd1 ffbc ffc7     ................
   2b0d0:	ffd2 ffae ffb4 ffc2 ffc5 ffc7 ffd6 ffca     ................
   2b0e0:	ffce ffe1 ffe6 ffd8 ffd7 ffd7 ffdf ffee     ................
   2b0f0:	fff6 fff5 fff9 ffda ffde fff8 fff5 ffed     ................
   2b100:	ffe7 ffe0 fff1 fff3 fff8 0008 0003 fffc     ................
   2b110:	0001 000e 0001 0003 0007 0005 001e 003d     ..............=.
   2b120:	003b 0034 0020 002c 0040 003f 0037 0029     ;.4. .,.@.?.7.).
   2b130:	0040 0052 0040 003a 003a 0042 0043 0032     @.R.@.:.:.B.C.2.
   2b140:	002e 0033 0021 001b fffc fff5 0008 0018     ..3.!...........
   2b150:	001a 0015 0017 0015 0018 000a 0018 0023     ..............#.
   2b160:	0023 0016 0004 0007 0019 002c 0016 fff5     #.........,.....
   2b170:	ffe9 fff6 fff3 fff3 0006 0002 0006 fff1     ................
   2b180:	ffe1 ffd7 fff0 000c 0009 ffff ffef fff5     ................
   2b190:	0001 ffff 0003 0004 0010 0032 0037 0033     ..........2.7.3.
   2b1a0:	0036 002c 0028 0033 0038 0041 0043 002e     6.,.(.3.8.A.C...
   2b1b0:	003b 0041 0040 002b 001e 001c 0029 002f     ;.A.@.+.....)./.
   2b1c0:	0010 0008 0007 0005 fff1 000f 001c 0000     ................
   2b1d0:	ffef 0009 001c 0007 0004 0008 001b 0026     ..............&.
   2b1e0:	0003 ffee ffe1 ffe0 fff0 0001 fff5 fff2     ................
   2b1f0:	ffec ffd0 ffd4 ffe4 ffdf ffd8 ffd8 ffe7     ................
   2b200:	ffff 0017 000d 0014 0007 fff4 0015 001d     ................
   2b210:	0015 002a 0033 0027 002a 0037 0030 0038     ..*.3.'.*.7.0.8.
   2b220:	004c 0051 0057 005f 0055 005a 0043 0026     L.Q.W._.U.Z.C.&.
   2b230:	002a 002b 0022 001a 001a fff9 fff1 fffd     *.+."...........
   2b240:	fff0 fffb 0020 0010 fff7 fff1 ffd3 fff3     .... ...........
   2b250:	0012 0019 000c fff9 0009 fffc ffed ffeb     ................
   2b260:	fff1 000a 0003 fffa ffe7 ffe3 fffa fff8     ................
   2b270:	fff8 ffd8 ffd2 ffe6 ffdd ffd3 ffe6 fff0     ................
   2b280:	ffe9 ffc6 ffc1 ffe9 fff0 0002 0013 fff9     ................
   2b290:	ffd9 ffeb fff9 ffe3 ffe9 ffe0 ffd1 ffd7     ................
   2b2a0:	ffcf ffd1 ffe2 ffd8 ffcc ffd0 ffe6 0008     ................
   2b2b0:	000d ffe1 ffb8 ffc8 ffe3 ffe5 ffe6 ffe8     ................
   2b2c0:	fff1 0005 000e fff0 ffe0 fff1 ffe2 ffd1     ................
   2b2d0:	ffd8 ffed fffd fff9 ffeb fff3 fff6 fffc     ................
   2b2e0:	fff3 ffec ffdf ffd9 ffe8 ffe1 ffed ffe9     ................
   2b2f0:	ffce ffc6 ffd7 0001 ffff ffeb ffe0 ffd8     ................
   2b300:	ffe2 fff0 ffe5 ffea fff1 ffdf ffea ffea     ................
   2b310:	fff5 ffef ffee fffd 0006 fff2 ffde ffdc     ................
   2b320:	ffec fffc 000a 0001 fff4 ffe6 ffe9 fffb     ................
   2b330:	fff5 0001 0003 000c 0010 0000 0008 0009     ................
   2b340:	fff9 fff7 fffa fff5 ffde ffde ffe3 ffd1     ................
   2b350:	ffbc ffcd ffcd ffc5 ffc9 ffcc ffde ffe7     ................
   2b360:	fff7 ffef ffeb ffda ffdb ffe2 fff2 000b     ................
   2b370:	fffe fffa fff3 ffe9 ffe7 fff4 ffe1 ffd4     ................
   2b380:	ffd7 0005 0011 ffe7 ffea fff7 0007 0006     ................
   2b390:	fff5 fff7 ffeb ffea ffed fff6 fffd fff8     ................
   2b3a0:	fff7 fff9 fff3 fff9 0002 fffb 0010 0025     ..............%.
   2b3b0:	0025 0010 0018 001b 0021 0035 002e 0033     %.......!.5...3.
   2b3c0:	001b 001b 0038 002c 0016 000e 001c 0017     ....8.,.........
   2b3d0:	0022 001b 000b 0010 001d 0024 0019 000c     ".........$.....
   2b3e0:	0005 fffc 001f 0014 fffc 0010 0032 003b     ............2.;.
   2b3f0:	002f 0028 0027 002e 0023 0039 0040 0034     /.(.'...#.9.@.4.
   2b400:	001f 0017 001a 002e 0042 0017 fff8 0001     ........B.......
   2b410:	000e 0013 0030 0030 001e 0034 003b 002c     ....0.0...4.;.,.
   2b420:	003b 0036 004a 0050 0038 002c 002b 003e     ;.6.J.P.8.,.+.>.
   2b430:	0043 002d 0025 002e 002a 0021 0010 0000     C.-.%...*.!.....
   2b440:	fff2 fffa 0019 0018 000a 0004 0002 0003     ................
   2b450:	ffff 0007 001e 002d 0020 0012 000e 000f     ......-. .......
   2b460:	0011 0011 000f 0019 001a 000a 0003 0007     ................
   2b470:	0020 0033 001e 000d 000e 0011 002b 0029      .3.........+.).
   2b480:	0016 ffff 0008 0000 ffe2 ffdc ffef 000a     ................
   2b490:	0009 0003 ffe8 fff4 000d 0007 fffe fffc     ................
   2b4a0:	0012 0011 0006 fff6 fffe 0014 0008 fffa     ................
   2b4b0:	fff6 fffc ffe5 ffeb fff1 fff9 0016 0003     ................
   2b4c0:	fff8 fff3 ffe9 ffd6 ffe8 ffee ffdb ffee     ................
   2b4d0:	fff8 ffe4 ffbf ffb6 ffde ffe3 ffd6 ffda     ................
   2b4e0:	fff3 0003 fff6 ffd6 ffd6 fff0 fff4 fff2     ................
   2b4f0:	fffe ffe5 ffe6 fffd ffde fff8 ffe2 ffe0     ................
   2b500:	ffd9 0001 ffee ff9a 0076 0014 ff5a ff93     ........v...Z...
   2b510:	00ae 001b ff7f ffc6 0048 ffc3 ff20 ff96     ........H... ...
   2b520:	0029 ffcf ff83 000a 0083 0038 ffd4 000b     ).........8.....
   2b530:	002d ffe9 ffb2 ffcf fff9 ffdd ffac ffde     -...............
   2b540:	001c 0025 fffc 0003 000c fff3 ffe4 ffe7     ..%.............
   2b550:	ffdc ffe3 ffd9 ffb1 ffce fff2 ffed ffd6     ................
   2b560:	ffe2 fffc ffd7 ffe3 ffdf ffe2 ffe2 ffd1     ................
   2b570:	ffe8 0009 0006 ffe9 fff6 fff5 000f 0006     ................
   2b580:	fff8 000c 0005 fff7 fff3 fff8 0004 0004     ................
   2b590:	000a 000b 000a fff6 0009 0015 0013 0018     ................
   2b5a0:	000f 0012 0029 0012 0014 0024 0016 0015     ....).....$.....
   2b5b0:	0010 ffe9 ffe8 0016 0012 0008 ffea ffdf     ................
   2b5c0:	fff9 fffe ffec ffe0 ffea ffea ffd4 ffe5     ................
   2b5d0:	0001 000b ffdb ffd4 ffdb ffd8 ffd7 ffd3     ................
   2b5e0:	ffc6 ffc4 ffd9 ffe7 ffec ffd4 ffe2 fffc     ................
   2b5f0:	fff3 ffef fff2 fff0 ffeb fff3 ffdd ffca     ................
   2b600:	ffe3 0003 fffc fff5 fff5 ffe9 ffea ffe7     ................
   2b610:	fff5 0000 ffec fffc 000c 0008 0002 0009     ................
   2b620:	002c 001d 0011 002d 0029 0019 000f 0012     ,.....-.).......
   2b630:	0001 0027 0026 0013 0012 0013 0023 0015     ..'.&.......#...
   2b640:	0018 fffc 0000 0018 002c 0033 0015 0010     ........,.3.....
   2b650:	0013 0028 0025 001d 0028 001a 0026 001a     ..(.%...(...&...
   2b660:	000f 0039 006e 0046 0035 003c 005b 0047     ..9.n.F.5.<.[.G.
   2b670:	0037 003c 0045 004f 004f 0039 002d 0030     7.<.E.O.O.9.-.0.
   2b680:	0038 0032 0039 0033 003a 0028 0017 0020     8.2.9.3.:.(... .
   2b690:	001d 001c 0028 002f 0025 0019 0029 002a     ....(./.%...).*.
   2b6a0:	0020 0007 000b 0026 0021 0018 0009 fff9      .....&.!.......
   2b6b0:	0008 0007 0005 000a ffef ffe3 ffee ffe4     ................
   2b6c0:	ffd9 ffdf ffdd ffe7 ffd9 ffde ffed ffe9     ................
   2b6d0:	ffe6 ffed 0006 000e 000b 000e ffe1 ffe9     ................
   2b6e0:	fff5 fff0 ffe4 ffeb ffe6 fff1 fff7 fff1     ................
   2b6f0:	fff6 ffee fff1 fff3 ffee ffea 0002 ffec     ................
   2b700:	ffe8 000e 001e 0013 000d 000a 000a 0009     ................
   2b710:	0010 000a 0005 ffed fffa 000f fffe ffec     ................
   2b720:	ffea fff4 fff6 0000 0009 0010 0008 fff9     ................
   2b730:	ffe8 fff9 0001 fff7 000b 0006 0010 0015     ................
   2b740:	0007 ffee ffe8 ffe0 0009 000f ffe1 ffd5     ................
   2b750:	ffde 0004 000a 0005 001a 0015 fffc 0009     ................
   2b760:	0004 0002 fff6 fff1 fffa fff9 fffa ffef     ................
   2b770:	fff1 ffe0 0002 0002 0016 0033 0018 fff2     ..........3.....
   2b780:	000f 0023 001b 0023 0025 001b 0012 0003     ..#...#.%.......
   2b790:	fffe ffff 000a 000a fff6 ffe7 fff4 fff2     ................
   2b7a0:	ffed 0004 ffed fff5 0003 0014 000a fffc     ................
   2b7b0:	fff8 fffd 0008 fff4 000d 001c 0002 ffea     ................
   2b7c0:	fff6 000d 001f 001b 0015 0019 0016 000b     ................
   2b7d0:	fff6 0000 0007 fffb fff7 fffa ffed ffe1     ................
   2b7e0:	fff4 fff3 ffe5 ffdc ffcb ffc7 ffd3 ffd7     ................
   2b7f0:	ffe2 ffd6 ffce ffc9 ffc4 ffcc ffde ffe2     ................
   2b800:	ffd7 ffd0 ffc1 ffca ffd3 ffb7 ffd2 ffed     ................
   2b810:	ffe4 fff8 0001 fff6 fffb 0004 ffe8 ffd4     ................
   2b820:	ffe4 fff3 0000 fff5 ffe7 ffe1 ffe6 ffde     ................
   2b830:	ffdd ffdc ffd5 ffd4 ffe0 fff1 ffe7 ffd1     ................
   2b840:	ffeb 0000 fff3 ffde ffde ffd7 ffce ffdd     ................
   2b850:	ffe0 ffd6 ffe3 fffe 0007 0000 ffd9 ffea     ................
   2b860:	0001 fffc fff9 fff9 0007 ffe5 ffe3 fff4     ................
   2b870:	0002 0001 fff3 ffec fff2 0016 000f fff2     ................
   2b880:	000e 0013 0005 0006 fffd 0001 000e 0002     ................
   2b890:	fff1 ffe0 ffe6 fff5 000e 000e 000a 0003     ................
   2b8a0:	0010 0020 001e 0020 002e 0033 0037 0021     .. ... ...3.7.!.
   2b8b0:	0020 0012 0018 0025 001b 0011 0005 0011      .....%.........
   2b8c0:	0008 fff4 fff0 fff2 ffe3 ffe7 ffd9 ffde     ................
   2b8d0:	ffec fff9 0003 fffb fffb 0005 001d 0015     ................
   2b8e0:	000a 001c 0010 000a 0017 0025 0031 0031     ..........%.1.1.
   2b8f0:	003e 0032 0024 002a 0021 0016 0024 0043     >.2.$.*.!...$.C.
   2b900:	0042 003a 003a 0041 004f 0047 0050 0041     B.:.:.A.O.G.P.A.
   2b910:	003f 003c 003b 0032 0022 0027 002e 0035     ?.<.;.2.".'...5.
   2b920:	0024 0020 0026 001d fffb ffd6 ffd9 fff1     $. .&...........
   2b930:	ffea ffed ffd2 ffd2 ffd0 ffe3 ffe5 ffeb     ................
   2b940:	0000 fff8 ffe7 ffdc ffef fffd 001c 000e     ................
   2b950:	0009 fff5 ffe8 0001 fffe fff3 ffe3 ffd8     ................
   2b960:	ffe9 fffd 0014 0010 0003 fff9 fffd 0008     ................
   2b970:	001d 000f 0008 0012 0017 000b 000a 0017     ................
   2b980:	0017 0009 0009 0010 0014 0013 0011 0024     ..............$.
   2b990:	003a 0038 0024 0021 001e 0019 0008 ffff     :.8.$.!.........
   2b9a0:	0017 0013 0008 fff1 fff1 fffb 0007 000f     ................
   2b9b0:	0012 fffc ffef 0015 001c 0011 0015 0011     ................
   2b9c0:	001a fff6 fffa 0010 0003 0016 0013 0014     ................
   2b9d0:	0006 0008 0011 000d 0008 0011 0014 0015     ................
   2b9e0:	001e 0022 002e 0044 002d 001d 0035 002d     .."...D.-...5.-.
   2b9f0:	0020 0020 0033 0022 001a 001d 0013 0000      . .3.".........
   2ba00:	000b 0011 000e 0004 000a 000b fff2 000b     ................
   2ba10:	0006 fff0 ffd7 ffe7 fff3 ffde ffe3 fff6     ................
   2ba20:	fff6 ffe7 ffea ffdd ffce ffdb ffd2 ffe7     ................
   2ba30:	fff3 ffe3 ffc8 ffce ffc8 ffc5 ffd5 ffd8     ................
   2ba40:	ffc7 ffb3 ffae ffad ffb2 ffae ffac ffc9     ................
   2ba50:	ffd3 ffbd ffc2 ffca ffeb ffe8 ffd4 ffe2     ................
   2ba60:	ffe8 ffdc ffe3 fffe 0003 ffee ffea ffdf     ................
   2ba70:	fff0 fff1 ffe2 fff2 fff2 ffee ffe2 ffde     ................
   2ba80:	ffdd ffcc ffd1 ffe2 ffe5 ffdd ffee 0001     ................
   2ba90:	000c ffff fffd fff6 fffe fffe 0001 000c     ................
   2baa0:	0002 0003 001c 000b fff3 0007 fff2 ffee     ................
   2bab0:	fffa 000f 0015 ffff ffef ffec ffe4 ffe8     ................
   2bac0:	ffe6 fff2 ffe5 ffe4 0008 000e 0007 0006     ................
   2bad0:	000c fffc 0002 0006 000b 0010 0001 0006     ................
   2bae0:	fffd ffe4 fff8 ffed ffe6 ffec ffe5 ffd0     ................
   2baf0:	ffe0 0002 fff3 fff2 ffee fffc ffff fffa     ................
   2bb00:	fffc fff1 ffd6 fff4 fffe ffed ffe8 fffb     ................
   2bb10:	ffec ffe8 ffeb fff9 fff4 ffdd ffe3 fff2     ................
   2bb20:	ffe5 ffdf fff5 ffe4 ffe4 ffe2 fff4 0001     ................
   2bb30:	fff3 fff5 000e 0019 000b 001c 0023 0018     ............#...
   2bb40:	0028 0023 0024 0026 0029 0022 0023 0029     (.#.$.&.).".#.).
   2bb50:	0007 fff6 0008 000e 0000 0011 000f 0004     ................
   2bb60:	000f 0002 0013 0024 002f 000a 0008 0014     ......$./.......
   2bb70:	002a 0022 0026 0026 0024 001b 0008 0019     *.".&.&.$.......
   2bb80:	0035 0028 0011 000e 001f 0012 0021 0034     5.(.........!.4.
   2bb90:	001c 001e 000d 000a 0011 0015 000b fff6     ................
   2bba0:	fff9 ffed fff5 0022 0017 0018 0010 0022     ......".......".
   2bbb0:	002b 0028 0029 0026 0027 0028 003b 0033     +.(.).&.'.(.;.3.
   2bbc0:	0034 002c 0024 001a 0017 0015 001d 0028     4.,.$.........(.
   2bbd0:	0006 0009 0004 0000 fffb 0007 fffc ffea     ................
   2bbe0:	0011 000a fff6 ffef fff7 0021 001b 000c     ..........!.....
   2bbf0:	000c 000b 0018 0028 0030 0022 0017 000d     ......(.0.".....
   2bc00:	000a 0008 0024 0028 000d 0008 000a 0018     ....$.(.........
   2bc10:	001e 000c 0013 000c fffd 0006 0017 ffff     ................
   2bc20:	ffea ffe7 fff7 fffb ffef ffe8 fffb 0007     ................
   2bc30:	0008 0008 fff5 fff9 fff0 ffe6 fff9 fffb     ................
   2bc40:	000e 001a fff7 ffdf fff9 0003 fff8 fff2     ................
   2bc50:	fff3 fff1 fff6 fffc 0007 0018 002a 0029     ............*.).
   2bc60:	000f ffff 0003 001a 0021 0014 fffb 0000     ........!.......
   2bc70:	ffff 001a 0022 0029 0030 0023 0008 0017     ....".).0.#.....
   2bc80:	002a 0025 0014 0015 0003 0016 0008 fffb     *.%.............
   2bc90:	fffe fff0 ffe3 fff8 fffc fffd fff3 0007     ................
   2bca0:	fffd ffde ffd6 ffd5 ffd0 0002 0004 ffdb     ................
   2bcb0:	ffcb ffd6 ffd0 ffce ffd9 ffe3 fff5 fff6     ................
   2bcc0:	fff1 0003 fff3 ffee fff4 ffee ffe3 ffe7     ................
   2bcd0:	0002 ffe8 ffd6 ffd6 ffd7 ffcf ffd0 ffe7     ................
   2bce0:	ffea ffda ffd8 ffec ffe2 ffe6 fff1 ffdc     ................
   2bcf0:	ffe8 ffe7 ffde ffd5 ffe9 ffea ffe5 ffdc     ................
   2bd00:	ffdb ffe1 ffe8 ffed fff3 fff2 ffdf ffe9     ................
   2bd10:	ffeb ffde ffd9 ffc7 ffc2 ffb2 ffc6 ffcc     ................
   2bd20:	ffc3 ffd6 ffd9 ffd6 ffe5 ffea fffd fffc     ................
   2bd30:	ffea fffd fff7 ffe8 fff2 0001 0002 ffd5     ................
   2bd40:	ffc4 ffcf ffdc ffef fff2 ffef ffef 0008     ................
   2bd50:	0002 fffb fff7 ffed fffa 000a 0009 000c     ................
   2bd60:	fff5 ffed ffd9 ffd9 ffdb ffe4 fff8 ffe9     ................
   2bd70:	ffda ffe1 fff3 0001 fff6 fffd fff5 ffdf     ................
   2bd80:	fff7 fff7 0000 fffd fffe fff4 fff9 0008     ................
   2bd90:	0018 0006 0001 0007 0000 0010 0019 0027     ..............'.
   2bda0:	0024 0035 002a 0022 002c 001c 000c 0016     $.5.*.".,.......
   2bdb0:	0021 0021 000b 0008 000f 000b ffea 000b     !.!.............
   2bdc0:	0025 000b fffa fff5 0014 001c 001a 0014     %...............
   2bdd0:	0015 0015 0013 0020 0022 003b 0043 0031     ...... .".;.C.1.
   2bde0:	0045 0047 0054 002b 0016 002b 0040 002c     E.G.T.+...+.@.,.
   2bdf0:	0022 000b 0003 001d 0020 0016 0022 0024     "....... ...".$.
   2be00:	001d 002b 0030 0026 0025 0028 002a 001c     ..+.0.&.%.(.*...
   2be10:	0009 0014 0028 0015 ffeb ffe7 0004 0002     ....(...........
   2be20:	0006 fffa fff1 fff2 fff9 fff5 ffdf ffc9     ................
   2be30:	ffe0 ffec ffd7 ffe3 fff0 ffea 0007 000d     ................
   2be40:	0001 000a 000d 002f 0032 0036 003d 003e     ....../.2.6.=.>.
   2be50:	003a 0034 0035 0010 0022 003a 0030 0013     :.4.5...".:.0...
   2be60:	fff7 fff6 fff7 0008 ffef ffeb 0007 0007     ................
   2be70:	fffd 000d 0017 001f 001e 0027 0024 0035     ..........'.$.5.
   2be80:	003b 002b 0026 0022 0024 001a fffc fff1     ;.+.&.".$.......
   2be90:	0005 000a 0001 0017 0014 fffb fff2 ffe4     ................
   2bea0:	0002 ffff ffe7 ffdf ffea fff5 ffeb fff2     ................
   2beb0:	000b 0011 0017 0017 000e 0023 002c 0017     ..........#.,...
   2bec0:	000b 001d 0015 0007 001e 0039 0035 001c     ..........9.5...
   2bed0:	0007 0004 0020 001c fff6 fffd 0010 000e     .... ...........
   2bee0:	ffff fff8 000a 0004 000d 0016 0013 0011     ................
   2bef0:	0010 0018 0022 002c 0023 0027 001b 0021     ....".,.#.'...!.
   2bf00:	0024 0015 0004 ffdf ffcb ffd3 ffe5 fff4     $...............
   2bf10:	fff4 ffdf ffe3 ffcf ffe0 ffef ffe8 ffea     ................
   2bf20:	ffd7 ffdf ffe4 ffe9 ffec ffef ffee fff6     ................
   2bf30:	0007 fff3 ffed fff1 ffeb ffe6 ffdc fffd     ................
   2bf40:	fff8 ffe8 fff7 ffe4 ffd1 ffd8 ffdb ffcd     ................
   2bf50:	ffc3 ffc2 ffb9 ffc0 ffdb ffe2 ffe1 ffdc     ................
   2bf60:	ffdf ffea fff0 ffe4 ffd0 ffe0 ffe3 ffe5     ................
   2bf70:	ffe8 ffe2 ffea fff3 ffeb ffdf ffcd ffdd     ................
   2bf80:	ffec ffe1 ffdd ffd5 ffe6 ffe5 ffcf ffdc     ................
   2bf90:	fff4 ffe7 ffd7 ffd3 ffc3 ffce ffd0 ffda     ................
   2bfa0:	ffdc ffc1 ffb1 ffbb ffd7 fff0 fff6 ffe2     ................
   2bfb0:	ffe2 fff2 ffeb ffe2 ffe2 ffcd ffbf ffce     ................
   2bfc0:	ffd4 ffe4 fff1 ffea ffe0 ffdd ffed fff6     ................
   2bfd0:	ffea fff8 fff6 fffb 0016 000f fff5 0011     ................
   2bfe0:	0018 0003 0010 000f fffc 0009 0003 fffd     ................
   2bff0:	0009 0019 001a 0018 000d 0002 0003 0001     ................
   2c000:	fffb fffa ffe8 fff3 ffef ffd1 ffd3 ffde     ................
   2c010:	ffe9 fff4 0004 0005 000e 0000 fff4 0000     ................
   2c020:	fffa 000c 0011 0004 fffe 0000 0015 0027     ..............'.
   2c030:	0011 0000 000d 000d 000f 0017 0021 0026     ............!.&.
   2c040:	0021 002f 003f 0031 002b 0027 0025 0029     !./.?.1.+.'.%.).
   2c050:	002f 0033 003c 002d 0011 001e 0030 0032     /.3.<.-.....0.2.
   2c060:	0019 0015 002f 0044 0049 003a 0035 0030     ..../.D.I.:.5.0.
   2c070:	0034 0037 002a 0028 002d 004a 004e 0036     4.7.*.(.-.J.N.6.
   2c080:	0035 003c 0041 002e 0026 001c 0014 000b     5.<.A...&.......
   2c090:	000c 0017 fffd ffeb 0000 0003 ffd7 ffdd     ................
   2c0a0:	ffed fffe 000f 0017 0025 0035 0030 0025     ........%.5.0.%.
   2c0b0:	003a 001e 000a 0015 0010 000e 0014 0008     :...............
   2c0c0:	0003 0001 fff1 ffff 000c 0007 ffea ffe8     ................
   2c0d0:	0005 0008 0003 0010 0011 fffa fff4 0003     ................
   2c0e0:	fffd 0003 fff5 fff2 0004 0020 0026 000a     .......... .&...
   2c0f0:	ffe2 fff1 fff6 ffdf ffdc ffe0 ffda ffc0     ................
   2c100:	ffe7 fff2 ffc9 ffba 002d 002d ffc5 ffa5     ........-.-.....
   2c110:	ffa9 ffd4 0015 fff7 ffd0 ffb0 ffb0 ffee     ................
   2c120:	fff4 fff1 0005 0013 0034 0026 0028 001a     ........4.&.(...
   2c130:	ffea fff1 0018 0003 000f 0012 fffb 0004     ................
   2c140:	000c 0025 001b fff8 0018 001b 001f 0027     ..%...........'.
   2c150:	0020 001c 0017 0010 0010 0003 fffc 001e      ...............
   2c160:	0034 002e 0011 0007 000c 0012 0020 002e     4........... ...
   2c170:	002f 002a 000f 000d 0021 001e 000c ffec     /.*.....!.......
   2c180:	ffd3 ffe5 fff3 fff5 fff9 ffde ffec fffa     ................
   2c190:	0005 0015 0012 0022 001e 001a 0015 0019     ......".........
   2c1a0:	0014 001c 0034 0031 001e 0025 0030 0025     ....4.1...%.0.%.
   2c1b0:	002b 003a 0027 003e 0044 005a 0063 0063     +.:.'.>.D.Z.c.c.
   2c1c0:	0065 006a 0073 0060 006f 005c 004d 005c     e.j.s.`.o.\.M.\.
   2c1d0:	005f 0056 0048 0034 0033 0025 0009 ffff     _.V.H.4.3.%.....
   2c1e0:	ffce ffc5 ffbc ffa8 ff7b ff63 ff64 ff2a     ........{.c.d.*.
   2c1f0:	ff1e ff06 ff02 ff15 fefe fecb fec1 fee3     ................
   2c200:	fecb fece fed1 feb6 fec2 fed2 fed8 fed1     ................
   2c210:	fecf febe feca fec3 fecf fec9 fed0 fed0     ................
   2c220:	fec1 fed1 ff02 ff14 ff15 ff28 ff38 ff39     ..........(.8.9.
   2c230:	ff49 ff67 ff7b ff99 ffb0 ffbe ffdb 0007     I.g.{...........
   2c240:	0029 003d 0068 0081 0095 00a6 00c3 00da     ).=.h...........
   2c250:	00fc 0119 0123 011a 011d 013d 0160 017b     ....#.....=.`.{.
   2c260:	0186 01ae 0199 017d 017f 019c 01c0 01ce     ......}.........
   2c270:	01dc 01e0 01db 01c3 01c5 01cc 01bf 01bf     ................
   2c280:	01b0 01af 01aa 0194 019f 0171 0143 013d     ..........q.C.=.
   2c290:	0133 0130 010c 00ed 00d3 00d3 00b8 00b6     3.0.............
   2c2a0:	00af 008e 0084 0078 0070 005a 0027 000c     ......x.p.Z.'...
   2c2b0:	000a ffee ffe3 ffde ffc0 ffab ff9b ff8f     ................
   2c2c0:	ff7c ff51 ff37 ff32 ff0c fefb fef1 fee2     |.Q.7.2.........
   2c2d0:	fecb feb5 feb6 fead feae feaf fe9f fe9a     ................
   2c2e0:	fe7d fe73 fe7a fe9b fea1 fe82 fe79 fe6f     }.s.z.......y.o.
   2c2f0:	fe6f fe66 fe56 fe57 fe54 fe6d fe78 fe74     o.f.V.W.T.m.x.t.
   2c300:	fe7f fe9f fea6 feb2 fea8 feb3 fedf fecf     ................
   2c310:	feee fee4 fef6 fef6 ff20 ff4d fed7 ff83     ........ .M.....
   2c320:	ff55 ff86 ff8a ff83 ffa1 ffb5 ffd5 ffef     U...............
   2c330:	002e 003c 000c ffe5 ffc6 ffc2 0006 0052     ..<...........R.
   2c340:	00a2 00ca 00ee 0118 0137 0125 00fc 00f5     ........7.%.....
   2c350:	0099 006c 0070 007b 0099 00c6 0108 00fe     ..l.p.{.........
   2c360:	0117 013e 0152 0152 0135 013d 0159 0150     ..>.R.R.5.=.Y.P.
   2c370:	0159 0166 0155 0151 0155 015c 015d 0145     Y.f.U.Q.U.\.].E.
   2c380:	013d 0142 0120 010c 0112 010a 00e8 00d7     =.B. ...........
   2c390:	00d4 00de 00da 00e4 00e6 00db 00db 00d8     ................
   2c3a0:	00ec 0103 00fa 00d0 00cd 00c1 00aa 00a5     ................
   2c3b0:	00ac 00ae 00b3 00b0 00ac 00ac 0096 007b     ..............{.
   2c3c0:	0081 0075 0066 0068 004f 003a 0040 0049     ..u.f.h.O.:.@.I.
   2c3d0:	003a 0025 0009 001b 0008 ffe7 ffe4 ffd0     :.%.............
   2c3e0:	ffb8 ffa5 ff90 ffa2 ffa2 ffa0 ff9c ff84     ................
   2c3f0:	ff92 ffa1 ff9a ff90 ff8b ff82 ff69 ff5f     ............i._.
   2c400:	ff70 ff56 ff3d ff3d ff34 ff2f ff16 ff24     p.V.=.=.4./...$.
   2c410:	ff31 ff10 ff0b ff26 ff1d ff22 ff3a ff2d     1.....&...".:.-.
   2c420:	ff35 ff36 ff3e ff3a ff3c ff4b ff6a ff57     5.6.>.:.<.K.j.W.
   2c430:	ff48 ff55 ff6d ff7b ff89 ff95 ff86 ff80     H.U.m.{.........
   2c440:	ff71 ff79 ff88 ff8f ff89 ff8d ff91 ff89     q.y.............
   2c450:	ff8a ff9e ff9e ff96 ff98 ffa6 ffb9 ffc1     ................
   2c460:	ffba ffa6 ff9f ffb2 ffb9 ffbc ffbf ffcb     ................
   2c470:	ffca ffc1 ffbc ffd9 fff6 ffed fff6 fff9     ................
   2c480:	fff8 0007 0007 fff8 ffec fff5 fffa 0010     ................
   2c490:	0017 001e 001b 001a 002b 0046 004e 005b     ........+.F.N.[.
   2c4a0:	0062 0052 005c 0037 0045 006e 0054 0047     b.R.\.7.E.n.T.G.
   2c4b0:	0040 0051 004d 0039 0036 0041 0045 0039     @.Q.M.9.6.A.E.9.
   2c4c0:	0022 0023 0023 0038 0046 0036 002e 0036     ".#.#.8.F.6...6.
   2c4d0:	0040 0044 0029 0037 004e 004c 003f 003f     @.D.).7.N.L.?.?.
   2c4e0:	0040 004e 0044 003b 0051 003f 002e 002e     @.N.D.;.Q.?.....
   2c4f0:	0019 0003 0002 0000 fffc fff2 fffa 000f     ................
   2c500:	000a fff2 ffe6 0004 000b 001b 0018 000a     ................
   2c510:	0002 fff2 ffff ffff ffee ffea ffed ffe6     ................
   2c520:	ffef fff7 ffea ffce ffb9 ffc7 ffd5 ffcb     ................
   2c530:	ffc8 ffc8 ffbe ffbb ffd1 ffe4 ffd5 ffdd     ................
   2c540:	ffef ffef ffe3 ffe6 ffda ffd2 ffda fff3     ................
   2c550:	0013 0006 ffed ffec ffdb ffec fff3 fff5     ................
   2c560:	ffe1 ffdd ffe0 ffdc ffca ffd6 ffe1 ffdd     ................
   2c570:	ffec fff0 fff2 fff3 ffe8 ffed 0002 0012     ................
   2c580:	001a 001d 0013 0010 002c 001c fff5 fff5     ........,.......
   2c590:	ffeb fff0 0005 fff7 0000 0009 0003 000f     ................
   2c5a0:	001f 0018 002a 003f 0034 0028 0026 0025     ....*.?.4.(.&.%.
   2c5b0:	0040 003a 003f 0045 0038 0041 003c 0046     @.:.?.E.8.A.<.F.
   2c5c0:	004d 0062 005d 0057 0059 0055 0052 004f     M.b.].W.Y.U.R.O.
   2c5d0:	0048 0044 0050 0048 0044 0039 0038 0033     H.D.P.H.D.9.8.3.
   2c5e0:	0028 002d 003c 0031 003d 0042 0034 003e     (.-.<.1.=.B.4.>.
   2c5f0:	0056 0048 0040 003d 003d 0034 0028 002b     V.H.@.=.=.4.(.+.
   2c600:	0037 0052 0043 002f 002f 0027 0023 0032     7.R.C././.'.#.2.
   2c610:	002a 001a 001e 001f 000c fff2 fff9 0001     *...............
   2c620:	000a 000c 0011 0022 0020 0022 002b 0017     ......". .".+...
   2c630:	000b fff8 fff2 fffe ffed ffe7 ffe2 fff1     ................
   2c640:	ffed fff1 0007 fff4 ffff 0001 fff2 ffe7     ................
   2c650:	ffdf ffe4 ffd0 ffe3 ffd5 ffc6 ffca ffc5     ................
   2c660:	ffd4 ffe0 fff0 ffdc ffea ffdd ffe7 fff9     ................
   2c670:	ffec 0001 ffec ffe8 ffef ffe2 ffd5 ffb0     ................
   2c680:	ffaf ffab ffca ffdb ffdc ffe3 ffd1 ffd5     ................
   2c690:	ffd1 ffdf ffe3 ffe5 ffea ffdc ffc4 ffbe     ................
   2c6a0:	ffda fff0 fff8 ffe7 fff2 ffee ffe2 000f     ................
   2c6b0:	003a 002e 0026 0017 0016 000a fffd 0006     :...&...........
   2c6c0:	0006 fff8 ffd7 ffd4 ffe2 ffe2 ffe8 ffe9     ................
   2c6d0:	ffdd ffe8 0006 0007 0005 ffe2 ffea fffe     ................
   2c6e0:	fffe fff3 ffdd ffe3 ffe4 ffe1 ffd9 ffd6     ................
   2c6f0:	ffc2 ffb9 ffc7 ffc6 ffd0 ffe7 ffed ffd4     ................
   2c700:	fff0 0012 0003 ffed ffee ffff fffb 0002     ................
   2c710:	0012 0009 0009 0016 002e 0012 000d 0025     ..............%.
   2c720:	0020 000f fffd 000b 0005 fff3 0011 0012      ...............
   2c730:	ffe9 ffce ffee 0003 fffe ffff fff6 ffef     ................
   2c740:	0003 0015 0008 0007 fff7 ffed fff0 ffdf     ................
   2c750:	ffdf ffee fff7 ffe2 ffcd ffc5 ffb8 ffb9     ................
   2c760:	ffb7 ffc8 ffd0 ffc5 ffc0 ffcf ffd2 ffd2     ................
   2c770:	ffd2 ffdd ffdf ffd3 ffdc ffda ffc5 ffd6     ................
   2c780:	ffef fffd fffa fff4 fff7 0002 0006 ffff     ................
   2c790:	fffb ffef fffd 0008 ffff 0002 0017 000c     ................
   2c7a0:	000d 000c 000f 0035 002e 002a 0042 0045     ......5...*.B.E.
   2c7b0:	003e 004d 0068 005d 004f 004b 0047 0048     >.M.h.].O.K.G.H.
   2c7c0:	003b 0037 0034 0027 002b 002e 0014 0016     ;.7.4.'.+.......
   2c7d0:	001c 000d fffe ffef ffec 000b 001f 0017     ................
   2c7e0:	0008 0007 0010 0016 001e 0028 0023 000b     ..........(.#...
   2c7f0:	fffa 0009 0013 0026 001b 0008 fffa 000c     ......&.........
   2c800:	0015 000c fff4 ffd0 ffd8 ffd6 ffc0 ffbc     ................
   2c810:	ffe7 fff1 ffe3 ffe3 fff8 0015 000c 000d     ................
   2c820:	002b 0032 0031 0033 0025 0018 001b 001b     +.2.1.3.%.......
   2c830:	0006 0003 0003 0001 0002 0002 0000 0002     ................
   2c840:	0002 0001 ffff ffff 0002 0002 0002 0000     ................
   2c850:	0000 0001 0001 0001 0002 0001 0001 0000     ................
   2c860:	ffff ffff fffe fffd fffb fffb fffc fffd     ................
   2c870:	fffe ffff 0001 0003 0004 0003 0003 0002     ................
   2c880:	0001 0000 0000 ffff fffe fffd fffc fffb     ................
   2c890:	fffc fffc fffd fffd fffd fffe fffd fffe     ................
   2c8a0:	fffe fffd ffff ffff fffe fffe fffe ffff     ................
   2c8b0:	ffff 0000 0000 ffff ffff ffff 0001 0002     ................
   2c8c0:	0003 0002 0000 ffff fffe fffe ffff 0000     ................
   2c8d0:	ffff fffe fffe fffe ffff 0000 0000 0000     ................
   2c8e0:	ffff ffff ffff 0000 0001 0002 0001 0001     ................
	...
   2c8f8:	0000 ffff ffff ffff ffff ffff ffff ffff     ................
   2c908:	ffff fffe fffe fffe fffe ffff fffe fffe     ................
   2c918:	fffe fffe fffe fffe ffff ffff ffff 0000     ................
   2c928:	0000 0000 0001 0001 0001 0001 0001 0000     ................
   2c938:	0000 ffff ffff ffff ffff ffff ffff 0000     ................
	...
   2c964:	ffff 0000 0000 0000 0000 0001 ffff 0001     ................
   2c974:	ffff 0002 fffd 0002 fffb 000a ffa3 ff59     ..............Y.
   2c984:	ff52 ff45 ff5f ff72 ff79 ff91 ff8e ff7f     R.E._.r.y.......
   2c994:	ff75 ff70 ff7a ff85 ff8d ff88 ff8e ff92     u.p.z...........
   2c9a4:	ff86 ff90 ff9a ff92 ff99 ff9d ffac ffbb     ................
   2c9b4:	ffbc ffb4 ffa7 ffa4 ffb4 ffb9 ffb9 ffc8     ................
   2c9c4:	ffd1 ffc9 ffc2 ffc7 ffec fff5 fff1 fffd     ................
   2c9d4:	ffff 0006 0009 0008 fff9 ffef fffe 0007     ................
   2c9e4:	0012 0018 0024 001f 0016 0032 004f 0050     ....$.....2.O.P.
   2c9f4:	005a 0058 0053 004c 0028 0050 0067 0046     Z.X.S.L.(.P.g.F.
   2ca04:	003a 0045 0055 0041 002f 0042 0046 003b     :.E.U.A./.B.F.;.
   2ca14:	0030 001c 0023 0021 0038 003f 0027 0028     0...#.!.8.?.'.(.
   2ca24:	0037 003b 0039 002c 0039 0049 0042 0035     7.;.9.,.9.I.B.5.
   2ca34:	0037 003d 0048 002f 003c 004c 003a 0033     7.=.H./.<.L.:.3.
   2ca44:	0027 0011 0003 ffff 0006 fffe fff3 0005     '...............
   2ca54:	0013 0007 fff1 ffeb 0008 0014 001d 0014     ................
   2ca64:	0010 ffff fff2 0005 ffff fff2 fff2 fff1     ................
   2ca74:	fff2 fff7 fff9 ffe8 ffce ffc4 ffd2 ffd6     ................
   2ca84:	ffd3 ffd3 ffc7 ffbb ffc3 ffdd ffe0 ffda     ................
   2ca94:	ffe6 fff2 ffed ffe2 ffe8 ffd9 ffd8 ffeb     ................
   2caa4:	fffe 0013 fffd ffef ffe6 ffe2 fff2 fff8     ................
   2cab4:	ffee ffdc ffe2 ffe1 ffcd ffc2 ffde ffe0     ................
   2cac4:	ffde fff3 ffea fff1 fff1 ffe6 fff8 000c     ................
   2cad4:	0016 001c 001d 000f 0018 002d 000b fff2     ..........-.....
   2cae4:	fff5 ffea fff8 0007 fffb 0003 0005 0001     ................
   2caf4:	0019 0022 001b 0038 003f 002a 0023 0022     .."...8.?.*.#.".
   2cb04:	002e 0045 003b 0045 0042 003b 003a 003e     ..E.;.E.B.;.:.>.
   2cb14:	004a 0058 0064 0054 005b 005c 0058 0052     J.X.d.T.[.\.X.R.
   2cb24:	004f 004c 004f 0055 0054 0047 0039 0039     O.L.O.U.T.G.9.9.
   2cb34:	002e 0026 0036 0040 0036 0044 0044 0039     ..&.6.@.6.D.D.9.
   2cb44:	004b 005f 0048 0046 0045 0042 0032 002a     K._.H.F.E.B.2.*.
   2cb54:	002f 0040 0051 003d 0031 002e 0026 0028     /.@.Q.=.1...&.(.
   2cb64:	0038 0026 0020 0024 001c 0005 fff7 0001     8.&. .$.........
   2cb74:	0006 000d 000e 001d 0026 001a 002d 0025     ........&...-.%.
   2cb84:	0010 000b fff1 fffa fff8 ffec ffea ffe3     ................
   2cb94:	fff1 ffe9 ffff 0005 fff3 0004 fffa ffec     ................
   2cba4:	ffe5 ffe5 ffdb ffd3 ffeb ffd0 ffc9 ffc6     ................
   2cbb4:	ffc8 ffd9 ffeb ffe8 ffde ffe8 ffd4 fff2     ................
   2cbc4:	fff3 fff3 ffff ffe3 ffeb ffe9 ffe0 ffca     ................
   2cbd4:	ffac ffae ffad ffd5 ffd6 ffe2 ffd8 ffd2     ................
   2cbe4:	ffd5 ffd4 ffe5 ffe1 ffe7 ffe3 ffd2 ffbf     ................
   2cbf4:	ffc8 ffe3 fff6 fff2 ffe6 fff5 ffe6 fff0     ................
   2cc04:	0023 003b 0030 0022 0016 0017 0007 0006     #.;.0.".........
   2cc14:	0009 0007 ffef ffcf ffdc ffe1 ffe3 ffea     ................
   2cc24:	ffe6 ffd9 fff1 0005 0006 fff7 ffd7 fff2     ................
   2cc34:	fffd fffc ffe8 ffda ffe6 ffe4 ffdc ffd8     ................
   2cc44:	ffd5 ffba ffbe ffc8 ffc9 ffd8 ffed ffe2     ................
   2cc54:	ffd7 ffff 0010 fffb ffec fff6 0001 fff9     ................
   2cc64:	000b 0012 0008 000b 001f 0029 000a 0016     ..........).....
   2cc74:	0024 001d 0008 fffc 0011 fffc fff9 0015     $...............
   2cc84:	0009 ffde ffd5 fffc ffff ffff fffb fff3     ................
   2cc94:	fff3 000a 0011 0007 0003 ffef ffed ffeb     ................
   2cca4:	ffdc ffe7 fff3 fff2 ffd7 ffcc ffc3 ffb5     ................
   2ccb4:	ffb9 ffbd ffcd ffcd ffc4 ffc6 ffd4 ffd0     ................
   2ccc4:	ffd0 ffd6 ffe3 ffd9 ffd3 ffde ffd3 ffc6     ................
   2ccd4:	ffe1 fff4 fffe fff9 fff5 fffb 0006 0003     ................
   2cce4:	ffff fff5 fff2 0005 0005 fffc 000b 0018     ................
   2ccf4:	000c 0011 0005 001b 0035 0025 0031 0046     ........5.%.1.F.
   2cd04:	0044 003d 0053 0067 0055 004e 0046 0047     D.=.S.g.U.N.F.G.
   2cd14:	0043 0037 0037 002f 0023 002f 0027 0010     C.7.7./.#./.'...
   2cd24:	001b 0019 0009 fffc ffec fff7 0017 0021     ..............!.
   2cd34:	0012 0009 000c 0015 001a 0024 002a 001e     ..........$.*...
   2cd44:	0002 ffff 000c 0019 0025 0012 0002 fff9     ........%.......
   2cd54:	0013 0012 000b ffe7 ffd0 ffdc ffd0 ffbb     ................
   2cd64:	ffc8 fff0 ffed ffe4 ffe6 0006 0016 0009     ................
   2cd74:	0015 0031 0030 0035 0032 0020 0017 001d     ..1.0.5.2. .....
   2cd84:	0014 0003 0005 0003 0001 0002 0001 0000     ................
   2cd94:	0001 0002 ffff fffe 0001 0002 0003 0002     ................
   2cda4:	0002 0002 0001 0002 0002 0002 0000 0000     ................
   2cdb4:	0000 0000 ffff fffd fffc fffb fffb fffc     ................
   2cdc4:	fffc fffd ffff 0001 0003 0002 0003 0002     ................
   2cdd4:	0001 0000 0001 0000 0000 fffe fffd fffd     ................
   2cde4:	fffc fffc fffc fffe fffe fffd fffd fffe     ................
   2cdf4:	fffe fffe fffe fffe fffe fffe fffe ffff     ................
   2ce04:	fffe 0000 ffff 0000 0000 ffff 0000 0001     ................
   2ce14:	0002 0002 0001 0000 fffe fffe ffff 0000     ................
   2ce24:	0000 ffff fffe fffe fffe ffff 0000 0000     ................
   2ce34:	0000 ffff ffff 0000 0001 0002 0002 0001     ................
	...
   2ce4c:	0000 ffff ffff ffff ffff ffff ffff ffff     ................
   2ce5c:	ffff ffff fffe fffe fffe fffe fffe fffe     ................
   2ce6c:	fffe fffe fffe fffe fffe ffff ffff 0000     ................
   2ce7c:	0000 0000 0000 0001 0001 0001 0001 0001     ................
   2ce8c:	0000 0000 ffff ffff ffff ffff ffff ffff     ................
	...
   2ceb4:	0000 0001 0000 0000 0000 0000 0000 0000     ................
   2cec4:	ffff 0000 ffff 0001 0000 0000 ffff 0002     ................
   2ced4:	fff7 ff7a ff57 ff4a ff4b ff68 ff74 ff80     ..z.W.J.K.h.t...
   2cee4:	ff96 ff87 ff7c ff6f ff72 ff7d ff89 ff8b     ....|.o.r.}.....
   2cef4:	ff89 ff92 ff90 ff85 ff97 ff97 ff94 ff9a     ................
   2cf04:	ffa1 ffb2 ffbd ffb9 ffb1 ffa2 ffa9 ffb7     ................
   2cf14:	ffb8 ffbc ffcf ffcf ffc9 ffc0 ffd3 fff3     ................
   2cf24:	fff0 fff4 fffd fffe 0006 0007 0003 fff0     ................
   2cf34:	fff4 0001 000a 0015 001d 0028 001a 001b     ..........(.....
   2cf44:	0041 0054 0054 005b 0056 0056 0040 002b     A.T.T.[.V.V.@.+.
   2cf54:	0061 005c 0040 0039 004c 0052 0037 0033     a.\.@.9.L.R.7.3.
   2cf64:	0049 003f 0039 0028 001d 0020 0026 0040     I.?.9.(... .&.@.
   2cf74:	0038 0022 0030 0038 003e 0036 002e 0040     8.".0.8.>.6...@.
   2cf84:	004a 003e 0038 0038 0041 0044 0030 0046     J.>.8.8.A.D.0.F.
   2cf94:	0048 0037 002f 0021 000b ffff ffff 0004     H.7./.!.........
   2cfa4:	fffb fff8 000b 0010 ffff ffea fff3 0010     ................
   2cfb4:	0019 0020 0010 000c fff5 fff8 0007 fff9     .. .............
   2cfc4:	fff2 fff2 fff2 fff7 fff6 fff6 ffe3 ffc4     ................
   2cfd4:	ffc8 ffd9 ffd3 ffd4 ffce ffc5 ffc0 ffcc     ................
   2cfe4:	ffe6 ffdd ffe2 ffec fff4 ffe5 ffe2 ffe2     ................
   2cff4:	ffd7 ffdd ffec 000b 0010 fff7 fff2 ffe3     ................
   2d004:	ffec fff5 fffc ffec ffe1 ffe5 ffdd ffc9     ................
   2d014:	ffc9 ffe1 ffdb ffe6 ffef ffe8 ffef ffeb     ................
   2d024:	ffe7 fffe 000a 0017 001f 0017 000e 0020     .............. .
   2d034:	0028 0000 fff2 fff1 ffec 0004 0004 fffd     (...............
   2d044:	0007 0001 000b 0021 001e 0022 0041 0039     ......!...".A.9.
   2d054:	0027 0024 0021 0037 0040 003b 0048 003b     '.$.!.7.@.;.H.;.
   2d064:	0040 003c 0040 004b 0060 0064 0056 005d     @.<.@.K.`.d.V.].
   2d074:	005c 0057 0055 0050 0048 0050 0053 0050     \.W.U.P.H.P.S.P.
   2d084:	003e 003a 0038 002a 0029 003d 0035 0035     >.:.8.*.).=.5.5.
   2d094:	0049 003f 0038 0054 0053 0041 0045 0040     I.?.8.T.S.A.E.@.
   2d0a4:	003b 0030 002c 0034 0047 004c 0030 002f     ;.0.,.4.G.L.0./.
   2d0b4:	002d 0022 002e 0031 001f 0020 0020 0017     -."...1... . ...
   2d0c4:	ffff fffb 0002 0009 000c 0011 0022 0021     ............".!.
   2d0d4:	0022 0030 001f 0012 0007 fff1 0002 fff5     ".0.............
   2d0e4:	ffe9 ffe6 ffe9 fff0 ffea 0008 fffa fff6     ................
   2d0f4:	0002 fff6 ffea ffdf ffe5 ffd4 ffda ffe2     ................
   2d104:	ffc7 ffcc ffc4 ffd1 ffdb ffea ffe1 ffe2     ................
   2d114:	ffe7 ffdc fffa ffee fff9 fff4 ffe2 fff0     ................
   2d124:	ffe7 ffe1 ffba ffab ffab ffb9 ffdb ffd6     ................
   2d134:	ffe2 ffd1 ffd2 ffd1 ffdc ffe4 ffe2 ffea     ................
   2d144:	ffe1 ffd0 ffbd ffcf ffea fff6 ffed ffef     ................
   2d154:	fff1 ffdf fffd 0030 0037 0028 001a 0018     ......0.7.(.....
   2d164:	0011 0000 0001 0007 0001 ffe3 ffcf ffe0     ................
   2d174:	ffe2 ffe8 ffe7 ffe0 ffdd 0000 000c 0005     ................
   2d184:	ffe9 ffe1 fff9 fffb fff8 ffe0 ffdf ffe1     ................
   2d194:	ffe1 ffda ffd6 ffca ffb5 ffc3 ffc6 ffcd     ................
   2d1a4:	ffe0 fff1 ffd9 ffe2 000e 0010 fff5 ffec     ................
   2d1b4:	fffc fffe fffa 000d 000e 0009 000f 0027     ..............'.
   2d1c4:	001b 0008 001f 0026 0017 fffe 0003 000a     ......&.........
   2d1d4:	fff7 0006 0015 fff9 ffd1 ffe1 0003 fffe     ................
   2d1e4:	fffe fff6 fff3 fff9 0013 000b 0006 fffe     ................
   2d1f4:	ffea ffef ffe4 ffda ffe8 fff7 ffec ffd2     ................
   2d204:	ffca ffbd ffb6 ffb6 ffc1 ffd0 ffc9 ffc1     ................
   2d214:	ffcd ffd3 ffd5 ffd4 ffd9 ffe4 ffd7 ffd9     ................
   2d224:	ffde ffcd ffcf ffea fff9 fffb fff5 fff5     ................
   2d234:	fff9 0004 0000 fffd fff0 fff8 0008 0006     ................
   2d244:	fffe 000f 0011 000d 0010 0007 0028 0031     ............(.1.
   2d254:	0026 003c 0049 003d 0043 005e 0064 0050     &.<.I.=.C.^.d.P.
   2d264:	004d 0042 0048 003e 0032 0034 002f 0026     M.B.H.>.2.4./.&.
   2d274:	0029 001b 0014 001e 0012 0005 fff3 ffe8     )...............
   2d284:	0004 001d 001a 000b 0009 000e 0018 0021     ..............!.
   2d294:	0028 0022 0011 0003 0007 000e 001d 001a     (.".............
   2d2a4:	000d fffb 0001 0015 000e 0001 ffd5 ffd5     ................
   2d2b4:	ffe0 ffcc ffbb ffd8 fff5 ffea ffe8 ffee     ................
   2d2c4:	000b 0011 0009 001f 0033 0031 0033 0027     ........3.1.3.'.
   2d2d4:	001b 0018 0021 000f 0002 0003 0001 0003     ....!...........
   2d2e4:	0006 fffe ffff 0003 0001 ffff 0000 0003     ................
   2d2f4:	0001 0002 0002 0001 0000 0002 0000 ffff     ................
   2d304:	ffff 0000 0002 ffff fffe fffd fffc fffe     ................
   2d314:	fffd fffd ffff ffff ffff ffff ffff 0003     ................
   2d324:	0002 fffe ffff fffe fffb fffe ffff fffb     ................
   2d334:	fffe ffff fffc fffc fffd ffff ffff fffd     ................
   2d344:	fffe ffff 0000 fffe fffd 0000 0000 ffff     ................
   2d354:	0001 0000 ffff 0002 0001 ffff 0000 0000     ................
	...
   2d36c:	0001 ffff fffe fffe fffe ffff ffff fffe     ................
   2d37c:	fffe fffd fffd fffd fffe ffff fffe fffe     ................
   2d38c:	fffd fffd fffe 0000 0000 0000 0000 0000     ................
   2d39c:	0000 0000 0000 0001 0000 0000 0000 0000     ................
	...
   2d3b4:	ffff ffff ffff 0000 0000 0000 0000 ffff     ................
   2d3c4:	ffff ffff ffff ffff ffff ffff ffff ffff     ................
   2d3d4:	ffff ffff 0000 0000 0000 0001 0000 0000     ................
   2d3e4:	0000 0000 0000 ffff ffff 0000 0000 0000     ................
	...
   2d42c:	0f28 0000 0f64 0000 0eec 0000 0eec 0000     (...d...........
   2d43c:	0eec 0000 0eec 0000 0f64 0000 0eec 0000     ........d.......
   2d44c:	0eec 0000 0fcc 0000 0eec 0000 0eec 0000     ................
   2d45c:	0eec 0000 0f94 0000 0eec 0000 0eec 0000     ................
   2d46c:	0f3c 0000 0eec 0000 0f64 0000 0eec 0000     <.......d.......
   2d47c:	0eec 0000 0f80 0000 3100 5362 f5c4 97a6     .........1bS....
   2d48c:	88b9 eadb 4c7d 2e1f 7243 1021 b687 d4e5     ....}L..Cr!.....
   2d49c:	cbfa a998 0f3e 6d5c b786 d5e4 7342 1120     ....>.\m....Bs .
   2d4ac:	0e3f 6c5d cafb a899 f4c5 96a7 3001 5263     ?.]l.........0cR
   2d4bc:	4d7c 2f1e 89b8 ebda 0c3d 6e5f c8f9 aa9b     |M./....=._n....
   2d4cc:	b584 d7e6 7140 1322 4f7e 2d1c 8bba e9d8     ....@q".~O.-....
   2d4dc:	f6c7 94a5 3203 5061 8abb e8d9 4e7f 2c1d     .....2aP.....N.,
   2d4ec:	3302 5160 f7c6 95a4 c9f8 ab9a 0d3c 6f5e     .3`Q........<.^o
   2d4fc:	7041 1223 b485 d6e7 4b7a 2918 8fbe eddc     Ap#.....zK.)....
   2d50c:	f2c3 90a1 3607 5465 0839 6a5b ccfd ae9f     .....6eT9.[j....
   2d51c:	b180 d3e2 7544 1726 cdfc af9e 0938 6b5a     ....Du&.....8.Zk
   2d52c:	7445 1627 b081 d2e3 8ebf ecdd 4a7b 2819     Et'.........{J.(
   2d53c:	3706 5564 f3c2 91a0 7647 1425 b283 d0e1     .7dU....Gv%.....
   2d54c:	cffe ad9c 0b3a 6958 3504 5766 f1c0 93a2     ....:.Xi.5fW....
   2d55c:	8cbd eedf 4879 2a1b f0c1 92a3 3405 5667     ....yH.*.....4gV
   2d56c:	4978 2b1a 8dbc efde b382 d1e0 7746 1524     xI.+........Fw$.
   2d57c:	0a3b 6859 ceff ac9d 5245 3a52 4f20 7475     ;.Yh....ERR: Out
   2d58c:	6f20 2066 656d 6f6d 7972 2021 6572 3d71      of memory! req=
   2d59c:	6425 202c 7661 6961 3d6c 6425 000a 0000     %d, avail=%d....
   2d5ac:	504f 4e45 0000 0000 4c43 534f 0045 0000     OPEN....CLOSE...
   2d5bc:	7541 6964 206f 5444 2057 6554 7473 2820     Audio DTW Test (
   2d5cc:	6946 6578 2064 6f50 6e69 2974 2d20 5020     Fixed Point) - P
   2d5dc:	726f 6574 0a64 0000 7845 7274 6361 6974     orted...Extracti
   2d5ec:	676e 6620 6165 7574 6572 2e73 2e2e 000a     ng features.....
   2d5fc:	6546 7461 7275 2065 7845 7274 6361 6974     Feature Extracti
   2d60c:	6e6f 4620 6961 656c 2064 4f28 7475 6f20     on Failed (Out o
   2d61c:	2066 654d 6f6d 7972 293f 000a 540a 7365     f Memory?)...Tes
   2d62c:	2074 3a31 4d20 7461 6863 6e69 2067 706f     t 1: Matching op
   2d63c:	6e65 745f 7365 5f74 6370 0a6d 0000 0000     en_test_pcm.....
   2d64c:	6944 7473 7420 206f 704f 6e65 203a 6425     Dist to Open: %d
   2d65c:	202c 6944 7473 7420 206f 6c43 736f 3a65     , Dist to Close:
   2d66c:	2520 2064 3e2d 5220 7365 6c75 3a74 2520      %d -> Result: %
   2d67c:	0a73 0000 540a 7365 2074 3a32 4d20 7461     s....Test 2: Mat
   2d68c:	6863 6e69 2067 6c63 736f 5f65 6574 7473     ching close_test
   2d69c:	705f 6d63 000a 0000 540a 7365 7374 4320     _pcm.....Tests C
   2d6ac:	6d6f 6c70 7465 6465 0a2e 0000 454b 3159     ompleted....KEY1
   2d6bc:	7020 6572 7373 6465 000a 0000 454b 3259      pressed....KEY2
   2d6cc:	7020 6572 7373 6465 000a 0000 3130 3332      pressed....0123
   2d6dc:	3534 3736 3938 4241 4443 4645 0000 0000     456789ABCDEF....
   2d6ec:	3130 3332 3534 3736 3938 6261 6463 6665     0123456789abcdef
   2d6fc:	0000 0000 6e28 6c75 296c 0000 7371 6970     ....(null)..qspi
   2d70c:	735f 6174 7574 3a73 2520 0a78 0000 0000     _status: %x.....
   2d71c:	7371 6970 695f 746e 6663 3a67 2520 0a78     qspi_intcfg: %x.
   2d72c:	0000 0000 7371 6970 645f 6d75 203a 7825     ....qspi_dum: %x
   2d73c:	000a 0000 7371 6970 635f 6b6c 6964 3a76     ....qspi_clkdiv:
   2d74c:	2520 0a78 0000 0000 3249 3a43 7720 6972      %x.....I2C: wri
   2d75c:	6574 6220 7479 2065 6f6e 6120 6b63 000a     te byte no ack..
   2d76c:	3249 3a43 7320 6174 7472 7220 6165 2064     I2C: start read 
   2d77c:	6f6e 6120 6b63 000a 3249 3a43 7220 6165     no ack..I2C: rea
   2d78c:	2064 7962 6574 6e20 206f 6361 0a6b 0000     d byte no ack...
   2d79c:	6661 6574 2072 7266 6d61 2065 6172 6574     after frame rate
   2d7ac:	6920 696e 0a74 0000 6661 6574 2072 6f70      init...after po
   2d7bc:	6577 2072 6573 7571 6e65 6563 6920 696e     wer sequence ini
   2d7cc:	0a74 0000 6661 6574 2072 6167 6d6d 2061     t...after gamma 
   2d7dc:	6573 7571 6e65 6563 6920 696e 0a74 0000     sequence init...
   2d7ec:	4654 2054 6e69 7469 6420 6e6f 0a65 0000     TFT init done...

0002d7fc <close_test_pcm_len>:
   2d7fc:	a380 0000                                   ....

0002d800 <open_test_pcm_len>:
   2d800:	9900 0000                                   ....

0002d804 <close_pcm_len>:
   2d804:	b140 0000                                   @...

0002d808 <open_pcm_len>:
   2d808:	abec 0000                                   ....
